---
triple:          'arm64-apple-darwin'
binary-path:     BinarySearchTree_compile_check.exe
relocations:
  - { offset: 0x7513, size: 0x8, addend: 0x0, symName: __ZNSt3__124__put_character_sequenceB8ne180100IcNS_11char_traitsIcEEEERNS_13basic_ostreamIT_T0_EES7_PKS4_m, symObjAddr: 0x2198, symBinAddr: 0x100005994, symSize: 0x1EC }
  - { offset: 0x9C44, size: 0x8, addend: 0x0, symName: __ZNSt3__16__math3powB8ne180100IiiLi0EEENS_9__promoteIT_T0_vE4typeES3_S4_, symObjAddr: 0xA748, symBinAddr: 0x10000DF44, symSize: 0x44 }
  - { offset: 0x9CA1, size: 0x8, addend: 0x0, symName: __ZNSt3__16__math3powB8ne180100IiEEddd, symObjAddr: 0xA78C, symBinAddr: 0x10000DF88, symSize: 0x2C }
  - { offset: 0xC20B, size: 0x8, addend: 0x0, symName: __ZNSt3__1lsB8ne180100INS_11char_traitsIcEEEERNS_13basic_ostreamIcT_EES6_PKc, symObjAddr: 0x48, symBinAddr: 0x100003844, symSize: 0x48 }
  - { offset: 0xC251, size: 0x8, addend: 0x0, symName: __ZNSt3__14endlB8ne180100IcNS_11char_traitsIcEEEERNS_13basic_ostreamIT_T0_EES7_, symObjAddr: 0xA18, symBinAddr: 0x100004214, symSize: 0x58 }
  - { offset: 0xC291, size: 0x8, addend: 0x0, symName: __ZNSt3__1lsB8ne180100IcNS_11char_traitsIcEENS_9allocatorIcEEEERNS_13basic_ostreamIT_T0_EES9_RKNS_12basic_stringIS6_S7_T1_EE, symObjAddr: 0x20BC, symBinAddr: 0x1000058B8, symSize: 0x4C }
  - { offset: 0xC2E9, size: 0x8, addend: 0x0, symName: __ZNSt3__116__pad_and_outputB8ne180100IcNS_11char_traitsIcEEEENS_19ostreambuf_iteratorIT_T0_EES6_PKS4_S8_S8_RNS_8ios_baseES4_, symObjAddr: 0x23D4, symBinAddr: 0x100005BD0, symSize: 0x240 }
  - { offset: 0xC3B8, size: 0x8, addend: 0x0, symName: __ZNSt3__112__to_addressB8ne180100IcEEPT_S2_, symObjAddr: 0x294C, symBinAddr: 0x100006148, symSize: 0x14 }
  - { offset: 0xC420, size: 0x8, addend: 0x0, symName: __ZNSt3__19use_facetB8ne180100INS_5ctypeIcEEEERKT_RKNS_6localeE, symObjAddr: 0x2C04, symBinAddr: 0x100006400, symSize: 0x2C }
  - { offset: 0xC8ED, size: 0x8, addend: 0x0, symName: __ZNSt3__118__constexpr_strlenB8ne180100EPKc, symObjAddr: 0x2C9C, symBinAddr: 0x100006498, symSize: 0x24 }
  - { offset: 0xD9CF, size: 0x8, addend: 0x0, symName: __ZNSt3__1eqB8ne180100IcNS_11char_traitsIcEENS_9allocatorIcEEEEbRKNS_12basic_stringIT_T0_T1_EEPKS6_, symObjAddr: 0x4388, symBinAddr: 0x100007B84, symSize: 0xAC }
  - { offset: 0xDA36, size: 0x8, addend: 0x0, symName: __ZNSt3__15rightB8ne180100ERNS_8ios_baseE, symObjAddr: 0x44B0, symBinAddr: 0x100007CAC, symSize: 0x30 }
  - { offset: 0xDA64, size: 0x8, addend: 0x0, symName: __ZNSt3__1lsB8ne180100IcNS_11char_traitsIcEEEERNS_13basic_ostreamIT_T0_EES7_RKNS_8__iom_t6E, symObjAddr: 0x44E0, symBinAddr: 0x100007CDC, symSize: 0x40 }
  - { offset: 0xDAB0, size: 0x8, addend: 0x0, symName: __ZNSt3__14setwB8ne180100Ei, symObjAddr: 0x4520, symBinAddr: 0x100007D1C, symSize: 0x2C }
  - { offset: 0xDADC, size: 0x8, addend: 0x0, symName: __ZNSt3__14leftB8ne180100ERNS_8ios_baseE, symObjAddr: 0x454C, symBinAddr: 0x100007D48, symSize: 0x30 }
  - { offset: 0xDB0A, size: 0x8, addend: 0x0, symName: __ZNSt3__1lsB8ne180100INS_11char_traitsIcEEEERNS_13basic_ostreamIcT_EES6_c, symObjAddr: 0x457C, symBinAddr: 0x100007D78, symSize: 0x34 }
  - { offset: 0xDD24, size: 0x8, addend: 0x0, symName: __ZNSt3__13maxB8ne180100ImEERKT_S3_S3_, symObjAddr: 0x5A5C, symBinAddr: 0x100009258, symSize: 0x2C }
  - { offset: 0xE1B8, size: 0x8, addend: 0x0, symName: __ZNSt3__14swapB8ne180100IPPPN16BinarySearchTreeIiNS_4lessIiEEE4NodeEEENS_9enable_ifIXaasr21is_move_constructibleIT_EE5valuesr18is_move_assignableISA_EE5valueEvE4typeERSA_SD_, symObjAddr: 0x60C4, symBinAddr: 0x1000098C0, symSize: 0x3C }
  - { offset: 0xE209, size: 0x8, addend: 0x0, symName: __ZNSt3__14moveB8ne180100IPPPN16BinarySearchTreeIiNS_4lessIiEEE4NodeES8_EET0_T_SA_S9_, symObjAddr: 0x61F4, symBinAddr: 0x1000099F0, symSize: 0x40 }
  - { offset: 0xE263, size: 0x8, addend: 0x0, symName: __ZNSt3__112__to_addressB8ne180100IPPN16BinarySearchTreeIiNS_4lessIiEEE4NodeEEEPT_S9_, symObjAddr: 0x62FC, symBinAddr: 0x100009AF8, symSize: 0x14 }
  - { offset: 0xE298, size: 0x8, addend: 0x0, symName: __ZNSt3__16__moveB8ne180100INS_17_ClassicAlgPolicyEPPPN16BinarySearchTreeIiNS_4lessIiEEE4NodeES9_S9_EENS_4pairIT0_T2_EESB_T1_SC_, symObjAddr: 0x6310, symBinAddr: 0x100009B0C, symSize: 0x44 }
  - { offset: 0xE304, size: 0x8, addend: 0x0, symName: __ZNSt3__123__dispatch_copy_or_moveB8ne180100INS_17_ClassicAlgPolicyENS_11__move_loopIS1_EENS_14__move_trivialEPPPN16BinarySearchTreeIiNS_4lessIiEEE4NodeESC_SC_EENS_4pairIT2_T4_EESE_T3_SF_, symObjAddr: 0x6354, symBinAddr: 0x100009B50, symSize: 0x44 }
  - { offset: 0xE382, size: 0x8, addend: 0x0, symName: __ZNSt3__121__unwrap_and_dispatchB8ne180100INS_10__overloadINS_11__move_loopINS_17_ClassicAlgPolicyEEENS_14__move_trivialEEEPPPN16BinarySearchTreeIiNS_4lessIiEEE4NodeESE_SE_Li0EEENS_4pairIT0_T2_EESG_T1_SH_, symObjAddr: 0x6398, symBinAddr: 0x100009B94, symSize: 0xB4 }
  - { offset: 0xE410, size: 0x8, addend: 0x0, symName: __ZNSt3__114__unwrap_rangeB8ne180100IPPPN16BinarySearchTreeIiNS_4lessIiEEE4NodeES8_EENS_4pairIT0_SA_EET_SC_, symObjAddr: 0x644C, symBinAddr: 0x100009C48, symSize: 0x60 }
  - { offset: 0xE610, size: 0x8, addend: 0x0, symName: __ZNSt3__113__unwrap_iterB8ne180100IPPPN16BinarySearchTreeIiNS_4lessIiEEE4NodeENS_18__unwrap_iter_implIS8_Lb1EEELi0EEEDTclsrT0_8__unwrapclsr3stdE7declvalIT_EEEESC_, symObjAddr: 0x64F4, symBinAddr: 0x100009CF0, symSize: 0x24 }
  - { offset: 0xE654, size: 0x8, addend: 0x0, symName: __ZNSt3__19make_pairB8ne180100IPPPN16BinarySearchTreeIiNS_4lessIiEEE4NodeES8_EENS_4pairINS_18__unwrap_ref_decayIT_E4typeENSA_IT0_E4typeEEEOSB_OSE_, symObjAddr: 0x6518, symBinAddr: 0x100009D14, symSize: 0x38 }
  - { offset: 0xE6A3, size: 0x8, addend: 0x0, symName: __ZNSt3__114__rewrap_rangeB8ne180100IPPPN16BinarySearchTreeIiNS_4lessIiEEE4NodeES8_EET_S9_T0_, symObjAddr: 0x6550, symBinAddr: 0x100009D4C, symSize: 0x2C }
  - { offset: 0xE6EF, size: 0x8, addend: 0x0, symName: __ZNSt3__113__rewrap_iterB8ne180100IPPPN16BinarySearchTreeIiNS_4lessIiEEE4NodeES8_NS_18__unwrap_iter_implIS8_Lb1EEEEET_SB_T0_, symObjAddr: 0x657C, symBinAddr: 0x100009D78, symSize: 0x3C }
  - { offset: 0xE744, size: 0x8, addend: 0x0, symName: __ZNSt3__119__copy_trivial_implB8ne180100IPPN16BinarySearchTreeIiNS_4lessIiEEE4NodeES7_EENS_4pairIPT_PT0_EESA_SA_SC_, symObjAddr: 0x65B8, symBinAddr: 0x100009DB4, symSize: 0x80 }
  - { offset: 0xE7AC, size: 0x8, addend: 0x0, symName: __ZNSt3__119__constexpr_memmoveB8ne180100IPPN16BinarySearchTreeIiNS_4lessIiEEE4NodeES7_Li0EEEPT_S9_PT0_NS_15__element_countE, symObjAddr: 0x6638, symBinAddr: 0x100009E34, symSize: 0x64 }
  - { offset: 0xE81A, size: 0x8, addend: 0x0, symName: __ZNSt3__19make_pairB8ne180100IRPPPN16BinarySearchTreeIiNS_4lessIiEEE4NodeES8_EENS_4pairINS_18__unwrap_ref_decayIT_E4typeENSB_IT0_E4typeEEEOSC_OSF_, symObjAddr: 0x669C, symBinAddr: 0x100009E98, symSize: 0x38 }
  - { offset: 0xE8BC, size: 0x8, addend: 0x0, symName: __ZNSt3__18distanceB8ne180100INS_13move_iteratorIPPPN16BinarySearchTreeIiNS_4lessIiEEE4NodeEEEEENS_15iterator_traitsIT_E15difference_typeESC_SC_, symObjAddr: 0x6904, symBinAddr: 0x10000A100, symSize: 0x3C }
  - { offset: 0xE8FF, size: 0x8, addend: 0x0, symName: __ZNSt3__110__distanceB8ne180100INS_13move_iteratorIPPPN16BinarySearchTreeIiNS_4lessIiEEE4NodeEEEEENS_15iterator_traitsIT_E15difference_typeESC_SC_NS_26random_access_iterator_tagE, symObjAddr: 0x6B08, symBinAddr: 0x10000A304, symSize: 0x30 }
  - { offset: 0xE94C, size: 0x8, addend: 0x0, symName: __ZNSt3__1miB8ne180100IPPPN16BinarySearchTreeIiNS_4lessIiEEE4NodeES8_EEDTmicldtfp_4baseEcldtfp0_4baseEERKNS_13move_iteratorIT_EERKNSA_IT0_EE, symObjAddr: 0x6B38, symBinAddr: 0x10000A334, symSize: 0x48 }
  - { offset: 0xE99B, size: 0x8, addend: 0x0, symName: __ZNSt3__117__libcpp_allocateB8ne180100Emm, symObjAddr: 0x6CF0, symBinAddr: 0x10000A4EC, symSize: 0x60 }
  - { offset: 0xE9F5, size: 0x8, addend: 0x0, symName: __ZNSt3__124__is_overaligned_for_newB8ne180100Em, symObjAddr: 0x6D64, symBinAddr: 0x10000A560, symSize: 0x20 }
  - { offset: 0xEA23, size: 0x8, addend: 0x0, symName: __ZNSt3__121__libcpp_operator_newB8ne180100IJmSt11align_val_tEEEPvDpT_, symObjAddr: 0x6D84, symBinAddr: 0x10000A580, symSize: 0x2C }
  - { offset: 0xEA70, size: 0x8, addend: 0x0, symName: __ZNSt3__121__libcpp_operator_newB8ne180100IJmEEEPvDpT_, symObjAddr: 0x6DB0, symBinAddr: 0x10000A5AC, symSize: 0x24 }
  - { offset: 0xEAA9, size: 0x8, addend: 0x0, symName: __ZNSt3__113move_backwardB8ne180100IPPPN16BinarySearchTreeIiNS_4lessIiEEE4NodeES8_EET0_T_SA_S9_, symObjAddr: 0x6DD4, symBinAddr: 0x10000A5D0, symSize: 0x40 }
  - { offset: 0xEB03, size: 0x8, addend: 0x0, symName: __ZNSt3__115__move_backwardB8ne180100INS_17_ClassicAlgPolicyEPPPN16BinarySearchTreeIiNS_4lessIiEEE4NodeES9_S9_EENS_4pairIT0_T2_EESB_T1_SC_, symObjAddr: 0x6E14, symBinAddr: 0x10000A610, symSize: 0x44 }
  - { offset: 0xEB6F, size: 0x8, addend: 0x0, symName: __ZNSt3__123__dispatch_copy_or_moveB8ne180100INS_17_ClassicAlgPolicyENS_20__move_backward_loopIS1_EENS_23__move_backward_trivialEPPPN16BinarySearchTreeIiNS_4lessIiEEE4NodeESC_SC_EENS_4pairIT2_T4_EESE_T3_SF_, symObjAddr: 0x6E58, symBinAddr: 0x10000A654, symSize: 0x44 }
  - { offset: 0xEBED, size: 0x8, addend: 0x0, symName: __ZNSt3__121__unwrap_and_dispatchB8ne180100INS_10__overloadINS_20__move_backward_loopINS_17_ClassicAlgPolicyEEENS_23__move_backward_trivialEEEPPPN16BinarySearchTreeIiNS_4lessIiEEE4NodeESE_SE_Li0EEENS_4pairIT0_T2_EESG_T1_SH_, symObjAddr: 0x6E9C, symBinAddr: 0x10000A698, symSize: 0xB4 }
  - { offset: 0xECFD, size: 0x8, addend: 0x0, symName: __ZNSt3__128__copy_backward_trivial_implB8ne180100IPPN16BinarySearchTreeIiNS_4lessIiEEE4NodeES7_EENS_4pairIPT_PT0_EESA_SA_SC_, symObjAddr: 0x6F98, symBinAddr: 0x10000A794, symSize: 0x90 }
  - { offset: 0xED65, size: 0x8, addend: 0x0, symName: __ZNSt3__19make_pairB8ne180100IRPPPN16BinarySearchTreeIiNS_4lessIiEEE4NodeES9_EENS_4pairINS_18__unwrap_ref_decayIT_E4typeENSB_IT0_E4typeEEEOSC_OSF_, symObjAddr: 0x7028, symBinAddr: 0x10000A824, symSize: 0x38 }
  - { offset: 0xEDB4, size: 0x8, addend: 0x0, symName: __ZNSt3__13maxB8ne180100ImNS_6__lessIvvEEEERKT_S5_S5_T0_, symObjAddr: 0x70D0, symBinAddr: 0x10000A8CC, symSize: 0x54 }
  - { offset: 0xEE53, size: 0x8, addend: 0x0, symName: __ZNSt3__119__allocate_at_leastB8ne180100INS_9allocatorIPPN16BinarySearchTreeIiNS_4lessIiEEE4NodeEEEEENS_19__allocation_resultINS_16allocator_traitsIT_E7pointerEEERSC_m, symObjAddr: 0x72A0, symBinAddr: 0x10000AA9C, symSize: 0x40 }
  - { offset: 0xEE96, size: 0x8, addend: 0x0, symName: __ZNSt3__119__libcpp_deallocateB8ne180100EPvmm, symObjAddr: 0x7770, symBinAddr: 0x10000AF6C, symSize: 0x60 }
  - { offset: 0xEEFB, size: 0x8, addend: 0x0, symName: __ZNSt3__127__do_deallocate_handle_sizeB8ne180100IJSt11align_val_tEEEvPvmDpT_, symObjAddr: 0x77D0, symBinAddr: 0x10000AFCC, symSize: 0x30 }
  - { offset: 0xEF4E, size: 0x8, addend: 0x0, symName: __ZNSt3__127__do_deallocate_handle_sizeB8ne180100IJEEEvPvmDpT_, symObjAddr: 0x7800, symBinAddr: 0x10000AFFC, symSize: 0x28 }
  - { offset: 0xEF8C, size: 0x8, addend: 0x0, symName: __ZNSt3__124__libcpp_operator_deleteB8ne180100IJPvSt11align_val_tEEEvDpT_, symObjAddr: 0x7828, symBinAddr: 0x10000B024, symSize: 0x2C }
  - { offset: 0xEFD5, size: 0x8, addend: 0x0, symName: __ZNSt3__124__libcpp_operator_deleteB8ne180100IJPvEEEvDpT_, symObjAddr: 0x7854, symBinAddr: 0x10000B050, symSize: 0x24 }
  - { offset: 0xF00A, size: 0x8, addend: 0x0, symName: __ZNSt3__112__to_addressB8ne180100IPN16BinarySearchTreeIiNS_4lessIiEEE4NodeEEEPT_S8_, symObjAddr: 0x7DAC, symBinAddr: 0x10000B5A8, symSize: 0x14 }
  - { offset: 0xF03F, size: 0x8, addend: 0x0, symName: __ZNSt3__1neB8ne180100ERKNS_16__deque_iteratorIPN16BinarySearchTreeIiNS_4lessIiEEE4NodeEPS6_RS6_PS7_lLl512EEESC_, symObjAddr: 0x83F4, symBinAddr: 0x10000BBF0, symSize: 0x34 }
  - { offset: 0xF07C, size: 0x8, addend: 0x0, symName: __ZNSt3__1eqB8ne180100ERKNS_16__deque_iteratorIPN16BinarySearchTreeIiNS_4lessIiEEE4NodeEPS6_RS6_PS7_lLl512EEESC_, symObjAddr: 0x8498, symBinAddr: 0x10000BC94, symSize: 0x30 }
  - { offset: 0xF0EC, size: 0x8, addend: 0x0, symName: __ZNSt3__1neB8ne180100ERKNS_21__tree_const_iteratorIN16BinarySearchTreeIiNS_4lessIiEEE16Tree_grid_squareEPNS_11__tree_nodeIS5_PvEElEESC_, symObjAddr: 0x8EC8, symBinAddr: 0x10000C6C4, symSize: 0x34 }
  - { offset: 0xF147, size: 0x8, addend: 0x0, symName: __ZNSt3__127__tree_balance_after_insertB8ne180100IPNS_16__tree_node_baseIPvEEEEvT_S5_, symObjAddr: 0x9DB8, symBinAddr: 0x10000D5B4, symSize: 0x32C }
  - { offset: 0xF1C3, size: 0x8, addend: 0x0, symName: __ZNSt3__120__tree_is_left_childB8ne180100IPNS_16__tree_node_baseIPvEEEEbT_, symObjAddr: 0xA124, symBinAddr: 0x10000D920, symSize: 0x2C }
  - { offset: 0xF1F8, size: 0x8, addend: 0x0, symName: __ZNSt3__118__tree_left_rotateB8ne180100IPNS_16__tree_node_baseIPvEEEEvT_, symObjAddr: 0xA150, symBinAddr: 0x10000D94C, symSize: 0xD8 }
  - { offset: 0xF237, size: 0x8, addend: 0x0, symName: __ZNSt3__119__tree_right_rotateB8ne180100IPNS_16__tree_node_baseIPvEEEEvT_, symObjAddr: 0xA228, symBinAddr: 0x10000DA24, symSize: 0xCC }
  - { offset: 0xF279, size: 0x8, addend: 0x0, symName: __ZNSt3__112__destroy_atB8ne180100IN16BinarySearchTreeIiNS_4lessIiEEE16Tree_grid_squareELi0EEEvPT_, symObjAddr: 0xA504, symBinAddr: 0x10000DD00, symSize: 0x24 }
  - { offset: 0xF2B0, size: 0x8, addend: 0x0, symName: __ZNSt3__1neB8ne180100ERKNS_15__tree_iteratorIN16BinarySearchTreeIiNS_4lessIiEEE16Tree_grid_squareEPNS_11__tree_nodeIS5_PvEElEESC_, symObjAddr: 0xAA38, symBinAddr: 0x10000E234, symSize: 0x34 }
  - { offset: 0xF2ED, size: 0x8, addend: 0x0, symName: __ZNSt3__1eqB8ne180100ERKNS_15__tree_iteratorIN16BinarySearchTreeIiNS_4lessIiEEE16Tree_grid_squareEPNS_11__tree_nodeIS5_PvEElEESC_, symObjAddr: 0xAB1C, symBinAddr: 0x10000E318, symSize: 0x30 }
  - { offset: 0xF32A, size: 0x8, addend: 0x0, symName: __ZNSt3__1eqB8ne180100ERKNS_21__tree_const_iteratorIN16BinarySearchTreeIiNS_4lessIiEEE16Tree_grid_squareEPNS_11__tree_nodeIS5_PvEElEESC_, symObjAddr: 0xAB64, symBinAddr: 0x10000E360, symSize: 0x30 }
  - { offset: 0xF367, size: 0x8, addend: 0x0, symName: __ZNSt3__113__tree_removeB8ne180100IPNS_16__tree_node_baseIPvEEEEvT_S5_, symObjAddr: 0xAD58, symBinAddr: 0x10000E554, symSize: 0x6F0 }
  - { offset: 0xF3E5, size: 0x8, addend: 0x0, symName: __ZNSt3__116__tree_next_iterB8ne180100IPNS_15__tree_end_nodeIPNS_16__tree_node_baseIPvEEEES5_EET_T0_, symObjAddr: 0xB448, symBinAddr: 0x10000EC44, symSize: 0x80 }
  - { offset: 0xF423, size: 0x8, addend: 0x0, symName: __ZNSt3__110__tree_minB8ne180100IPNS_16__tree_node_baseIPvEEEET_S5_, symObjAddr: 0xB4C8, symBinAddr: 0x10000ECC4, symSize: 0x40 }
  - { offset: 0xF458, size: 0x8, addend: 0x0, symName: __ZNSt3__111__tree_nextB8ne180100IPNS_16__tree_node_baseIPvEEEET_S5_, symObjAddr: 0xB508, symBinAddr: 0x10000ED04, symSize: 0x80 }
  - { offset: 0x10769, size: 0x8, addend: 0x0, symName: __ZNSt3__14swapB8ne180100IPPPN16BinarySearchTreeI4Duck14DuckWealthLessE4NodeEEENS_9enable_ifIXaasr21is_move_constructibleIT_EE5valuesr18is_move_assignableISA_EE5valueEvE4typeERSA_SD_, symObjAddr: 0xE174, symBinAddr: 0x100011970, symSize: 0x3C }
  - { offset: 0x107BA, size: 0x8, addend: 0x0, symName: __ZNSt3__14moveB8ne180100IPPPN16BinarySearchTreeI4Duck14DuckWealthLessE4NodeES8_EET0_T_SA_S9_, symObjAddr: 0xE2A4, symBinAddr: 0x100011AA0, symSize: 0x40 }
  - { offset: 0x10814, size: 0x8, addend: 0x0, symName: __ZNSt3__112__to_addressB8ne180100IPPN16BinarySearchTreeI4Duck14DuckWealthLessE4NodeEEEPT_S9_, symObjAddr: 0xE3AC, symBinAddr: 0x100011BA8, symSize: 0x14 }
  - { offset: 0x10849, size: 0x8, addend: 0x0, symName: __ZNSt3__16__moveB8ne180100INS_17_ClassicAlgPolicyEPPPN16BinarySearchTreeI4Duck14DuckWealthLessE4NodeES9_S9_EENS_4pairIT0_T2_EESB_T1_SC_, symObjAddr: 0xE3C0, symBinAddr: 0x100011BBC, symSize: 0x44 }
  - { offset: 0x108B5, size: 0x8, addend: 0x0, symName: __ZNSt3__123__dispatch_copy_or_moveB8ne180100INS_17_ClassicAlgPolicyENS_11__move_loopIS1_EENS_14__move_trivialEPPPN16BinarySearchTreeI4Duck14DuckWealthLessE4NodeESC_SC_EENS_4pairIT2_T4_EESE_T3_SF_, symObjAddr: 0xE404, symBinAddr: 0x100011C00, symSize: 0x44 }
  - { offset: 0x10933, size: 0x8, addend: 0x0, symName: __ZNSt3__121__unwrap_and_dispatchB8ne180100INS_10__overloadINS_11__move_loopINS_17_ClassicAlgPolicyEEENS_14__move_trivialEEEPPPN16BinarySearchTreeI4Duck14DuckWealthLessE4NodeESE_SE_Li0EEENS_4pairIT0_T2_EESG_T1_SH_, symObjAddr: 0xE448, symBinAddr: 0x100011C44, symSize: 0xB4 }
  - { offset: 0x109C1, size: 0x8, addend: 0x0, symName: __ZNSt3__114__unwrap_rangeB8ne180100IPPPN16BinarySearchTreeI4Duck14DuckWealthLessE4NodeES8_EENS_4pairIT0_SA_EET_SC_, symObjAddr: 0xE4FC, symBinAddr: 0x100011CF8, symSize: 0x60 }
  - { offset: 0x10B3F, size: 0x8, addend: 0x0, symName: __ZNSt3__113__unwrap_iterB8ne180100IPPPN16BinarySearchTreeI4Duck14DuckWealthLessE4NodeENS_18__unwrap_iter_implIS8_Lb1EEELi0EEEDTclsrT0_8__unwrapclsr3stdE7declvalIT_EEEESC_, symObjAddr: 0xE5A4, symBinAddr: 0x100011DA0, symSize: 0x24 }
  - { offset: 0x10B83, size: 0x8, addend: 0x0, symName: __ZNSt3__19make_pairB8ne180100IPPPN16BinarySearchTreeI4Duck14DuckWealthLessE4NodeES8_EENS_4pairINS_18__unwrap_ref_decayIT_E4typeENSA_IT0_E4typeEEEOSB_OSE_, symObjAddr: 0xE5C8, symBinAddr: 0x100011DC4, symSize: 0x38 }
  - { offset: 0x10BD2, size: 0x8, addend: 0x0, symName: __ZNSt3__114__rewrap_rangeB8ne180100IPPPN16BinarySearchTreeI4Duck14DuckWealthLessE4NodeES8_EET_S9_T0_, symObjAddr: 0xE600, symBinAddr: 0x100011DFC, symSize: 0x2C }
  - { offset: 0x10C1E, size: 0x8, addend: 0x0, symName: __ZNSt3__113__rewrap_iterB8ne180100IPPPN16BinarySearchTreeI4Duck14DuckWealthLessE4NodeES8_NS_18__unwrap_iter_implIS8_Lb1EEEEET_SB_T0_, symObjAddr: 0xE62C, symBinAddr: 0x100011E28, symSize: 0x3C }
  - { offset: 0x10C73, size: 0x8, addend: 0x0, symName: __ZNSt3__119__copy_trivial_implB8ne180100IPPN16BinarySearchTreeI4Duck14DuckWealthLessE4NodeES7_EENS_4pairIPT_PT0_EESA_SA_SC_, symObjAddr: 0xE668, symBinAddr: 0x100011E64, symSize: 0x80 }
  - { offset: 0x10CDB, size: 0x8, addend: 0x0, symName: __ZNSt3__119__constexpr_memmoveB8ne180100IPPN16BinarySearchTreeI4Duck14DuckWealthLessE4NodeES7_Li0EEEPT_S9_PT0_NS_15__element_countE, symObjAddr: 0xE6E8, symBinAddr: 0x100011EE4, symSize: 0x64 }
  - { offset: 0x10D49, size: 0x8, addend: 0x0, symName: __ZNSt3__19make_pairB8ne180100IRPPPN16BinarySearchTreeI4Duck14DuckWealthLessE4NodeES8_EENS_4pairINS_18__unwrap_ref_decayIT_E4typeENSB_IT0_E4typeEEEOSC_OSF_, symObjAddr: 0xE74C, symBinAddr: 0x100011F48, symSize: 0x38 }
  - { offset: 0x10DEB, size: 0x8, addend: 0x0, symName: __ZNSt3__18distanceB8ne180100INS_13move_iteratorIPPPN16BinarySearchTreeI4Duck14DuckWealthLessE4NodeEEEEENS_15iterator_traitsIT_E15difference_typeESC_SC_, symObjAddr: 0xE9B4, symBinAddr: 0x1000121B0, symSize: 0x3C }
  - { offset: 0x10E2E, size: 0x8, addend: 0x0, symName: __ZNSt3__110__distanceB8ne180100INS_13move_iteratorIPPPN16BinarySearchTreeI4Duck14DuckWealthLessE4NodeEEEEENS_15iterator_traitsIT_E15difference_typeESC_SC_NS_26random_access_iterator_tagE, symObjAddr: 0xEBB8, symBinAddr: 0x1000123B4, symSize: 0x30 }
  - { offset: 0x10E7B, size: 0x8, addend: 0x0, symName: __ZNSt3__1miB8ne180100IPPPN16BinarySearchTreeI4Duck14DuckWealthLessE4NodeES8_EEDTmicldtfp_4baseEcldtfp0_4baseEERKNS_13move_iteratorIT_EERKNSA_IT0_EE, symObjAddr: 0xEBE8, symBinAddr: 0x1000123E4, symSize: 0x48 }
  - { offset: 0x10ECA, size: 0x8, addend: 0x0, symName: __ZNSt3__113move_backwardB8ne180100IPPPN16BinarySearchTreeI4Duck14DuckWealthLessE4NodeES8_EET0_T_SA_S9_, symObjAddr: 0xED80, symBinAddr: 0x10001257C, symSize: 0x40 }
  - { offset: 0x10F24, size: 0x8, addend: 0x0, symName: __ZNSt3__115__move_backwardB8ne180100INS_17_ClassicAlgPolicyEPPPN16BinarySearchTreeI4Duck14DuckWealthLessE4NodeES9_S9_EENS_4pairIT0_T2_EESB_T1_SC_, symObjAddr: 0xEDC0, symBinAddr: 0x1000125BC, symSize: 0x44 }
  - { offset: 0x10F90, size: 0x8, addend: 0x0, symName: __ZNSt3__123__dispatch_copy_or_moveB8ne180100INS_17_ClassicAlgPolicyENS_20__move_backward_loopIS1_EENS_23__move_backward_trivialEPPPN16BinarySearchTreeI4Duck14DuckWealthLessE4NodeESC_SC_EENS_4pairIT2_T4_EESE_T3_SF_, symObjAddr: 0xEE04, symBinAddr: 0x100012600, symSize: 0x44 }
  - { offset: 0x1100E, size: 0x8, addend: 0x0, symName: __ZNSt3__121__unwrap_and_dispatchB8ne180100INS_10__overloadINS_20__move_backward_loopINS_17_ClassicAlgPolicyEEENS_23__move_backward_trivialEEEPPPN16BinarySearchTreeI4Duck14DuckWealthLessE4NodeESE_SE_Li0EEENS_4pairIT0_T2_EESG_T1_SH_, symObjAddr: 0xEE48, symBinAddr: 0x100012644, symSize: 0xB4 }
  - { offset: 0x1109C, size: 0x8, addend: 0x0, symName: __ZNSt3__128__copy_backward_trivial_implB8ne180100IPPN16BinarySearchTreeI4Duck14DuckWealthLessE4NodeES7_EENS_4pairIPT_PT0_EESA_SA_SC_, symObjAddr: 0xEF44, symBinAddr: 0x100012740, symSize: 0x90 }
  - { offset: 0x11104, size: 0x8, addend: 0x0, symName: __ZNSt3__19make_pairB8ne180100IRPPPN16BinarySearchTreeI4Duck14DuckWealthLessE4NodeES9_EENS_4pairINS_18__unwrap_ref_decayIT_E4typeENSB_IT0_E4typeEEEOSC_OSF_, symObjAddr: 0xEFD4, symBinAddr: 0x1000127D0, symSize: 0x38 }
  - { offset: 0x11153, size: 0x8, addend: 0x0, symName: __ZNSt3__119__allocate_at_leastB8ne180100INS_9allocatorIPPN16BinarySearchTreeI4Duck14DuckWealthLessE4NodeEEEEENS_19__allocation_resultINS_16allocator_traitsIT_E7pointerEEERSC_m, symObjAddr: 0xF1C4, symBinAddr: 0x1000129C0, symSize: 0x40 }
  - { offset: 0x11196, size: 0x8, addend: 0x0, symName: __ZNSt3__112__to_addressB8ne180100IPN16BinarySearchTreeI4Duck14DuckWealthLessE4NodeEEEPT_S8_, symObjAddr: 0xFBB4, symBinAddr: 0x1000133B0, symSize: 0x14 }
  - { offset: 0x111CB, size: 0x8, addend: 0x0, symName: __ZNSt3__1neB8ne180100ERKNS_16__deque_iteratorIPN16BinarySearchTreeI4Duck14DuckWealthLessE4NodeEPS6_RS6_PS7_lLl512EEESC_, symObjAddr: 0x1014C, symBinAddr: 0x100013948, symSize: 0x34 }
  - { offset: 0x11208, size: 0x8, addend: 0x0, symName: __ZNSt3__1eqB8ne180100ERKNS_16__deque_iteratorIPN16BinarySearchTreeI4Duck14DuckWealthLessE4NodeEPS6_RS6_PS7_lLl512EEESC_, symObjAddr: 0x101F0, symBinAddr: 0x1000139EC, symSize: 0x30 }
  - { offset: 0x11245, size: 0x8, addend: 0x0, symName: __ZNSt3__1neB8ne180100ERKNS_21__tree_const_iteratorIN16BinarySearchTreeI4Duck14DuckWealthLessE16Tree_grid_squareEPNS_11__tree_nodeIS5_PvEElEESC_, symObjAddr: 0x10B9C, symBinAddr: 0x100014398, symSize: 0x34 }
  - { offset: 0x112A0, size: 0x8, addend: 0x0, symName: __ZNSt3__112__destroy_atB8ne180100IN16BinarySearchTreeI4Duck14DuckWealthLessE16Tree_grid_squareELi0EEEvPT_, symObjAddr: 0x11B54, symBinAddr: 0x100015350, symSize: 0x24 }
  - { offset: 0x112D7, size: 0x8, addend: 0x0, symName: __ZNSt3__1neB8ne180100ERKNS_15__tree_iteratorIN16BinarySearchTreeI4Duck14DuckWealthLessE16Tree_grid_squareEPNS_11__tree_nodeIS5_PvEElEESC_, symObjAddr: 0x1201C, symBinAddr: 0x100015818, symSize: 0x34 }
  - { offset: 0x11314, size: 0x8, addend: 0x0, symName: __ZNSt3__1eqB8ne180100ERKNS_15__tree_iteratorIN16BinarySearchTreeI4Duck14DuckWealthLessE16Tree_grid_squareEPNS_11__tree_nodeIS5_PvEElEESC_, symObjAddr: 0x12100, symBinAddr: 0x1000158FC, symSize: 0x30 }
  - { offset: 0x11351, size: 0x8, addend: 0x0, symName: __ZNSt3__1eqB8ne180100ERKNS_21__tree_const_iteratorIN16BinarySearchTreeI4Duck14DuckWealthLessE16Tree_grid_squareEPNS_11__tree_nodeIS5_PvEElEESC_, symObjAddr: 0x12148, symBinAddr: 0x100015944, symSize: 0x30 }
  - { offset: 0x1138E, size: 0x8, addend: 0x0, symName: __ZNSt3__112__to_addressB8ne180100IKcEEPT_S3_, symObjAddr: 0x12CA8, symBinAddr: 0x1000164A4, symSize: 0x14 }
  - { offset: 0x121E8, size: 0x8, addend: 0x0, symName: __ZSt28__throw_bad_array_new_lengthB8ne180100v, symObjAddr: 0x6CBC, symBinAddr: 0x10000A4B8, symSize: 0x34 }
  - { offset: 0x13EF5, size: 0x8, addend: 0x0, symName: __ZlsRNSt3__113basic_ostreamIcNS_11char_traitsIcEEEERK4Duck, symObjAddr: 0x0, symBinAddr: 0x1000037FC, symSize: 0x48 }
  - { offset: 0x13F30, size: 0x8, addend: 0x0, symName: __ZNK4Duck9getWealthEv, symObjAddr: 0x90, symBinAddr: 0x10000388C, symSize: 0x18 }
  - { offset: 0x13F56, size: 0x8, addend: 0x0, symName: _main, symObjAddr: 0xA8, symBinAddr: 0x1000038A4, symSize: 0x944 }
  - { offset: 0x1405E, size: 0x8, addend: 0x0, symName: __ZNSt3__113basic_ostreamIcNS_11char_traitsIcEEElsB8ne180100EPFRS3_S4_E, symObjAddr: 0x9EC, symBinAddr: 0x1000041E8, symSize: 0x2C }
  - { offset: 0x14092, size: 0x8, addend: 0x0, symName: __ZN16BinarySearchTreeIiNSt3__14lessIiEEEC1Ev, symObjAddr: 0xA70, symBinAddr: 0x10000426C, symSize: 0x2C }
  - { offset: 0x140BC, size: 0x8, addend: 0x0, symName: __ZN16BinarySearchTreeI4Duck14DuckWealthLessEC1Ev, symObjAddr: 0xA9C, symBinAddr: 0x100004298, symSize: 0x2C }
  - { offset: 0x140E6, size: 0x8, addend: 0x0, symName: __ZN16BinarySearchTreeIiNSt3__14lessIiEEE6insertERKi, symObjAddr: 0xAC8, symBinAddr: 0x1000042C4, symSize: 0xAC }
  - { offset: 0x1411B, size: 0x8, addend: 0x0, symName: __ZN16BinarySearchTreeI4Duck14DuckWealthLessE6insertERKS0_, symObjAddr: 0xB74, symBinAddr: 0x100004370, symSize: 0xAC }
  - { offset: 0x14150, size: 0x8, addend: 0x0, symName: __ZN4DuckC1Ei, symObjAddr: 0xC20, symBinAddr: 0x10000441C, symSize: 0x34 }
  - { offset: 0x14188, size: 0x8, addend: 0x0, symName: __ZNSt3__112basic_stringIcNS_11char_traitsIcEENS_9allocatorIcEEEC1B8ne180100Ev, symObjAddr: 0xC54, symBinAddr: 0x100004450, symSize: 0x2C }
  - { offset: 0x141B2, size: 0x8, addend: 0x0, symName: __ZN16BinarySearchTreeIiNSt3__14lessIiEEE8IteratorC1Ev, symObjAddr: 0xC80, symBinAddr: 0x10000447C, symSize: 0x2C }
  - { offset: 0x141DC, size: 0x8, addend: 0x0, symName: __ZN16BinarySearchTreeI4Duck14DuckWealthLessE8IteratorC1Ev, symObjAddr: 0xCAC, symBinAddr: 0x1000044A8, symSize: 0x2C }
  - { offset: 0x14206, size: 0x8, addend: 0x0, symName: __ZN16BinarySearchTreeIiNSt3__14lessIiEEEC1ERKS3_, symObjAddr: 0xCD8, symBinAddr: 0x1000044D4, symSize: 0x34 }
  - { offset: 0x1423E, size: 0x8, addend: 0x0, symName: __ZN16BinarySearchTreeI4Duck14DuckWealthLessEC1ERKS2_, symObjAddr: 0xD0C, symBinAddr: 0x100004508, symSize: 0x34 }
  - { offset: 0x14276, size: 0x8, addend: 0x0, symName: __ZN16BinarySearchTreeIiNSt3__14lessIiEEEaSERKS3_, symObjAddr: 0xD40, symBinAddr: 0x10000453C, symSize: 0x74 }
  - { offset: 0x142AA, size: 0x8, addend: 0x0, symName: __ZN16BinarySearchTreeI4Duck14DuckWealthLessEaSERKS2_, symObjAddr: 0xDB4, symBinAddr: 0x1000045B0, symSize: 0x74 }
  - { offset: 0x142DE, size: 0x8, addend: 0x0, symName: __ZNK16BinarySearchTreeIiNSt3__14lessIiEEE5emptyEv, symObjAddr: 0xE28, symBinAddr: 0x100004624, symSize: 0x2C }
  - { offset: 0x14304, size: 0x8, addend: 0x0, symName: __ZNK16BinarySearchTreeI4Duck14DuckWealthLessE5emptyEv, symObjAddr: 0xE54, symBinAddr: 0x100004650, symSize: 0x2C }
  - { offset: 0x1432A, size: 0x8, addend: 0x0, symName: __ZNK16BinarySearchTreeIiNSt3__14lessIiEEE6heightEv, symObjAddr: 0xE80, symBinAddr: 0x10000467C, symSize: 0x30 }
  - { offset: 0x14350, size: 0x8, addend: 0x0, symName: __ZNK16BinarySearchTreeI4Duck14DuckWealthLessE6heightEv, symObjAddr: 0xEB0, symBinAddr: 0x1000046AC, symSize: 0x30 }
  - { offset: 0x14376, size: 0x8, addend: 0x0, symName: __ZNK16BinarySearchTreeIiNSt3__14lessIiEEE4sizeEv, symObjAddr: 0xEE0, symBinAddr: 0x1000046DC, symSize: 0x30 }
  - { offset: 0x1439C, size: 0x8, addend: 0x0, symName: __ZNK16BinarySearchTreeI4Duck14DuckWealthLessE4sizeEv, symObjAddr: 0xF10, symBinAddr: 0x10000470C, symSize: 0x30 }
  - { offset: 0x143C2, size: 0x8, addend: 0x0, symName: __ZNK16BinarySearchTreeIiNSt3__14lessIiEEE16traverse_inorderERNS0_13basic_ostreamIcNS0_11char_traitsIcEEEE, symObjAddr: 0xF40, symBinAddr: 0x10000473C, symSize: 0x30 }
  - { offset: 0x143F6, size: 0x8, addend: 0x0, symName: __ZNK16BinarySearchTreeI4Duck14DuckWealthLessE16traverse_inorderERNSt3__113basic_ostreamIcNS3_11char_traitsIcEEEE, symObjAddr: 0xF70, symBinAddr: 0x10000476C, symSize: 0x30 }
  - { offset: 0x1442A, size: 0x8, addend: 0x0, symName: __ZNK16BinarySearchTreeIiNSt3__14lessIiEEE17traverse_preorderERNS0_13basic_ostreamIcNS0_11char_traitsIcEEEE, symObjAddr: 0xFA0, symBinAddr: 0x10000479C, symSize: 0x30 }
  - { offset: 0x1445E, size: 0x8, addend: 0x0, symName: __ZNK16BinarySearchTreeI4Duck14DuckWealthLessE17traverse_preorderERNSt3__113basic_ostreamIcNS3_11char_traitsIcEEEE, symObjAddr: 0xFD0, symBinAddr: 0x1000047CC, symSize: 0x30 }
  - { offset: 0x14492, size: 0x8, addend: 0x0, symName: __ZNK16BinarySearchTreeIiNSt3__14lessIiEEE23check_sorting_invariantEv, symObjAddr: 0x1000, symBinAddr: 0x1000047FC, symSize: 0x2C }
  - { offset: 0x144B8, size: 0x8, addend: 0x0, symName: __ZNK16BinarySearchTreeI4Duck14DuckWealthLessE23check_sorting_invariantEv, symObjAddr: 0x102C, symBinAddr: 0x100004828, symSize: 0x2C }
  - { offset: 0x144DE, size: 0x8, addend: 0x0, symName: __ZNK16BinarySearchTreeIiNSt3__14lessIiEEE5beginEv, symObjAddr: 0x1058, symBinAddr: 0x100004854, symSize: 0x70 }
  - { offset: 0x14504, size: 0x8, addend: 0x0, symName: __ZNK16BinarySearchTreeI4Duck14DuckWealthLessE5beginEv, symObjAddr: 0x10C8, symBinAddr: 0x1000048C4, symSize: 0x70 }
  - { offset: 0x1452A, size: 0x8, addend: 0x0, symName: __ZNK16BinarySearchTreeIiNSt3__14lessIiEEE3endEv, symObjAddr: 0x1138, symBinAddr: 0x100004934, symSize: 0x2C }
  - { offset: 0x14550, size: 0x8, addend: 0x0, symName: __ZNK16BinarySearchTreeI4Duck14DuckWealthLessE3endEv, symObjAddr: 0x1164, symBinAddr: 0x100004960, symSize: 0x2C }
  - { offset: 0x14576, size: 0x8, addend: 0x0, symName: __ZNK16BinarySearchTreeIiNSt3__14lessIiEEE11min_elementEv, symObjAddr: 0x1190, symBinAddr: 0x10000498C, symSize: 0x44 }
  - { offset: 0x1459C, size: 0x8, addend: 0x0, symName: __ZNK16BinarySearchTreeI4Duck14DuckWealthLessE11min_elementEv, symObjAddr: 0x11D4, symBinAddr: 0x1000049D0, symSize: 0x44 }
  - { offset: 0x145C2, size: 0x8, addend: 0x0, symName: __ZNK16BinarySearchTreeIiNSt3__14lessIiEEE11max_elementEv, symObjAddr: 0x1218, symBinAddr: 0x100004A14, symSize: 0x44 }
  - { offset: 0x145E8, size: 0x8, addend: 0x0, symName: __ZNK16BinarySearchTreeI4Duck14DuckWealthLessE11max_elementEv, symObjAddr: 0x125C, symBinAddr: 0x100004A58, symSize: 0x44 }
  - { offset: 0x1460E, size: 0x8, addend: 0x0, symName: __ZNK16BinarySearchTreeIiNSt3__14lessIiEEE4findERKi, symObjAddr: 0x12A0, symBinAddr: 0x100004A9C, symSize: 0x4C }
  - { offset: 0x14643, size: 0x8, addend: 0x0, symName: __ZNK16BinarySearchTreeI4Duck14DuckWealthLessE4findERKS0_, symObjAddr: 0x12EC, symBinAddr: 0x100004AE8, symSize: 0x4C }
  - { offset: 0x14678, size: 0x8, addend: 0x0, symName: __ZN4DuckC1Ev, symObjAddr: 0x1338, symBinAddr: 0x100004B34, symSize: 0x2C }
  - { offset: 0x146A2, size: 0x8, addend: 0x0, symName: __ZNK16BinarySearchTreeIiNSt3__14lessIiEEE9to_stringEv, symObjAddr: 0x1364, symBinAddr: 0x100004B60, symSize: 0x520 }
  - { offset: 0x14762, size: 0x8, addend: 0x0, symName: __ZNSt3__112basic_stringIcNS_11char_traitsIcEENS_9allocatorIcEEEaSB8ne180100EOS5_, symObjAddr: 0x1884, symBinAddr: 0x100005080, symSize: 0x34 }
  - { offset: 0x14797, size: 0x8, addend: 0x0, symName: __ZNK16BinarySearchTreeI4Duck14DuckWealthLessE9to_stringEv, symObjAddr: 0x18B8, symBinAddr: 0x1000050B4, symSize: 0x514 }
  - { offset: 0x14857, size: 0x8, addend: 0x0, symName: __ZNK16BinarySearchTreeIiNSt3__14lessIiEEE16min_greater_thanERKi, symObjAddr: 0x1DCC, symBinAddr: 0x1000055C8, symSize: 0x4C }
  - { offset: 0x1488C, size: 0x8, addend: 0x0, symName: __ZNK16BinarySearchTreeI4Duck14DuckWealthLessE16min_greater_thanERKS0_, symObjAddr: 0x1E18, symBinAddr: 0x100005614, symSize: 0x4C }
  - { offset: 0x148C1, size: 0x8, addend: 0x0, symName: __ZNK16BinarySearchTreeIiNSt3__14lessIiEEE8IteratordeEv, symObjAddr: 0x1E64, symBinAddr: 0x100005660, symSize: 0x18 }
  - { offset: 0x148E7, size: 0x8, addend: 0x0, symName: __ZNK16BinarySearchTreeI4Duck14DuckWealthLessE8IteratordeEv, symObjAddr: 0x1E7C, symBinAddr: 0x100005678, symSize: 0x18 }
  - { offset: 0x1490D, size: 0x8, addend: 0x0, symName: __ZN16BinarySearchTreeIiNSt3__14lessIiEEE8IteratorppEv, symObjAddr: 0x1E94, symBinAddr: 0x100005690, symSize: 0x78 }
  - { offset: 0x14933, size: 0x8, addend: 0x0, symName: __ZN16BinarySearchTreeI4Duck14DuckWealthLessE8IteratorppEv, symObjAddr: 0x1F0C, symBinAddr: 0x100005708, symSize: 0x78 }
  - { offset: 0x14959, size: 0x8, addend: 0x0, symName: __ZN16BinarySearchTreeIiNSt3__14lessIiEEE8IteratorppEi, symObjAddr: 0x1F84, symBinAddr: 0x100005780, symSize: 0x3C }
  - { offset: 0x14999, size: 0x8, addend: 0x0, symName: __ZN16BinarySearchTreeI4Duck14DuckWealthLessE8IteratorppEi, symObjAddr: 0x1FC0, symBinAddr: 0x1000057BC, symSize: 0x3C }
  - { offset: 0x149D9, size: 0x8, addend: 0x0, symName: __ZNK16BinarySearchTreeIiNSt3__14lessIiEEE8IteratoreqERKS4_, symObjAddr: 0x1FFC, symBinAddr: 0x1000057F8, symSize: 0x30 }
  - { offset: 0x14A0D, size: 0x8, addend: 0x0, symName: __ZNK16BinarySearchTreeI4Duck14DuckWealthLessE8IteratoreqERKS3_, symObjAddr: 0x202C, symBinAddr: 0x100005828, symSize: 0x30 }
  - { offset: 0x14A41, size: 0x8, addend: 0x0, symName: __ZNK16BinarySearchTreeIiNSt3__14lessIiEEE8IteratorneERKS4_, symObjAddr: 0x205C, symBinAddr: 0x100005858, symSize: 0x30 }
  - { offset: 0x14A75, size: 0x8, addend: 0x0, symName: __ZNK16BinarySearchTreeI4Duck14DuckWealthLessE8IteratorneERKS3_, symObjAddr: 0x208C, symBinAddr: 0x100005888, symSize: 0x30 }
  - { offset: 0x14AA9, size: 0x8, addend: 0x0, symName: __ZN16BinarySearchTreeI4Duck14DuckWealthLessED1Ev, symObjAddr: 0x2108, symBinAddr: 0x100005904, symSize: 0x2C }
  - { offset: 0x14AD3, size: 0x8, addend: 0x0, symName: __ZN16BinarySearchTreeIiNSt3__14lessIiEEED1Ev, symObjAddr: 0x2134, symBinAddr: 0x100005930, symSize: 0x2C }
  - { offset: 0x14AFD, size: 0x8, addend: 0x0, symName: __ZN4DuckC2Ei, symObjAddr: 0x2160, symBinAddr: 0x10000595C, symSize: 0x20 }
  - { offset: 0x14B35, size: 0x8, addend: 0x0, symName: __ZN4DuckC2Ev, symObjAddr: 0x2180, symBinAddr: 0x10000597C, symSize: 0x18 }
  - { offset: 0x14B5F, size: 0x8, addend: 0x0, symName: __ZNSt3__111char_traitsIcE6lengthB8ne180100EPKc, symObjAddr: 0x2384, symBinAddr: 0x100005B80, symSize: 0x34 }
  - { offset: 0x14BA0, size: 0x8, addend: 0x0, symName: __ZNKSt3__113basic_ostreamIcNS_11char_traitsIcEEE6sentrycvbB8ne180100Ev, symObjAddr: 0x23B8, symBinAddr: 0x100005BB4, symSize: 0x1C }
  - { offset: 0x14BC6, size: 0x8, addend: 0x0, symName: __ZNSt3__119ostreambuf_iteratorIcNS_11char_traitsIcEEEC1B8ne180100ERNS_13basic_ostreamIcS2_EE, symObjAddr: 0x2614, symBinAddr: 0x100005E10, symSize: 0x34 }
  - { offset: 0x14BFE, size: 0x8, addend: 0x0, symName: __ZNKSt3__18ios_base5flagsB8ne180100Ev, symObjAddr: 0x2648, symBinAddr: 0x100005E44, symSize: 0x18 }
  - { offset: 0x14C26, size: 0x8, addend: 0x0, symName: __ZNKSt3__19basic_iosIcNS_11char_traitsIcEEE4fillB8ne180100Ev, symObjAddr: 0x2660, symBinAddr: 0x100005E5C, symSize: 0x64 }
  - { offset: 0x14C4E, size: 0x8, addend: 0x0, symName: __ZNKSt3__119ostreambuf_iteratorIcNS_11char_traitsIcEEE6failedB8ne180100Ev, symObjAddr: 0x26C4, symBinAddr: 0x100005EC0, symSize: 0x24 }
  - { offset: 0x14C74, size: 0x8, addend: 0x0, symName: __ZNSt3__19basic_iosIcNS_11char_traitsIcEEE8setstateB8ne180100Ej, symObjAddr: 0x26E8, symBinAddr: 0x100005EE4, symSize: 0x2C }
  - { offset: 0x14CA9, size: 0x8, addend: 0x0, symName: __ZNKSt3__18ios_base5widthB8ne180100Ev, symObjAddr: 0x2724, symBinAddr: 0x100005F20, symSize: 0x18 }
  - { offset: 0x14CD1, size: 0x8, addend: 0x0, symName: __ZNSt3__115basic_streambufIcNS_11char_traitsIcEEE5sputnB8ne180100EPKcl, symObjAddr: 0x273C, symBinAddr: 0x100005F38, symSize: 0x3C }
  - { offset: 0x14D13, size: 0x8, addend: 0x0, symName: __ZNSt3__112basic_stringIcNS_11char_traitsIcEENS_9allocatorIcEEEC1B8ne180100Emc, symObjAddr: 0x2778, symBinAddr: 0x100005F74, symSize: 0x3C }
  - { offset: 0x14D5B, size: 0x8, addend: 0x0, symName: __ZNSt3__112basic_stringIcNS_11char_traitsIcEENS_9allocatorIcEEE4dataB8ne180100Ev, symObjAddr: 0x27B4, symBinAddr: 0x100005FB0, symSize: 0x28 }
  - { offset: 0x14D81, size: 0x8, addend: 0x0, symName: __ZNSt3__18ios_base5widthB8ne180100El, symObjAddr: 0x27DC, symBinAddr: 0x100005FD8, symSize: 0x2C }
  - { offset: 0x14DC7, size: 0x8, addend: 0x0, symName: __ZNSt3__112basic_stringIcNS_11char_traitsIcEENS_9allocatorIcEEEC2B8ne180100Emc, symObjAddr: 0x2808, symBinAddr: 0x100006004, symSize: 0x4C }
  - { offset: 0x14E15, size: 0x8, addend: 0x0, symName: __ZNSt3__117__compressed_pairINS_12basic_stringIcNS_11char_traitsIcEENS_9allocatorIcEEE5__repES5_EC1B8ne180100INS_18__default_init_tagESA_EEOT_OT0_, symObjAddr: 0x2854, symBinAddr: 0x100006050, symSize: 0x3C }
  - { offset: 0x14E6D, size: 0x8, addend: 0x0, symName: __ZNSt3__117__compressed_pairINS_12basic_stringIcNS_11char_traitsIcEENS_9allocatorIcEEE5__repES5_EC2B8ne180100INS_18__default_init_tagESA_EEOT_OT0_, symObjAddr: 0x2890, symBinAddr: 0x10000608C, symSize: 0x3C }
  - { offset: 0x14EC5, size: 0x8, addend: 0x0, symName: __ZNSt3__122__compressed_pair_elemINS_12basic_stringIcNS_11char_traitsIcEENS_9allocatorIcEEE5__repELi0ELb0EEC2B8ne180100ENS_18__default_init_tagE, symObjAddr: 0x28CC, symBinAddr: 0x1000060C8, symSize: 0x14 }
  - { offset: 0x14EF9, size: 0x8, addend: 0x0, symName: __ZNSt3__122__compressed_pair_elemINS_9allocatorIcEELi1ELb1EEC2B8ne180100ENS_18__default_init_tagE, symObjAddr: 0x28E0, symBinAddr: 0x1000060DC, symSize: 0x2C }
  - { offset: 0x14F2D, size: 0x8, addend: 0x0, symName: __ZNSt3__19allocatorIcEC2B8ne180100Ev, symObjAddr: 0x290C, symBinAddr: 0x100006108, symSize: 0x2C }
  - { offset: 0x14F57, size: 0x8, addend: 0x0, symName: __ZNSt3__116__non_trivial_ifILb1ENS_9allocatorIcEEEC2B8ne180100Ev, symObjAddr: 0x2938, symBinAddr: 0x100006134, symSize: 0x14 }
  - { offset: 0x14F81, size: 0x8, addend: 0x0, symName: __ZNSt3__112basic_stringIcNS_11char_traitsIcEENS_9allocatorIcEEE13__get_pointerB8ne180100Ev, symObjAddr: 0x2960, symBinAddr: 0x10000615C, symSize: 0x54 }
  - { offset: 0x14FA7, size: 0x8, addend: 0x0, symName: __ZNKSt3__112basic_stringIcNS_11char_traitsIcEENS_9allocatorIcEEE9__is_longB8ne180100Ev, symObjAddr: 0x29B4, symBinAddr: 0x1000061B0, symSize: 0x38 }
  - { offset: 0x14FCD, size: 0x8, addend: 0x0, symName: __ZNSt3__112basic_stringIcNS_11char_traitsIcEENS_9allocatorIcEEE18__get_long_pointerB8ne180100Ev, symObjAddr: 0x29EC, symBinAddr: 0x1000061E8, symSize: 0x28 }
  - { offset: 0x14FF3, size: 0x8, addend: 0x0, symName: __ZNSt3__112basic_stringIcNS_11char_traitsIcEENS_9allocatorIcEEE19__get_short_pointerB8ne180100Ev, symObjAddr: 0x2A14, symBinAddr: 0x100006210, symSize: 0x28 }
  - { offset: 0x15019, size: 0x8, addend: 0x0, symName: __ZNKSt3__117__compressed_pairINS_12basic_stringIcNS_11char_traitsIcEENS_9allocatorIcEEE5__repES5_E5firstB8ne180100Ev, symObjAddr: 0x2A3C, symBinAddr: 0x100006238, symSize: 0x24 }
  - { offset: 0x1503F, size: 0x8, addend: 0x0, symName: __ZNKSt3__122__compressed_pair_elemINS_12basic_stringIcNS_11char_traitsIcEENS_9allocatorIcEEE5__repELi0ELb0EE5__getB8ne180100Ev, symObjAddr: 0x2A60, symBinAddr: 0x10000625C, symSize: 0x14 }
  - { offset: 0x15065, size: 0x8, addend: 0x0, symName: __ZNSt3__117__compressed_pairINS_12basic_stringIcNS_11char_traitsIcEENS_9allocatorIcEEE5__repES5_E5firstB8ne180100Ev, symObjAddr: 0x2A74, symBinAddr: 0x100006270, symSize: 0x24 }
  - { offset: 0x1508B, size: 0x8, addend: 0x0, symName: __ZNSt3__122__compressed_pair_elemINS_12basic_stringIcNS_11char_traitsIcEENS_9allocatorIcEEE5__repELi0ELb0EE5__getB8ne180100Ev, symObjAddr: 0x2A98, symBinAddr: 0x100006294, symSize: 0x14 }
  - { offset: 0x150B1, size: 0x8, addend: 0x0, symName: __ZNSt3__114pointer_traitsIPcE10pointer_toB8ne180100ERc, symObjAddr: 0x2AAC, symBinAddr: 0x1000062A8, symSize: 0x14 }
  - { offset: 0x150D4, size: 0x8, addend: 0x0, symName: __ZNSt3__119ostreambuf_iteratorIcNS_11char_traitsIcEEEC2B8ne180100ERNS_13basic_ostreamIcS2_EE, symObjAddr: 0x2AC0, symBinAddr: 0x1000062BC, symSize: 0x54 }
  - { offset: 0x1510C, size: 0x8, addend: 0x0, symName: __ZNKSt3__19basic_iosIcNS_11char_traitsIcEEE5rdbufB8ne180100Ev, symObjAddr: 0x2B14, symBinAddr: 0x100006310, symSize: 0x24 }
  - { offset: 0x15134, size: 0x8, addend: 0x0, symName: __ZNKSt3__18ios_base5rdbufB8ne180100Ev, symObjAddr: 0x2B38, symBinAddr: 0x100006334, symSize: 0x18 }
  - { offset: 0x1515A, size: 0x8, addend: 0x0, symName: __ZNSt3__111char_traitsIcE11eq_int_typeB8ne180100Eii, symObjAddr: 0x2B50, symBinAddr: 0x10000634C, symSize: 0x28 }
  - { offset: 0x1518D, size: 0x8, addend: 0x0, symName: __ZNSt3__111char_traitsIcE3eofB8ne180100Ev, symObjAddr: 0x2B78, symBinAddr: 0x100006374, symSize: 0x8 }
  - { offset: 0x151A1, size: 0x8, addend: 0x0, symName: __ZNKSt3__19basic_iosIcNS_11char_traitsIcEEE5widenB8ne180100Ec, symObjAddr: 0x2B80, symBinAddr: 0x10000637C, symSize: 0x84 }
  - { offset: 0x15215, size: 0x8, addend: 0x0, symName: __ZNKSt3__15ctypeIcE5widenB8ne180100Ec, symObjAddr: 0x2C30, symBinAddr: 0x10000642C, symSize: 0x38 }
  - { offset: 0x1524A, size: 0x8, addend: 0x0, symName: __ZNSt3__18ios_base8setstateB8ne180100Ej, symObjAddr: 0x2C68, symBinAddr: 0x100006464, symSize: 0x34 }
  - { offset: 0x15281, size: 0x8, addend: 0x0, symName: __ZN16BinarySearchTreeIiNSt3__14lessIiEEEC2Ev, symObjAddr: 0x2CC0, symBinAddr: 0x1000064BC, symSize: 0x18 }
  - { offset: 0x152AB, size: 0x8, addend: 0x0, symName: __ZN16BinarySearchTreeIiNSt3__14lessIiEEED2Ev, symObjAddr: 0x2CD8, symBinAddr: 0x1000064D4, symSize: 0x38 }
  - { offset: 0x152D5, size: 0x8, addend: 0x0, symName: __ZN16BinarySearchTreeIiNSt3__14lessIiEEE18destroy_nodes_implEPNS3_4NodeE, symObjAddr: 0x2D10, symBinAddr: 0x10000650C, symSize: 0x70 }
  - { offset: 0x152F9, size: 0x8, addend: 0x0, symName: __ZN16BinarySearchTreeIiNSt3__14lessIiEEE10empty_implEPKNS3_4NodeE, symObjAddr: 0x2D80, symBinAddr: 0x10000657C, symSize: 0x20 }
  - { offset: 0x1531D, size: 0x8, addend: 0x0, symName: __ZN16BinarySearchTreeI4Duck14DuckWealthLessEC2Ev, symObjAddr: 0x2DA0, symBinAddr: 0x10000659C, symSize: 0x18 }
  - { offset: 0x15347, size: 0x8, addend: 0x0, symName: __ZN16BinarySearchTreeI4Duck14DuckWealthLessED2Ev, symObjAddr: 0x2DB8, symBinAddr: 0x1000065B4, symSize: 0x38 }
  - { offset: 0x15371, size: 0x8, addend: 0x0, symName: __ZN16BinarySearchTreeI4Duck14DuckWealthLessE18destroy_nodes_implEPNS2_4NodeE, symObjAddr: 0x2DF0, symBinAddr: 0x1000065EC, symSize: 0x70 }
  - { offset: 0x15395, size: 0x8, addend: 0x0, symName: __ZN16BinarySearchTreeI4Duck14DuckWealthLessE10empty_implEPKNS2_4NodeE, symObjAddr: 0x2E60, symBinAddr: 0x10000665C, symSize: 0x20 }
  - { offset: 0x153B9, size: 0x8, addend: 0x0, symName: __ZN16BinarySearchTreeIiNSt3__14lessIiEEE11insert_implEPNS3_4NodeERKiS2_, symObjAddr: 0x2E80, symBinAddr: 0x10000667C, symSize: 0x128 }
  - { offset: 0x15410, size: 0x8, addend: 0x0, symName: __ZN16BinarySearchTreeIiNSt3__14lessIiEEE9find_implEPNS3_4NodeERKiS2_, symObjAddr: 0x2FA8, symBinAddr: 0x1000067A4, symSize: 0xA8 }
  - { offset: 0x15452, size: 0x8, addend: 0x0, symName: __ZN16BinarySearchTreeIiNSt3__14lessIiEEE4NodeC1ERKiPS4_S7_, symObjAddr: 0x3050, symBinAddr: 0x10000684C, symSize: 0x44 }
  - { offset: 0x154A6, size: 0x8, addend: 0x0, symName: __ZNKSt3__14lessIiEclB8ne180100ERKiS3_, symObjAddr: 0x3094, symBinAddr: 0x100006890, symSize: 0x34 }
  - { offset: 0x154EA, size: 0x8, addend: 0x0, symName: __ZN16BinarySearchTreeIiNSt3__14lessIiEEE4NodeC2ERKiPS4_S7_, symObjAddr: 0x30C8, symBinAddr: 0x1000068C4, symSize: 0x3C }
  - { offset: 0x1553E, size: 0x8, addend: 0x0, symName: __ZN16BinarySearchTreeI4Duck14DuckWealthLessE11insert_implEPNS2_4NodeERKS0_S1_, symObjAddr: 0x3104, symBinAddr: 0x100006900, symSize: 0x128 }
  - { offset: 0x15595, size: 0x8, addend: 0x0, symName: __ZN16BinarySearchTreeI4Duck14DuckWealthLessE9find_implEPNS2_4NodeERKS0_S1_, symObjAddr: 0x322C, symBinAddr: 0x100006A28, symSize: 0xA8 }
  - { offset: 0x155D7, size: 0x8, addend: 0x0, symName: __ZN16BinarySearchTreeI4Duck14DuckWealthLessE4NodeC1ERKS0_PS3_S6_, symObjAddr: 0x32D4, symBinAddr: 0x100006AD0, symSize: 0x44 }
  - { offset: 0x1562B, size: 0x8, addend: 0x0, symName: __ZNK14DuckWealthLessclERK4DuckS2_, symObjAddr: 0x3318, symBinAddr: 0x100006B14, symSize: 0x4C }
  - { offset: 0x1566D, size: 0x8, addend: 0x0, symName: __ZN16BinarySearchTreeI4Duck14DuckWealthLessE4NodeC2ERKS0_PS3_S6_, symObjAddr: 0x3364, symBinAddr: 0x100006B60, symSize: 0x3C }
  - { offset: 0x156C1, size: 0x8, addend: 0x0, symName: __ZNSt3__112basic_stringIcNS_11char_traitsIcEENS_9allocatorIcEEEC2B8ne180100Ev, symObjAddr: 0x33A0, symBinAddr: 0x100006B9C, symSize: 0x48 }
  - { offset: 0x156F1, size: 0x8, addend: 0x0, symName: __ZNSt3__117__compressed_pairINS_12basic_stringIcNS_11char_traitsIcEENS_9allocatorIcEEE5__repES5_EC1B8ne180100INS_16__value_init_tagENS_18__default_init_tagEEEOT_OT0_, symObjAddr: 0x33E8, symBinAddr: 0x100006BE4, symSize: 0x3C }
  - { offset: 0x15749, size: 0x8, addend: 0x0, symName: __ZNKSt3__112basic_stringIcNS_11char_traitsIcEENS_9allocatorIcEEE14__annotate_newB8ne180100Em, symObjAddr: 0x3424, symBinAddr: 0x100006C20, symSize: 0x14 }
  - { offset: 0x1577E, size: 0x8, addend: 0x0, symName: __ZNSt3__117__compressed_pairINS_12basic_stringIcNS_11char_traitsIcEENS_9allocatorIcEEE5__repES5_EC2B8ne180100INS_16__value_init_tagENS_18__default_init_tagEEEOT_OT0_, symObjAddr: 0x3438, symBinAddr: 0x100006C34, symSize: 0x3C }
  - { offset: 0x157D6, size: 0x8, addend: 0x0, symName: __ZNSt3__122__compressed_pair_elemINS_12basic_stringIcNS_11char_traitsIcEENS_9allocatorIcEEE5__repELi0ELb0EEC2B8ne180100ENS_16__value_init_tagE, symObjAddr: 0x3474, symBinAddr: 0x100006C70, symSize: 0x20 }
  - { offset: 0x1580A, size: 0x8, addend: 0x0, symName: __ZN16BinarySearchTreeIiNSt3__14lessIiEEE8IteratorC2Ev, symObjAddr: 0x3494, symBinAddr: 0x100006C90, symSize: 0x1C }
  - { offset: 0x15834, size: 0x8, addend: 0x0, symName: __ZN16BinarySearchTreeI4Duck14DuckWealthLessE8IteratorC2Ev, symObjAddr: 0x34B0, symBinAddr: 0x100006CAC, symSize: 0x1C }
  - { offset: 0x1585E, size: 0x8, addend: 0x0, symName: __ZN16BinarySearchTreeIiNSt3__14lessIiEEEC2ERKS3_, symObjAddr: 0x34CC, symBinAddr: 0x100006CC8, symSize: 0x40 }
  - { offset: 0x15896, size: 0x8, addend: 0x0, symName: __ZN16BinarySearchTreeIiNSt3__14lessIiEEE15copy_nodes_implEPNS3_4NodeE, symObjAddr: 0x350C, symBinAddr: 0x100006D08, symSize: 0xC4 }
  - { offset: 0x158CF, size: 0x8, addend: 0x0, symName: __ZN16BinarySearchTreeI4Duck14DuckWealthLessEC2ERKS2_, symObjAddr: 0x35D0, symBinAddr: 0x100006DCC, symSize: 0x40 }
  - { offset: 0x15907, size: 0x8, addend: 0x0, symName: __ZN16BinarySearchTreeI4Duck14DuckWealthLessE15copy_nodes_implEPNS2_4NodeE, symObjAddr: 0x3610, symBinAddr: 0x100006E0C, symSize: 0xC4 }
  - { offset: 0x15940, size: 0x8, addend: 0x0, symName: __ZN16BinarySearchTreeIiNSt3__14lessIiEEE11height_implEPKNS3_4NodeE, symObjAddr: 0x36D4, symBinAddr: 0x100006ED0, symSize: 0x9C }
  - { offset: 0x15964, size: 0x8, addend: 0x0, symName: __ZN16BinarySearchTreeI4Duck14DuckWealthLessE11height_implEPKNS2_4NodeE, symObjAddr: 0x3770, symBinAddr: 0x100006F6C, symSize: 0x9C }
  - { offset: 0x15988, size: 0x8, addend: 0x0, symName: __ZN16BinarySearchTreeIiNSt3__14lessIiEEE9size_implEPKNS3_4NodeE, symObjAddr: 0x380C, symBinAddr: 0x100007008, symSize: 0x68 }
  - { offset: 0x159AC, size: 0x8, addend: 0x0, symName: __ZN16BinarySearchTreeI4Duck14DuckWealthLessE9size_implEPKNS2_4NodeE, symObjAddr: 0x3874, symBinAddr: 0x100007070, symSize: 0x68 }
  - { offset: 0x159D0, size: 0x8, addend: 0x0, symName: __ZN16BinarySearchTreeIiNSt3__14lessIiEEE21traverse_inorder_implEPKNS3_4NodeERNS0_13basic_ostreamIcNS0_11char_traitsIcEEEE, symObjAddr: 0x38DC, symBinAddr: 0x1000070D8, symSize: 0x78 }
  - { offset: 0x15A03, size: 0x8, addend: 0x0, symName: __ZN16BinarySearchTreeI4Duck14DuckWealthLessE21traverse_inorder_implEPKNS2_4NodeERNSt3__113basic_ostreamIcNS6_11char_traitsIcEEEE, symObjAddr: 0x3954, symBinAddr: 0x100007150, symSize: 0x74 }
  - { offset: 0x15A36, size: 0x8, addend: 0x0, symName: __ZN16BinarySearchTreeIiNSt3__14lessIiEEE22traverse_preorder_implEPKNS3_4NodeERNS0_13basic_ostreamIcNS0_11char_traitsIcEEEE, symObjAddr: 0x39C8, symBinAddr: 0x1000071C4, symSize: 0x78 }
  - { offset: 0x15A69, size: 0x8, addend: 0x0, symName: __ZN16BinarySearchTreeI4Duck14DuckWealthLessE22traverse_preorder_implEPKNS2_4NodeERNSt3__113basic_ostreamIcNS6_11char_traitsIcEEEE, symObjAddr: 0x3A40, symBinAddr: 0x10000723C, symSize: 0x74 }
  - { offset: 0x15A9C, size: 0x8, addend: 0x0, symName: __ZN16BinarySearchTreeIiNSt3__14lessIiEEE28check_sorting_invariant_implEPKNS3_4NodeES2_, symObjAddr: 0x3AB4, symBinAddr: 0x1000072B0, symSize: 0x120 }
  - { offset: 0x15ACF, size: 0x8, addend: 0x0, symName: __ZN16BinarySearchTreeI4Duck14DuckWealthLessE28check_sorting_invariant_implEPKNS2_4NodeES1_, symObjAddr: 0x3BD4, symBinAddr: 0x1000073D0, symSize: 0x120 }
  - { offset: 0x15B02, size: 0x8, addend: 0x0, symName: __ZN16BinarySearchTreeIiNSt3__14lessIiEEE16min_element_implEPNS3_4NodeE, symObjAddr: 0x3CF4, symBinAddr: 0x1000074F0, symSize: 0x58 }
  - { offset: 0x15B26, size: 0x8, addend: 0x0, symName: __ZN16BinarySearchTreeIiNSt3__14lessIiEEE8IteratorC1EPNS3_4NodeES6_S2_, symObjAddr: 0x3D4C, symBinAddr: 0x100007548, symSize: 0x3C }
  - { offset: 0x15B7A, size: 0x8, addend: 0x0, symName: __ZN16BinarySearchTreeIiNSt3__14lessIiEEE8IteratorC2EPNS3_4NodeES6_S2_, symObjAddr: 0x3D88, symBinAddr: 0x100007584, symSize: 0x2C }
  - { offset: 0x15BCE, size: 0x8, addend: 0x0, symName: __ZN16BinarySearchTreeI4Duck14DuckWealthLessE16min_element_implEPNS2_4NodeE, symObjAddr: 0x3DB4, symBinAddr: 0x1000075B0, symSize: 0x58 }
  - { offset: 0x15BF2, size: 0x8, addend: 0x0, symName: __ZN16BinarySearchTreeI4Duck14DuckWealthLessE8IteratorC1EPNS2_4NodeES5_S1_, symObjAddr: 0x3E0C, symBinAddr: 0x100007608, symSize: 0x3C }
  - { offset: 0x15C46, size: 0x8, addend: 0x0, symName: __ZN16BinarySearchTreeI4Duck14DuckWealthLessE8IteratorC2EPNS2_4NodeES5_S1_, symObjAddr: 0x3E48, symBinAddr: 0x100007644, symSize: 0x2C }
  - { offset: 0x15C9A, size: 0x8, addend: 0x0, symName: __ZN16BinarySearchTreeIiNSt3__14lessIiEEE16max_element_implEPNS3_4NodeE, symObjAddr: 0x3E74, symBinAddr: 0x100007670, symSize: 0x74 }
  - { offset: 0x15CBE, size: 0x8, addend: 0x0, symName: __ZN16BinarySearchTreeI4Duck14DuckWealthLessE16max_element_implEPNS2_4NodeE, symObjAddr: 0x3EE8, symBinAddr: 0x1000076E4, symSize: 0x74 }
  - { offset: 0x15CE7, size: 0x8, addend: 0x0, symName: __ZNSt3__112basic_stringIcNS_11char_traitsIcEENS_9allocatorIcEEEC1B8ne180100ILi0EEEPKc, symObjAddr: 0x3F5C, symBinAddr: 0x100007758, symSize: 0x34 }
  - { offset: 0x15D26, size: 0x8, addend: 0x0, symName: __ZNK16BinarySearchTreeIiNSt3__14lessIiEEE17get_max_elt_widthEv, symObjAddr: 0x3F90, symBinAddr: 0x10000778C, symSize: 0x1B0 }
  - { offset: 0x15EDA, size: 0x8, addend: 0x0, symName: __ZN16BinarySearchTreeIiNSt3__14lessIiEEE9Tree_gridC1ERKS3_, symObjAddr: 0x4140, symBinAddr: 0x10000793C, symSize: 0x34 }
  - { offset: 0x15F64, size: 0x8, addend: 0x0, symName: __ZNSt3__119basic_ostringstreamIcNS_11char_traitsIcEENS_9allocatorIcEEEC1B8ne180100Ev, symObjAddr: 0x4174, symBinAddr: 0x100007970, symSize: 0xE4 }
  - { offset: 0x15F8E, size: 0x8, addend: 0x0, symName: __ZNK16BinarySearchTreeIiNSt3__14lessIiEEE9Tree_grid14get_leftmost_xEv, symObjAddr: 0x4258, symBinAddr: 0x100007A54, symSize: 0x18 }
  - { offset: 0x15FB4, size: 0x8, addend: 0x0, symName: __ZNK16BinarySearchTreeIiNSt3__14lessIiEEE9Tree_grid15get_rightmost_xEv, symObjAddr: 0x4270, symBinAddr: 0x100007A6C, symSize: 0x18 }
  - { offset: 0x15FDA, size: 0x8, addend: 0x0, symName: __ZNK16BinarySearchTreeIiNSt3__14lessIiEEE9Tree_grid14get_num_levelsEv, symObjAddr: 0x4288, symBinAddr: 0x100007A84, symSize: 0x18 }
  - { offset: 0x16000, size: 0x8, addend: 0x0, symName: __ZNK16BinarySearchTreeIiNSt3__14lessIiEEE9Tree_grid4findERKNS3_16Tree_grid_squareE, symObjAddr: 0x42A0, symBinAddr: 0x100007A9C, symSize: 0x80 }
  - { offset: 0x16042, size: 0x8, addend: 0x0, symName: __ZN16BinarySearchTreeIiNSt3__14lessIiEEE16Tree_grid_squareC1Eii, symObjAddr: 0x4320, symBinAddr: 0x100007B1C, symSize: 0x3C }
  - { offset: 0x16088, size: 0x8, addend: 0x0, symName: __ZN16BinarySearchTreeIiNSt3__14lessIiEEE16Tree_grid_squareD1Ev, symObjAddr: 0x435C, symBinAddr: 0x100007B58, symSize: 0x2C }
  - { offset: 0x160B5, size: 0x8, addend: 0x0, symName: __ZNK16BinarySearchTreeIiNSt3__14lessIiEEE16Tree_grid_square9get_valueEv, symObjAddr: 0x4434, symBinAddr: 0x100007C30, symSize: 0x3C }
  - { offset: 0x160DB, size: 0x8, addend: 0x0, symName: __ZNSt3__113basic_ostreamIcNS_11char_traitsIcEEElsB8ne180100EPFRNS_8ios_baseES5_E, symObjAddr: 0x4470, symBinAddr: 0x100007C6C, symSize: 0x40 }
  - { offset: 0x1610F, size: 0x8, addend: 0x0, symName: __ZNKSt3__119basic_ostringstreamIcNS_11char_traitsIcEENS_9allocatorIcEEE3strB8ne180100Ev, symObjAddr: 0x45B0, symBinAddr: 0x100007DAC, symSize: 0x30 }
  - { offset: 0x1613A, size: 0x8, addend: 0x0, symName: __ZNSt3__119basic_ostringstreamIcNS_11char_traitsIcEENS_9allocatorIcEEED1Ev, symObjAddr: 0x45E0, symBinAddr: 0x100007DDC, symSize: 0x40 }
  - { offset: 0x16167, size: 0x8, addend: 0x0, symName: __ZN16BinarySearchTreeIiNSt3__14lessIiEEE9Tree_gridD1Ev, symObjAddr: 0x4620, symBinAddr: 0x100007E1C, symSize: 0x2C }
  - { offset: 0x16194, size: 0x8, addend: 0x0, symName: __ZNSt3__112basic_stringIcNS_11char_traitsIcEENS_9allocatorIcEEEC2B8ne180100ILi0EEEPKc, symObjAddr: 0x464C, symBinAddr: 0x100007E48, symSize: 0x58 }
  - { offset: 0x16212, size: 0x8, addend: 0x0, symName: __ZNSt3__15stackIPN16BinarySearchTreeIiNS_4lessIiEEE4NodeENS_5dequeIS6_NS_9allocatorIS6_EEEEEC1B8ne180100Ev, symObjAddr: 0x46A4, symBinAddr: 0x100007EA0, symSize: 0x2C }
  - { offset: 0x1623C, size: 0x8, addend: 0x0, symName: __ZNSt3__15stackIPN16BinarySearchTreeIiNS_4lessIiEEE4NodeENS_5dequeIS6_NS_9allocatorIS6_EEEEE4pushB8ne180100ERKS6_, symObjAddr: 0x46D0, symBinAddr: 0x100007ECC, symSize: 0x2C }
  - { offset: 0x16270, size: 0x8, addend: 0x0, symName: __ZNKSt3__15stackIPN16BinarySearchTreeIiNS_4lessIiEEE4NodeENS_5dequeIS6_NS_9allocatorIS6_EEEEE5emptyB8ne180100Ev, symObjAddr: 0x46FC, symBinAddr: 0x100007EF8, symSize: 0x28 }
  - { offset: 0x16296, size: 0x8, addend: 0x0, symName: __ZNSt3__15stackIPN16BinarySearchTreeIiNS_4lessIiEEE4NodeENS_5dequeIS6_NS_9allocatorIS6_EEEEE3topB8ne180100Ev, symObjAddr: 0x4724, symBinAddr: 0x100007F20, symSize: 0x24 }
  - { offset: 0x162BC, size: 0x8, addend: 0x0, symName: __ZNSt3__15stackIPN16BinarySearchTreeIiNS_4lessIiEEE4NodeENS_5dequeIS6_NS_9allocatorIS6_EEEEE3popB8ne180100Ev, symObjAddr: 0x4748, symBinAddr: 0x100007F44, symSize: 0x24 }
  - { offset: 0x162E2, size: 0x8, addend: 0x0, symName: __ZNKSt3__112basic_stringIcNS_11char_traitsIcEENS_9allocatorIcEEE6lengthB8ne180100Ev, symObjAddr: 0x476C, symBinAddr: 0x100007F68, symSize: 0x24 }
  - { offset: 0x16308, size: 0x8, addend: 0x0, symName: __ZNSt3__15stackIPN16BinarySearchTreeIiNS_4lessIiEEE4NodeENS_5dequeIS6_NS_9allocatorIS6_EEEEED1Ev, symObjAddr: 0x4790, symBinAddr: 0x100007F8C, symSize: 0x2C }
  - { offset: 0x16334, size: 0x8, addend: 0x0, symName: __ZNSt3__15stackIPN16BinarySearchTreeIiNS_4lessIiEEE4NodeENS_5dequeIS6_NS_9allocatorIS6_EEEEEC2B8ne180100Ev, symObjAddr: 0x47BC, symBinAddr: 0x100007FB8, symSize: 0x2C }
  - { offset: 0x1635E, size: 0x8, addend: 0x0, symName: __ZNSt3__15dequeIPN16BinarySearchTreeIiNS_4lessIiEEE4NodeENS_9allocatorIS6_EEEC1B8ne180100Ev, symObjAddr: 0x47E8, symBinAddr: 0x100007FE4, symSize: 0x2C }
  - { offset: 0x16388, size: 0x8, addend: 0x0, symName: __ZNSt3__15dequeIPN16BinarySearchTreeIiNS_4lessIiEEE4NodeENS_9allocatorIS6_EEEC2B8ne180100Ev, symObjAddr: 0x4814, symBinAddr: 0x100008010, symSize: 0x5C }
  - { offset: 0x163B2, size: 0x8, addend: 0x0, symName: __ZNSt3__114__split_bufferIPPN16BinarySearchTreeIiNS_4lessIiEEE4NodeENS_9allocatorIS7_EEEC1B8ne180100Ev, symObjAddr: 0x4870, symBinAddr: 0x10000806C, symSize: 0x2C }
  - { offset: 0x163E2, size: 0x8, addend: 0x0, symName: __ZNSt3__117__compressed_pairImNS_9allocatorIPN16BinarySearchTreeIiNS_4lessIiEEE4NodeEEEEC1B8ne180100IiNS_18__default_init_tagEEEOT_OT0_, symObjAddr: 0x489C, symBinAddr: 0x100008098, symSize: 0x3C }
  - { offset: 0x1643A, size: 0x8, addend: 0x0, symName: __ZNKSt3__15dequeIPN16BinarySearchTreeIiNS_4lessIiEEE4NodeENS_9allocatorIS6_EEE14__annotate_newB8ne180100Em, symObjAddr: 0x48D8, symBinAddr: 0x1000080D4, symSize: 0x14 }
  - { offset: 0x1646F, size: 0x8, addend: 0x0, symName: __ZNSt3__114__split_bufferIPPN16BinarySearchTreeIiNS_4lessIiEEE4NodeENS_9allocatorIS7_EEEC2B8ne180100Ev, symObjAddr: 0x48EC, symBinAddr: 0x1000080E8, symSize: 0x50 }
  - { offset: 0x1649F, size: 0x8, addend: 0x0, symName: __ZNSt3__117__compressed_pairIPPPN16BinarySearchTreeIiNS_4lessIiEEE4NodeENS_9allocatorIS7_EEEC1B8ne180100IDnNS_18__default_init_tagEEEOT_OT0_, symObjAddr: 0x493C, symBinAddr: 0x100008138, symSize: 0x3C }
  - { offset: 0x164F7, size: 0x8, addend: 0x0, symName: __ZNSt3__117__compressed_pairIPPPN16BinarySearchTreeIiNS_4lessIiEEE4NodeENS_9allocatorIS7_EEEC2B8ne180100IDnNS_18__default_init_tagEEEOT_OT0_, symObjAddr: 0x4978, symBinAddr: 0x100008174, symSize: 0x40 }
  - { offset: 0x1654F, size: 0x8, addend: 0x0, symName: __ZNSt3__122__compressed_pair_elemIPPPN16BinarySearchTreeIiNS_4lessIiEEE4NodeELi0ELb0EEC2B8ne180100IDnvEEOT_, symObjAddr: 0x49B8, symBinAddr: 0x1000081B4, symSize: 0x1C }
  - { offset: 0x16591, size: 0x8, addend: 0x0, symName: __ZNSt3__122__compressed_pair_elemINS_9allocatorIPPN16BinarySearchTreeIiNS_4lessIiEEE4NodeEEELi1ELb1EEC2B8ne180100ENS_18__default_init_tagE, symObjAddr: 0x49D4, symBinAddr: 0x1000081D0, symSize: 0x2C }
  - { offset: 0x165C5, size: 0x8, addend: 0x0, symName: __ZNSt3__19allocatorIPPN16BinarySearchTreeIiNS_4lessIiEEE4NodeEEC2B8ne180100Ev, symObjAddr: 0x4A00, symBinAddr: 0x1000081FC, symSize: 0x2C }
  - { offset: 0x165EF, size: 0x8, addend: 0x0, symName: __ZNSt3__116__non_trivial_ifILb1ENS_9allocatorIPPN16BinarySearchTreeIiNS_4lessIiEEE4NodeEEEEC2B8ne180100Ev, symObjAddr: 0x4A2C, symBinAddr: 0x100008228, symSize: 0x14 }
  - { offset: 0x16619, size: 0x8, addend: 0x0, symName: __ZNSt3__117__compressed_pairImNS_9allocatorIPN16BinarySearchTreeIiNS_4lessIiEEE4NodeEEEEC2B8ne180100IiNS_18__default_init_tagEEEOT_OT0_, symObjAddr: 0x4A40, symBinAddr: 0x10000823C, symSize: 0x40 }
  - { offset: 0x16671, size: 0x8, addend: 0x0, symName: __ZNSt3__122__compressed_pair_elemImLi0ELb0EEC2B8ne180100IivEEOT_, symObjAddr: 0x4A80, symBinAddr: 0x10000827C, symSize: 0x24 }
  - { offset: 0x166B3, size: 0x8, addend: 0x0, symName: __ZNSt3__122__compressed_pair_elemINS_9allocatorIPN16BinarySearchTreeIiNS_4lessIiEEE4NodeEEELi1ELb1EEC2B8ne180100ENS_18__default_init_tagE, symObjAddr: 0x4AA4, symBinAddr: 0x1000082A0, symSize: 0x2C }
  - { offset: 0x166E7, size: 0x8, addend: 0x0, symName: __ZNSt3__19allocatorIPN16BinarySearchTreeIiNS_4lessIiEEE4NodeEEC2B8ne180100Ev, symObjAddr: 0x4AD0, symBinAddr: 0x1000082CC, symSize: 0x2C }
  - { offset: 0x16711, size: 0x8, addend: 0x0, symName: __ZNSt3__116__non_trivial_ifILb1ENS_9allocatorIPN16BinarySearchTreeIiNS_4lessIiEEE4NodeEEEEC2B8ne180100Ev, symObjAddr: 0x4AFC, symBinAddr: 0x1000082F8, symSize: 0x14 }
  - { offset: 0x1673B, size: 0x8, addend: 0x0, symName: __ZNSt3__15dequeIPN16BinarySearchTreeIiNS_4lessIiEEE4NodeENS_9allocatorIS6_EEE9push_backERKS6_, symObjAddr: 0x4B10, symBinAddr: 0x10000830C, symSize: 0xAC }
  - { offset: 0x16781, size: 0x8, addend: 0x0, symName: __ZNSt3__15dequeIPN16BinarySearchTreeIiNS_4lessIiEEE4NodeENS_9allocatorIS6_EEE7__allocB8ne180100Ev, symObjAddr: 0x4BBC, symBinAddr: 0x1000083B8, symSize: 0x28 }
  - { offset: 0x167A7, size: 0x8, addend: 0x0, symName: __ZNKSt3__15dequeIPN16BinarySearchTreeIiNS_4lessIiEEE4NodeENS_9allocatorIS6_EEE12__back_spareB8ne180100Ev, symObjAddr: 0x4BE4, symBinAddr: 0x1000083E0, symSize: 0x54 }
  - { offset: 0x167CD, size: 0x8, addend: 0x0, symName: __ZNSt3__15dequeIPN16BinarySearchTreeIiNS_4lessIiEEE4NodeENS_9allocatorIS6_EEE19__add_back_capacityEv, symObjAddr: 0x4C38, symBinAddr: 0x100008434, symSize: 0x34C }
  - { offset: 0x16882, size: 0x8, addend: 0x0, symName: __ZNKSt3__15dequeIPN16BinarySearchTreeIiNS_4lessIiEEE4NodeENS_9allocatorIS6_EEE24__annotate_increase_backB8ne180100Em, symObjAddr: 0x4F84, symBinAddr: 0x100008780, symSize: 0x14 }
  - { offset: 0x168B7, size: 0x8, addend: 0x0, symName: __ZNSt3__116allocator_traitsINS_9allocatorIPN16BinarySearchTreeIiNS_4lessIiEEE4NodeEEEE9constructB8ne180100IS7_JRKS7_EvEEvRS8_PT_DpOT0_, symObjAddr: 0x4F98, symBinAddr: 0x100008794, symSize: 0x34 }
  - { offset: 0x1690E, size: 0x8, addend: 0x0, symName: __ZNSt3__15dequeIPN16BinarySearchTreeIiNS_4lessIiEEE4NodeENS_9allocatorIS6_EEE3endB8ne180100Ev, symObjAddr: 0x4FCC, symBinAddr: 0x1000087C8, symSize: 0xCC }
  - { offset: 0x16952, size: 0x8, addend: 0x0, symName: __ZNKSt3__116__deque_iteratorIPN16BinarySearchTreeIiNS_4lessIiEEE4NodeEPS6_RS6_PS7_lLl512EEdeB8ne180100Ev, symObjAddr: 0x5098, symBinAddr: 0x100008894, symSize: 0x18 }
  - { offset: 0x16978, size: 0x8, addend: 0x0, symName: __ZNSt3__15dequeIPN16BinarySearchTreeIiNS_4lessIiEEE4NodeENS_9allocatorIS6_EEE6__sizeB8ne180100Ev, symObjAddr: 0x50B0, symBinAddr: 0x1000088AC, symSize: 0x28 }
  - { offset: 0x1699E, size: 0x8, addend: 0x0, symName: __ZNSt3__117__compressed_pairImNS_9allocatorIPN16BinarySearchTreeIiNS_4lessIiEEE4NodeEEEE6secondB8ne180100Ev, symObjAddr: 0x50D8, symBinAddr: 0x1000088D4, symSize: 0x24 }
  - { offset: 0x169C4, size: 0x8, addend: 0x0, symName: __ZNSt3__122__compressed_pair_elemINS_9allocatorIPN16BinarySearchTreeIiNS_4lessIiEEE4NodeEEELi1ELb1EE5__getB8ne180100Ev, symObjAddr: 0x50FC, symBinAddr: 0x1000088F8, symSize: 0x14 }
  - { offset: 0x169EA, size: 0x8, addend: 0x0, symName: __ZNKSt3__15dequeIPN16BinarySearchTreeIiNS_4lessIiEEE4NodeENS_9allocatorIS6_EEE10__capacityB8ne180100Ev, symObjAddr: 0x5110, symBinAddr: 0x10000890C, symSize: 0x60 }
  - { offset: 0x16A10, size: 0x8, addend: 0x0, symName: __ZNKSt3__15dequeIPN16BinarySearchTreeIiNS_4lessIiEEE4NodeENS_9allocatorIS6_EEE4sizeB8ne180100Ev, symObjAddr: 0x5170, symBinAddr: 0x10000896C, symSize: 0x28 }
  - { offset: 0x16A36, size: 0x8, addend: 0x0, symName: __ZNKSt3__114__split_bufferIPPN16BinarySearchTreeIiNS_4lessIiEEE4NodeENS_9allocatorIS7_EEE4sizeB8ne180100Ev, symObjAddr: 0x5198, symBinAddr: 0x100008994, symSize: 0x28 }
  - { offset: 0x16A5C, size: 0x8, addend: 0x0, symName: __ZNKSt3__15dequeIPN16BinarySearchTreeIiNS_4lessIiEEE4NodeENS_9allocatorIS6_EEE6__sizeB8ne180100Ev, symObjAddr: 0x51C0, symBinAddr: 0x1000089BC, symSize: 0x28 }
  - { offset: 0x16A82, size: 0x8, addend: 0x0, symName: __ZNKSt3__117__compressed_pairImNS_9allocatorIPN16BinarySearchTreeIiNS_4lessIiEEE4NodeEEEE5firstB8ne180100Ev, symObjAddr: 0x51E8, symBinAddr: 0x1000089E4, symSize: 0x24 }
  - { offset: 0x16AA8, size: 0x8, addend: 0x0, symName: __ZNKSt3__122__compressed_pair_elemImLi0ELb0EE5__getB8ne180100Ev, symObjAddr: 0x520C, symBinAddr: 0x100008A08, symSize: 0x14 }
  - { offset: 0x16ACE, size: 0x8, addend: 0x0, symName: __ZNKSt3__15dequeIPN16BinarySearchTreeIiNS_4lessIiEEE4NodeENS_9allocatorIS6_EEE13__front_spareB8ne180100Ev, symObjAddr: 0x5220, symBinAddr: 0x100008A1C, symSize: 0x18 }
  - { offset: 0x16AF4, size: 0x8, addend: 0x0, symName: __ZNSt3__114__split_bufferIPPN16BinarySearchTreeIiNS_4lessIiEEE4NodeENS_9allocatorIS7_EEE5frontB8ne180100Ev, symObjAddr: 0x5238, symBinAddr: 0x100008A34, symSize: 0x18 }
  - { offset: 0x16B1A, size: 0x8, addend: 0x0, symName: __ZNSt3__114__split_bufferIPPN16BinarySearchTreeIiNS_4lessIiEEE4NodeENS_9allocatorIS7_EEE9pop_frontB8ne180100Ev, symObjAddr: 0x5250, symBinAddr: 0x100008A4C, symSize: 0x2C }
  - { offset: 0x16B40, size: 0x8, addend: 0x0, symName: __ZNSt3__114__split_bufferIPPN16BinarySearchTreeIiNS_4lessIiEEE4NodeENS_9allocatorIS7_EEE9push_backB8ne180100ERKS7_, symObjAddr: 0x527C, symBinAddr: 0x100008A78, symSize: 0x260 }
  - { offset: 0x16BB8, size: 0x8, addend: 0x0, symName: __ZNKSt3__114__split_bufferIPPN16BinarySearchTreeIiNS_4lessIiEEE4NodeENS_9allocatorIS7_EEE8capacityB8ne180100Ev, symObjAddr: 0x54DC, symBinAddr: 0x100008CD8, symSize: 0x40 }
  - { offset: 0x16BDE, size: 0x8, addend: 0x0, symName: __ZNKSt3__114__split_bufferIPPN16BinarySearchTreeIiNS_4lessIiEEE4NodeENS_9allocatorIS7_EEE12__back_spareB8ne180100Ev, symObjAddr: 0x551C, symBinAddr: 0x100008D18, symSize: 0x40 }
  - { offset: 0x16C04, size: 0x8, addend: 0x0, symName: __ZNSt3__114__split_bufferIPPN16BinarySearchTreeIiNS_4lessIiEEE4NodeENS_9allocatorIS7_EEE9push_backEOS7_, symObjAddr: 0x555C, symBinAddr: 0x100008D58, symSize: 0x260 }
  - { offset: 0x16C7C, size: 0x8, addend: 0x0, symName: __ZNSt3__116allocator_traitsINS_9allocatorIPN16BinarySearchTreeIiNS_4lessIiEEE4NodeEEEE8allocateB8ne180100ERS8_m, symObjAddr: 0x57BC, symBinAddr: 0x100008FB8, symSize: 0x2C }
  - { offset: 0x16CAF, size: 0x8, addend: 0x0, symName: __ZNSt3__114__split_bufferIPPN16BinarySearchTreeIiNS_4lessIiEEE4NodeENS_9allocatorIS7_EEE10push_frontEOS7_, symObjAddr: 0x57E8, symBinAddr: 0x100008FE4, symSize: 0x25C }
  - { offset: 0x16D27, size: 0x8, addend: 0x0, symName: __ZNKSt3__15dequeIPN16BinarySearchTreeIiNS_4lessIiEEE4NodeENS_9allocatorIS6_EEE22__annotate_whole_blockB8ne180100EmNS9_22__asan_annotation_typeE, symObjAddr: 0x5A44, symBinAddr: 0x100009240, symSize: 0x18 }
  - { offset: 0x16D6B, size: 0x8, addend: 0x0, symName: __ZNSt3__114__split_bufferIPPN16BinarySearchTreeIiNS_4lessIiEEE4NodeENS_9allocatorIS7_EEE7__allocB8ne180100Ev, symObjAddr: 0x5A88, symBinAddr: 0x100009284, symSize: 0x28 }
  - { offset: 0x16D91, size: 0x8, addend: 0x0, symName: __ZNSt3__114__split_bufferIPPN16BinarySearchTreeIiNS_4lessIiEEE4NodeERNS_9allocatorIS7_EEEC1EmmSA_, symObjAddr: 0x5AB0, symBinAddr: 0x1000092AC, symSize: 0x44 }
  - { offset: 0x16DEC, size: 0x8, addend: 0x0, symName: __ZNSt3__122__allocator_destructorINS_9allocatorIPN16BinarySearchTreeIiNS_4lessIiEEE4NodeEEEEC1B8ne180100ERS8_m, symObjAddr: 0x5AF4, symBinAddr: 0x1000092F0, symSize: 0x3C }
  - { offset: 0x16EB1, size: 0x8, addend: 0x0, symName: __ZNSt3__110unique_ptrIPPN16BinarySearchTreeIiNS_4lessIiEEE4NodeENS_22__allocator_destructorINS_9allocatorIS6_EEEEEC1B8ne180100ILb1EvEES7_NS_16__dependent_typeINS_27__unique_ptr_deleter_sfinaeISB_EEXT_EE20__good_rval_ref_typeE, symObjAddr: 0x5B30, symBinAddr: 0x10000932C, symSize: 0x3C }
  - { offset: 0x16F02, size: 0x8, addend: 0x0, symName: __ZNSt3__114__split_bufferIPPN16BinarySearchTreeIiNS_4lessIiEEE4NodeERNS_9allocatorIS7_EEE9push_backEOS7_, symObjAddr: 0x5B6C, symBinAddr: 0x100009368, symSize: 0x260 }
  - { offset: 0x16F7A, size: 0x8, addend: 0x0, symName: __ZNKSt3__110unique_ptrIPPN16BinarySearchTreeIiNS_4lessIiEEE4NodeENS_22__allocator_destructorINS_9allocatorIS6_EEEEE3getB8ne180100Ev, symObjAddr: 0x5DCC, symBinAddr: 0x1000095C8, symSize: 0x28 }
  - { offset: 0x16FA0, size: 0x8, addend: 0x0, symName: __ZNSt3__110unique_ptrIPPN16BinarySearchTreeIiNS_4lessIiEEE4NodeENS_22__allocator_destructorINS_9allocatorIS6_EEEEE7releaseB8ne180100Ev, symObjAddr: 0x5DF4, symBinAddr: 0x1000095F0, symSize: 0x44 }
  - { offset: 0x16FD5, size: 0x8, addend: 0x0, symName: __ZNSt3__114__split_bufferIPPN16BinarySearchTreeIiNS_4lessIiEEE4NodeENS_9allocatorIS7_EEE3endB8ne180100Ev, symObjAddr: 0x5E38, symBinAddr: 0x100009634, symSize: 0x18 }
  - { offset: 0x16FFB, size: 0x8, addend: 0x0, symName: __ZNSt3__114__split_bufferIPPN16BinarySearchTreeIiNS_4lessIiEEE4NodeENS_9allocatorIS7_EEE5beginB8ne180100Ev, symObjAddr: 0x5E50, symBinAddr: 0x10000964C, symSize: 0x18 }
  - { offset: 0x17021, size: 0x8, addend: 0x0, symName: __ZNSt3__114__split_bufferIPPN16BinarySearchTreeIiNS_4lessIiEEE4NodeERNS_9allocatorIS7_EEE10push_frontERKS7_, symObjAddr: 0x5E68, symBinAddr: 0x100009664, symSize: 0x25C }
  - { offset: 0x17099, size: 0x8, addend: 0x0, symName: __ZNSt3__114__split_bufferIPPN16BinarySearchTreeIiNS_4lessIiEEE4NodeENS_9allocatorIS7_EEE9__end_capB8ne180100Ev, symObjAddr: 0x6100, symBinAddr: 0x1000098FC, symSize: 0x28 }
  - { offset: 0x170BF, size: 0x8, addend: 0x0, symName: __ZNSt3__114__split_bufferIPPN16BinarySearchTreeIiNS_4lessIiEEE4NodeERNS_9allocatorIS7_EEE9__end_capB8ne180100Ev, symObjAddr: 0x6128, symBinAddr: 0x100009924, symSize: 0x28 }
  - { offset: 0x170E5, size: 0x8, addend: 0x0, symName: __ZNSt3__110unique_ptrIPPN16BinarySearchTreeIiNS_4lessIiEEE4NodeENS_22__allocator_destructorINS_9allocatorIS6_EEEEED1B8ne180100Ev, symObjAddr: 0x6150, symBinAddr: 0x10000994C, symSize: 0x2C }
  - { offset: 0x1710F, size: 0x8, addend: 0x0, symName: __ZNSt3__114__split_bufferIPPN16BinarySearchTreeIiNS_4lessIiEEE4NodeERNS_9allocatorIS7_EEED1Ev, symObjAddr: 0x617C, symBinAddr: 0x100009978, symSize: 0x2C }
  - { offset: 0x1713B, size: 0x8, addend: 0x0, symName: __ZNSt3__114__split_bufferIPPN16BinarySearchTreeIiNS_4lessIiEEE4NodeENS_9allocatorIS7_EEE19__destruct_at_beginB8ne180100EPS7_, symObjAddr: 0x61A8, symBinAddr: 0x1000099A4, symSize: 0x2C }
  - { offset: 0x1716F, size: 0x8, addend: 0x0, symName: __ZNSt3__114__split_bufferIPPN16BinarySearchTreeIiNS_4lessIiEEE4NodeENS_9allocatorIS7_EEE19__destruct_at_beginEPS7_NS_17integral_constantIbLb1EEE, symObjAddr: 0x61D4, symBinAddr: 0x1000099D0, symSize: 0x20 }
  - { offset: 0x171AF, size: 0x8, addend: 0x0, symName: __ZNSt3__114__split_bufferIPPN16BinarySearchTreeIiNS_4lessIiEEE4NodeERNS_9allocatorIS7_EEE18__construct_at_endINS_13move_iteratorIPS7_EELi0EEEvT_SG_, symObjAddr: 0x6234, symBinAddr: 0x100009A30, symSize: 0x60 }
  - { offset: 0x17202, size: 0x8, addend: 0x0, symName: __ZNSt3__113move_iteratorIPPPN16BinarySearchTreeIiNS_4lessIiEEE4NodeEEC1B8ne180100ES8_, symObjAddr: 0x6294, symBinAddr: 0x100009A90, symSize: 0x34 }
  - { offset: 0x1723A, size: 0x8, addend: 0x0, symName: __ZNSt3__116allocator_traitsINS_9allocatorIPPN16BinarySearchTreeIiNS_4lessIiEEE4NodeEEEE9constructB8ne180100IS8_JRKS8_EvEEvRS9_PT_DpOT0_, symObjAddr: 0x62C8, symBinAddr: 0x100009AC4, symSize: 0x34 }
  - { offset: 0x172B5, size: 0x8, addend: 0x0, symName: __ZNKSt3__114__move_trivialclB8ne180100IPPN16BinarySearchTreeIiNS_4lessIiEEE4NodeES8_Li0EEENS_4pairIPT_PT0_EESB_SB_SD_, symObjAddr: 0x64AC, symBinAddr: 0x100009CA8, symSize: 0x48 }
  - { offset: 0x17323, size: 0x8, addend: 0x0, symName: __ZNSt3__14pairIPPPN16BinarySearchTreeIiNS_4lessIiEEE4NodeES8_EC1B8ne180100IRS8_S8_Li0EEEOT_OT0_, symObjAddr: 0x66D4, symBinAddr: 0x100009ED0, symSize: 0x3C }
  - { offset: 0x17381, size: 0x8, addend: 0x0, symName: __ZNSt3__14pairIPPPN16BinarySearchTreeIiNS_4lessIiEEE4NodeES8_EC2B8ne180100IRS8_S8_Li0EEEOT_OT0_, symObjAddr: 0x6710, symBinAddr: 0x100009F0C, symSize: 0x34 }
  - { offset: 0x173DF, size: 0x8, addend: 0x0, symName: __ZNSt3__118__unwrap_iter_implIPPPN16BinarySearchTreeIiNS_4lessIiEEE4NodeELb1EE8__unwrapB8ne180100ES8_, symObjAddr: 0x6744, symBinAddr: 0x100009F40, symSize: 0x24 }
  - { offset: 0x17402, size: 0x8, addend: 0x0, symName: __ZNSt3__14pairIPPPN16BinarySearchTreeIiNS_4lessIiEEE4NodeES8_EC1B8ne180100IS8_S8_Li0EEEOT_OT0_, symObjAddr: 0x6768, symBinAddr: 0x100009F64, symSize: 0x3C }
  - { offset: 0x17460, size: 0x8, addend: 0x0, symName: __ZNSt3__14pairIPPPN16BinarySearchTreeIiNS_4lessIiEEE4NodeES8_EC2B8ne180100IS8_S8_Li0EEEOT_OT0_, symObjAddr: 0x67A4, symBinAddr: 0x100009FA0, symSize: 0x34 }
  - { offset: 0x174BE, size: 0x8, addend: 0x0, symName: __ZNSt3__118__unwrap_iter_implIPPPN16BinarySearchTreeIiNS_4lessIiEEE4NodeELb1EE8__rewrapB8ne180100ES8_S8_, symObjAddr: 0x67D8, symBinAddr: 0x100009FD4, symSize: 0x50 }
  - { offset: 0x174EF, size: 0x8, addend: 0x0, symName: __ZNSt3__114__split_bufferIPPN16BinarySearchTreeIiNS_4lessIiEEE4NodeERNS_9allocatorIS7_EEE28__construct_at_end_with_sizeINS_13move_iteratorIPS7_EEEEvT_m, symObjAddr: 0x6828, symBinAddr: 0x10000A024, symSize: 0xDC }
  - { offset: 0x17555, size: 0x8, addend: 0x0, symName: __ZNSt3__114__split_bufferIPPN16BinarySearchTreeIiNS_4lessIiEEE4NodeERNS_9allocatorIS7_EEE21_ConstructTransactionC1B8ne180100EPPS7_m, symObjAddr: 0x6940, symBinAddr: 0x10000A13C, symSize: 0x3C }
  - { offset: 0x1759B, size: 0x8, addend: 0x0, symName: __ZNSt3__116allocator_traitsINS_9allocatorIPPN16BinarySearchTreeIiNS_4lessIiEEE4NodeEEEE9constructB8ne180100IS8_JS8_EvEEvRS9_PT_DpOT0_, symObjAddr: 0x697C, symBinAddr: 0x10000A178, symSize: 0x34 }
  - { offset: 0x175F2, size: 0x8, addend: 0x0, symName: __ZNSt3__114__split_bufferIPPN16BinarySearchTreeIiNS_4lessIiEEE4NodeERNS_9allocatorIS7_EEE7__allocB8ne180100Ev, symObjAddr: 0x69B0, symBinAddr: 0x10000A1AC, symSize: 0x28 }
  - { offset: 0x17618, size: 0x8, addend: 0x0, symName: __ZNKSt3__113move_iteratorIPPPN16BinarySearchTreeIiNS_4lessIiEEE4NodeEEdeB8ne180100Ev, symObjAddr: 0x69D8, symBinAddr: 0x10000A1D4, symSize: 0x18 }
  - { offset: 0x1763E, size: 0x8, addend: 0x0, symName: __ZNSt3__113move_iteratorIPPPN16BinarySearchTreeIiNS_4lessIiEEE4NodeEEppB8ne180100Ev, symObjAddr: 0x69F0, symBinAddr: 0x10000A1EC, symSize: 0x20 }
  - { offset: 0x17664, size: 0x8, addend: 0x0, symName: __ZNSt3__114__split_bufferIPPN16BinarySearchTreeIiNS_4lessIiEEE4NodeERNS_9allocatorIS7_EEE21_ConstructTransactionD1B8ne180100Ev, symObjAddr: 0x6A10, symBinAddr: 0x10000A20C, symSize: 0x2C }
  - { offset: 0x1768E, size: 0x8, addend: 0x0, symName: __ZNSt3__114__split_bufferIPPN16BinarySearchTreeIiNS_4lessIiEEE4NodeERNS_9allocatorIS7_EEE21_ConstructTransactionC2B8ne180100EPPS7_m, symObjAddr: 0x6A3C, symBinAddr: 0x10000A238, symSize: 0x44 }
  - { offset: 0x176D4, size: 0x8, addend: 0x0, symName: __ZNSt3__19allocatorIPPN16BinarySearchTreeIiNS_4lessIiEEE4NodeEE9constructB8ne180100IS7_JS7_EEEvPT_DpOT0_, symObjAddr: 0x6A80, symBinAddr: 0x10000A27C, symSize: 0x28 }
  - { offset: 0x1772A, size: 0x8, addend: 0x0, symName: __ZNSt3__117__compressed_pairIPPPN16BinarySearchTreeIiNS_4lessIiEEE4NodeERNS_9allocatorIS7_EEE6secondB8ne180100Ev, symObjAddr: 0x6AA8, symBinAddr: 0x10000A2A4, symSize: 0x28 }
  - { offset: 0x17750, size: 0x8, addend: 0x0, symName: __ZNSt3__122__compressed_pair_elemIRNS_9allocatorIPPN16BinarySearchTreeIiNS_4lessIiEEE4NodeEEELi1ELb0EE5__getB8ne180100Ev, symObjAddr: 0x6AD0, symBinAddr: 0x10000A2CC, symSize: 0x18 }
  - { offset: 0x17776, size: 0x8, addend: 0x0, symName: __ZNSt3__114__split_bufferIPPN16BinarySearchTreeIiNS_4lessIiEEE4NodeERNS_9allocatorIS7_EEE21_ConstructTransactionD2B8ne180100Ev, symObjAddr: 0x6AE8, symBinAddr: 0x10000A2E4, symSize: 0x20 }
  - { offset: 0x177A0, size: 0x8, addend: 0x0, symName: __ZNKSt3__113move_iteratorIPPPN16BinarySearchTreeIiNS_4lessIiEEE4NodeEE4baseB8ne180100Ev, symObjAddr: 0x6B80, symBinAddr: 0x10000A37C, symSize: 0x18 }
  - { offset: 0x177C6, size: 0x8, addend: 0x0, symName: __ZNSt3__113move_iteratorIPPPN16BinarySearchTreeIiNS_4lessIiEEE4NodeEEC2B8ne180100ES8_, symObjAddr: 0x6B98, symBinAddr: 0x10000A394, symSize: 0x20 }
  - { offset: 0x177FE, size: 0x8, addend: 0x0, symName: __ZNSt3__19allocatorIPPN16BinarySearchTreeIiNS_4lessIiEEE4NodeEE9constructB8ne180100IS7_JRKS7_EEEvPT_DpOT0_, symObjAddr: 0x6BB8, symBinAddr: 0x10000A3B4, symSize: 0x28 }
  - { offset: 0x17854, size: 0x8, addend: 0x0, symName: __ZNKSt3__114__split_bufferIPPN16BinarySearchTreeIiNS_4lessIiEEE4NodeENS_9allocatorIS7_EEE9__end_capB8ne180100Ev, symObjAddr: 0x6BE0, symBinAddr: 0x10000A3DC, symSize: 0x28 }
  - { offset: 0x1787A, size: 0x8, addend: 0x0, symName: __ZNKSt3__117__compressed_pairIPPPN16BinarySearchTreeIiNS_4lessIiEEE4NodeENS_9allocatorIS7_EEE5firstB8ne180100Ev, symObjAddr: 0x6C08, symBinAddr: 0x10000A404, symSize: 0x24 }
  - { offset: 0x178A0, size: 0x8, addend: 0x0, symName: __ZNKSt3__122__compressed_pair_elemIPPPN16BinarySearchTreeIiNS_4lessIiEEE4NodeELi0ELb0EE5__getB8ne180100Ev, symObjAddr: 0x6C2C, symBinAddr: 0x10000A428, symSize: 0x14 }
  - { offset: 0x178C6, size: 0x8, addend: 0x0, symName: __ZNSt3__19allocatorIPN16BinarySearchTreeIiNS_4lessIiEEE4NodeEE8allocateB8ne180100Em, symObjAddr: 0x6C40, symBinAddr: 0x10000A43C, symSize: 0x58 }
  - { offset: 0x17904, size: 0x8, addend: 0x0, symName: __ZNSt3__116allocator_traitsINS_9allocatorIPN16BinarySearchTreeIiNS_4lessIiEEE4NodeEEEE8max_sizeB8ne180100IS8_vEEmRKS8_, symObjAddr: 0x6C98, symBinAddr: 0x10000A494, symSize: 0x24 }
  - { offset: 0x17932, size: 0x8, addend: 0x0, symName: __ZNKSt3__19allocatorIPN16BinarySearchTreeIiNS_4lessIiEEE4NodeEE8max_sizeB8ne180100Ev, symObjAddr: 0x6D50, symBinAddr: 0x10000A54C, symSize: 0x14 }
  - { offset: 0x17962, size: 0x8, addend: 0x0, symName: __ZNKSt3__123__move_backward_trivialclB8ne180100IPPN16BinarySearchTreeIiNS_4lessIiEEE4NodeES8_Li0EEENS_4pairIPT_PT0_EESB_SB_SD_, symObjAddr: 0x6F50, symBinAddr: 0x10000A74C, symSize: 0x48 }
  - { offset: 0x179CA, size: 0x8, addend: 0x0, symName: __ZNSt3__14pairIPPPN16BinarySearchTreeIiNS_4lessIiEEE4NodeES8_EC1B8ne180100IRS8_SB_Li0EEEOT_OT0_, symObjAddr: 0x7060, symBinAddr: 0x10000A85C, symSize: 0x3C }
  - { offset: 0x17A28, size: 0x8, addend: 0x0, symName: __ZNSt3__14pairIPPPN16BinarySearchTreeIiNS_4lessIiEEE4NodeES8_EC2B8ne180100IRS8_SB_Li0EEEOT_OT0_, symObjAddr: 0x709C, symBinAddr: 0x10000A898, symSize: 0x34 }
  - { offset: 0x17A90, size: 0x8, addend: 0x0, symName: __ZNKSt3__16__lessIvvEclB8ne180100ImmEEbRKT_RKT0_, symObjAddr: 0x7124, symBinAddr: 0x10000A920, symSize: 0x34 }
  - { offset: 0x17AE4, size: 0x8, addend: 0x0, symName: __ZNSt3__117__compressed_pairIPPPN16BinarySearchTreeIiNS_4lessIiEEE4NodeENS_9allocatorIS7_EEE6secondB8ne180100Ev, symObjAddr: 0x7158, symBinAddr: 0x10000A954, symSize: 0x24 }
  - { offset: 0x17B0A, size: 0x8, addend: 0x0, symName: __ZNSt3__122__compressed_pair_elemINS_9allocatorIPPN16BinarySearchTreeIiNS_4lessIiEEE4NodeEEELi1ELb1EE5__getB8ne180100Ev, symObjAddr: 0x717C, symBinAddr: 0x10000A978, symSize: 0x14 }
  - { offset: 0x17B30, size: 0x8, addend: 0x0, symName: __ZNSt3__114__split_bufferIPPN16BinarySearchTreeIiNS_4lessIiEEE4NodeERNS_9allocatorIS7_EEEC2EmmSA_, symObjAddr: 0x7190, symBinAddr: 0x10000A98C, symSize: 0xD4 }
  - { offset: 0x17BA3, size: 0x8, addend: 0x0, symName: __ZNSt3__117__compressed_pairIPPPN16BinarySearchTreeIiNS_4lessIiEEE4NodeERNS_9allocatorIS7_EEEC1B8ne180100IDnSB_EEOT_OT0_, symObjAddr: 0x7264, symBinAddr: 0x10000AA60, symSize: 0x3C }
  - { offset: 0x17BFB, size: 0x8, addend: 0x0, symName: __ZNSt3__117__compressed_pairIPPPN16BinarySearchTreeIiNS_4lessIiEEE4NodeERNS_9allocatorIS7_EEEC2B8ne180100IDnSB_EEOT_OT0_, symObjAddr: 0x72E0, symBinAddr: 0x10000AADC, symSize: 0x48 }
  - { offset: 0x17C53, size: 0x8, addend: 0x0, symName: __ZNSt3__122__compressed_pair_elemIRNS_9allocatorIPPN16BinarySearchTreeIiNS_4lessIiEEE4NodeEEELi1ELb0EEC2B8ne180100ISA_vEEOT_, symObjAddr: 0x7328, symBinAddr: 0x10000AB24, symSize: 0x20 }
  - { offset: 0x17C95, size: 0x8, addend: 0x0, symName: __ZNSt3__19allocatorIPPN16BinarySearchTreeIiNS_4lessIiEEE4NodeEE8allocateB8ne180100Em, symObjAddr: 0x7348, symBinAddr: 0x10000AB44, symSize: 0x58 }
  - { offset: 0x17CD3, size: 0x8, addend: 0x0, symName: __ZNSt3__116allocator_traitsINS_9allocatorIPPN16BinarySearchTreeIiNS_4lessIiEEE4NodeEEEE8max_sizeB8ne180100IS9_vEEmRKS9_, symObjAddr: 0x73A0, symBinAddr: 0x10000AB9C, symSize: 0x24 }
  - { offset: 0x17D01, size: 0x8, addend: 0x0, symName: __ZNKSt3__19allocatorIPPN16BinarySearchTreeIiNS_4lessIiEEE4NodeEE8max_sizeB8ne180100Ev, symObjAddr: 0x73C4, symBinAddr: 0x10000ABC0, symSize: 0x14 }
  - { offset: 0x17D27, size: 0x8, addend: 0x0, symName: __ZNSt3__122__allocator_destructorINS_9allocatorIPN16BinarySearchTreeIiNS_4lessIiEEE4NodeEEEEC2B8ne180100ERS8_m, symObjAddr: 0x73D8, symBinAddr: 0x10000ABD4, symSize: 0x2C }
  - { offset: 0x17D6D, size: 0x8, addend: 0x0, symName: __ZNSt3__110unique_ptrIPPN16BinarySearchTreeIiNS_4lessIiEEE4NodeENS_22__allocator_destructorINS_9allocatorIS6_EEEEEC2B8ne180100ILb1EvEES7_NS_16__dependent_typeINS_27__unique_ptr_deleter_sfinaeISB_EEXT_EE20__good_rval_ref_typeE, symObjAddr: 0x7404, symBinAddr: 0x10000AC00, symSize: 0x48 }
  - { offset: 0x17DBE, size: 0x8, addend: 0x0, symName: __ZNSt3__117__compressed_pairIPPN16BinarySearchTreeIiNS_4lessIiEEE4NodeENS_22__allocator_destructorINS_9allocatorIS6_EEEEEC1B8ne180100IRS7_SB_EEOT_OT0_, symObjAddr: 0x744C, symBinAddr: 0x10000AC48, symSize: 0x3C }
  - { offset: 0x17E16, size: 0x8, addend: 0x0, symName: __ZNSt3__117__compressed_pairIPPN16BinarySearchTreeIiNS_4lessIiEEE4NodeENS_22__allocator_destructorINS_9allocatorIS6_EEEEEC2B8ne180100IRS7_SB_EEOT_OT0_, symObjAddr: 0x7488, symBinAddr: 0x10000AC84, symSize: 0x48 }
  - { offset: 0x17E6E, size: 0x8, addend: 0x0, symName: __ZNSt3__122__compressed_pair_elemIPPN16BinarySearchTreeIiNS_4lessIiEEE4NodeELi0ELb0EEC2B8ne180100IRS7_vEEOT_, symObjAddr: 0x74D0, symBinAddr: 0x10000ACCC, symSize: 0x24 }
  - { offset: 0x17EB0, size: 0x8, addend: 0x0, symName: __ZNSt3__122__compressed_pair_elemINS_22__allocator_destructorINS_9allocatorIPN16BinarySearchTreeIiNS_4lessIiEEE4NodeEEEEELi1ELb0EEC2B8ne180100ISA_vEEOT_, symObjAddr: 0x74F4, symBinAddr: 0x10000ACF0, symSize: 0x24 }
  - { offset: 0x17EF2, size: 0x8, addend: 0x0, symName: __ZNKSt3__117__compressed_pairIPPN16BinarySearchTreeIiNS_4lessIiEEE4NodeENS_22__allocator_destructorINS_9allocatorIS6_EEEEE5firstB8ne180100Ev, symObjAddr: 0x7518, symBinAddr: 0x10000AD14, symSize: 0x24 }
  - { offset: 0x17F18, size: 0x8, addend: 0x0, symName: __ZNKSt3__122__compressed_pair_elemIPPN16BinarySearchTreeIiNS_4lessIiEEE4NodeELi0ELb0EE5__getB8ne180100Ev, symObjAddr: 0x753C, symBinAddr: 0x10000AD38, symSize: 0x14 }
  - { offset: 0x17F3E, size: 0x8, addend: 0x0, symName: __ZNSt3__117__compressed_pairIPPN16BinarySearchTreeIiNS_4lessIiEEE4NodeENS_22__allocator_destructorINS_9allocatorIS6_EEEEE5firstB8ne180100Ev, symObjAddr: 0x7550, symBinAddr: 0x10000AD4C, symSize: 0x24 }
  - { offset: 0x17F64, size: 0x8, addend: 0x0, symName: __ZNSt3__122__compressed_pair_elemIPPN16BinarySearchTreeIiNS_4lessIiEEE4NodeELi0ELb0EE5__getB8ne180100Ev, symObjAddr: 0x7574, symBinAddr: 0x10000AD70, symSize: 0x14 }
  - { offset: 0x17F8A, size: 0x8, addend: 0x0, symName: __ZNSt3__117__compressed_pairIPPPN16BinarySearchTreeIiNS_4lessIiEEE4NodeENS_9allocatorIS7_EEE5firstB8ne180100Ev, symObjAddr: 0x7588, symBinAddr: 0x10000AD84, symSize: 0x24 }
  - { offset: 0x17FB0, size: 0x8, addend: 0x0, symName: __ZNSt3__122__compressed_pair_elemIPPPN16BinarySearchTreeIiNS_4lessIiEEE4NodeELi0ELb0EE5__getB8ne180100Ev, symObjAddr: 0x75AC, symBinAddr: 0x10000ADA8, symSize: 0x14 }
  - { offset: 0x17FD6, size: 0x8, addend: 0x0, symName: __ZNSt3__117__compressed_pairIPPPN16BinarySearchTreeIiNS_4lessIiEEE4NodeERNS_9allocatorIS7_EEE5firstB8ne180100Ev, symObjAddr: 0x75C0, symBinAddr: 0x10000ADBC, symSize: 0x24 }
  - { offset: 0x17FFC, size: 0x8, addend: 0x0, symName: __ZNSt3__110unique_ptrIPPN16BinarySearchTreeIiNS_4lessIiEEE4NodeENS_22__allocator_destructorINS_9allocatorIS6_EEEEED2B8ne180100Ev, symObjAddr: 0x75E4, symBinAddr: 0x10000ADE0, symSize: 0x30 }
  - { offset: 0x18026, size: 0x8, addend: 0x0, symName: __ZNSt3__110unique_ptrIPPN16BinarySearchTreeIiNS_4lessIiEEE4NodeENS_22__allocator_destructorINS_9allocatorIS6_EEEEE5resetB8ne180100ES7_, symObjAddr: 0x7614, symBinAddr: 0x10000AE10, symSize: 0x78 }
  - { offset: 0x1806A, size: 0x8, addend: 0x0, symName: __ZNSt3__117__compressed_pairIPPN16BinarySearchTreeIiNS_4lessIiEEE4NodeENS_22__allocator_destructorINS_9allocatorIS6_EEEEE6secondB8ne180100Ev, symObjAddr: 0x768C, symBinAddr: 0x10000AE88, symSize: 0x28 }
  - { offset: 0x18090, size: 0x8, addend: 0x0, symName: __ZNSt3__122__allocator_destructorINS_9allocatorIPN16BinarySearchTreeIiNS_4lessIiEEE4NodeEEEEclB8ne180100EPS7_, symObjAddr: 0x76B4, symBinAddr: 0x10000AEB0, symSize: 0x34 }
  - { offset: 0x180C4, size: 0x8, addend: 0x0, symName: __ZNSt3__122__compressed_pair_elemINS_22__allocator_destructorINS_9allocatorIPN16BinarySearchTreeIiNS_4lessIiEEE4NodeEEEEELi1ELb0EE5__getB8ne180100Ev, symObjAddr: 0x76E8, symBinAddr: 0x10000AEE4, symSize: 0x14 }
  - { offset: 0x180EA, size: 0x8, addend: 0x0, symName: __ZNSt3__116allocator_traitsINS_9allocatorIPN16BinarySearchTreeIiNS_4lessIiEEE4NodeEEEE10deallocateB8ne180100ERS8_PS7_m, symObjAddr: 0x76FC, symBinAddr: 0x10000AEF8, symSize: 0x34 }
  - { offset: 0x1812C, size: 0x8, addend: 0x0, symName: __ZNSt3__19allocatorIPN16BinarySearchTreeIiNS_4lessIiEEE4NodeEE10deallocateB8ne180100EPS6_m, symObjAddr: 0x7730, symBinAddr: 0x10000AF2C, symSize: 0x40 }
  - { offset: 0x1816E, size: 0x8, addend: 0x0, symName: __ZNSt3__114__split_bufferIPPN16BinarySearchTreeIiNS_4lessIiEEE4NodeERNS_9allocatorIS7_EEED2Ev, symObjAddr: 0x7878, symBinAddr: 0x10000B074, symSize: 0x8C }
  - { offset: 0x1819A, size: 0x8, addend: 0x0, symName: __ZNSt3__114__split_bufferIPPN16BinarySearchTreeIiNS_4lessIiEEE4NodeERNS_9allocatorIS7_EEE5clearB8ne180100Ev, symObjAddr: 0x7904, symBinAddr: 0x10000B100, symSize: 0x28 }
  - { offset: 0x181C0, size: 0x8, addend: 0x0, symName: __ZNSt3__116allocator_traitsINS_9allocatorIPPN16BinarySearchTreeIiNS_4lessIiEEE4NodeEEEE10deallocateB8ne180100ERS9_PS8_m, symObjAddr: 0x792C, symBinAddr: 0x10000B128, symSize: 0x34 }
  - { offset: 0x18202, size: 0x8, addend: 0x0, symName: __ZNKSt3__114__split_bufferIPPN16BinarySearchTreeIiNS_4lessIiEEE4NodeERNS_9allocatorIS7_EEE8capacityB8ne180100Ev, symObjAddr: 0x7960, symBinAddr: 0x10000B15C, symSize: 0x40 }
  - { offset: 0x18228, size: 0x8, addend: 0x0, symName: __ZNSt3__114__split_bufferIPPN16BinarySearchTreeIiNS_4lessIiEEE4NodeERNS_9allocatorIS7_EEE17__destruct_at_endB8ne180100EPS7_, symObjAddr: 0x79A0, symBinAddr: 0x10000B19C, symSize: 0x2C }
  - { offset: 0x1825C, size: 0x8, addend: 0x0, symName: __ZNSt3__114__split_bufferIPPN16BinarySearchTreeIiNS_4lessIiEEE4NodeERNS_9allocatorIS7_EEE17__destruct_at_endB8ne180100EPS7_NS_17integral_constantIbLb0EEE, symObjAddr: 0x79CC, symBinAddr: 0x10000B1C8, symSize: 0x80 }
  - { offset: 0x1829C, size: 0x8, addend: 0x0, symName: __ZNSt3__116allocator_traitsINS_9allocatorIPPN16BinarySearchTreeIiNS_4lessIiEEE4NodeEEEE7destroyB8ne180100IS8_vEEvRS9_PT_, symObjAddr: 0x7A4C, symBinAddr: 0x10000B248, symSize: 0x2C }
  - { offset: 0x182D9, size: 0x8, addend: 0x0, symName: __ZNSt3__19allocatorIPPN16BinarySearchTreeIiNS_4lessIiEEE4NodeEE7destroyB8ne180100EPS7_, symObjAddr: 0x7A78, symBinAddr: 0x10000B274, symSize: 0x14 }
  - { offset: 0x1830D, size: 0x8, addend: 0x0, symName: __ZNSt3__19allocatorIPPN16BinarySearchTreeIiNS_4lessIiEEE4NodeEE10deallocateB8ne180100EPS7_m, symObjAddr: 0x7A8C, symBinAddr: 0x10000B288, symSize: 0x40 }
  - { offset: 0x1834F, size: 0x8, addend: 0x0, symName: __ZNKSt3__114__split_bufferIPPN16BinarySearchTreeIiNS_4lessIiEEE4NodeERNS_9allocatorIS7_EEE9__end_capB8ne180100Ev, symObjAddr: 0x7ACC, symBinAddr: 0x10000B2C8, symSize: 0x28 }
  - { offset: 0x18375, size: 0x8, addend: 0x0, symName: __ZNKSt3__117__compressed_pairIPPPN16BinarySearchTreeIiNS_4lessIiEEE4NodeERNS_9allocatorIS7_EEE5firstB8ne180100Ev, symObjAddr: 0x7AF4, symBinAddr: 0x10000B2F0, symSize: 0x24 }
  - { offset: 0x1839B, size: 0x8, addend: 0x0, symName: __ZNSt3__19allocatorIPN16BinarySearchTreeIiNS_4lessIiEEE4NodeEE9constructB8ne180100IS6_JRKS6_EEEvPT_DpOT0_, symObjAddr: 0x7B18, symBinAddr: 0x10000B314, symSize: 0x28 }
  - { offset: 0x183F1, size: 0x8, addend: 0x0, symName: __ZNKSt3__114__split_bufferIPPN16BinarySearchTreeIiNS_4lessIiEEE4NodeENS_9allocatorIS7_EEE5emptyB8ne180100Ev, symObjAddr: 0x7B40, symBinAddr: 0x10000B33C, symSize: 0x28 }
  - { offset: 0x18417, size: 0x8, addend: 0x0, symName: __ZNSt3__116__deque_iteratorIPN16BinarySearchTreeIiNS_4lessIiEEE4NodeEPS6_RS6_PS7_lLl512EEC1B8ne180100ES9_S7_, symObjAddr: 0x7B68, symBinAddr: 0x10000B364, symSize: 0x3C }
  - { offset: 0x1845F, size: 0x8, addend: 0x0, symName: __ZNSt3__116__deque_iteratorIPN16BinarySearchTreeIiNS_4lessIiEEE4NodeEPS6_RS6_PS7_lLl512EEC2B8ne180100ES9_S7_, symObjAddr: 0x7BA4, symBinAddr: 0x10000B3A0, symSize: 0x2C }
  - { offset: 0x184A7, size: 0x8, addend: 0x0, symName: __ZNSt3__117__compressed_pairImNS_9allocatorIPN16BinarySearchTreeIiNS_4lessIiEEE4NodeEEEE5firstB8ne180100Ev, symObjAddr: 0x7BD0, symBinAddr: 0x10000B3CC, symSize: 0x24 }
  - { offset: 0x184CD, size: 0x8, addend: 0x0, symName: __ZNSt3__122__compressed_pair_elemImLi0ELb0EE5__getB8ne180100Ev, symObjAddr: 0x7BF4, symBinAddr: 0x10000B3F0, symSize: 0x14 }
  - { offset: 0x184F3, size: 0x8, addend: 0x0, symName: __ZNKSt3__15dequeIPN16BinarySearchTreeIiNS_4lessIiEEE4NodeENS_9allocatorIS6_EEE5emptyB8ne180100Ev, symObjAddr: 0x7C08, symBinAddr: 0x10000B404, symSize: 0x30 }
  - { offset: 0x18519, size: 0x8, addend: 0x0, symName: __ZNSt3__15dequeIPN16BinarySearchTreeIiNS_4lessIiEEE4NodeENS_9allocatorIS6_EEE4backEv, symObjAddr: 0x7C38, symBinAddr: 0x10000B434, symSize: 0x68 }
  - { offset: 0x18550, size: 0x8, addend: 0x0, symName: __ZNSt3__15dequeIPN16BinarySearchTreeIiNS_4lessIiEEE4NodeENS_9allocatorIS6_EEE8pop_backEv, symObjAddr: 0x7CA0, symBinAddr: 0x10000B49C, symSize: 0xE0 }
  - { offset: 0x185B4, size: 0x8, addend: 0x0, symName: __ZNSt3__116allocator_traitsINS_9allocatorIPN16BinarySearchTreeIiNS_4lessIiEEE4NodeEEEE7destroyB8ne180100IS7_vEEvRS8_PT_, symObjAddr: 0x7D80, symBinAddr: 0x10000B57C, symSize: 0x2C }
  - { offset: 0x185F1, size: 0x8, addend: 0x0, symName: __ZNKSt3__15dequeIPN16BinarySearchTreeIiNS_4lessIiEEE4NodeENS_9allocatorIS6_EEE22__annotate_shrink_backB8ne180100Emm, symObjAddr: 0x7DC0, symBinAddr: 0x10000B5BC, symSize: 0x18 }
  - { offset: 0x18635, size: 0x8, addend: 0x0, symName: __ZNSt3__15dequeIPN16BinarySearchTreeIiNS_4lessIiEEE4NodeENS_9allocatorIS6_EEE25__maybe_remove_back_spareB8ne180100Eb, symObjAddr: 0x7DD8, symBinAddr: 0x10000B5D4, symSize: 0xE8 }
  - { offset: 0x1866A, size: 0x8, addend: 0x0, symName: __ZNSt3__19allocatorIPN16BinarySearchTreeIiNS_4lessIiEEE4NodeEE7destroyB8ne180100EPS6_, symObjAddr: 0x7EC0, symBinAddr: 0x10000B6BC, symSize: 0x14 }
  - { offset: 0x1869E, size: 0x8, addend: 0x0, symName: __ZNKSt3__15dequeIPN16BinarySearchTreeIiNS_4lessIiEEE4NodeENS_9allocatorIS6_EEE19__back_spare_blocksB8ne180100Ev, symObjAddr: 0x7ED4, symBinAddr: 0x10000B6D0, symSize: 0x2C }
  - { offset: 0x186C4, size: 0x8, addend: 0x0, symName: __ZNSt3__114__split_bufferIPPN16BinarySearchTreeIiNS_4lessIiEEE4NodeENS_9allocatorIS7_EEE4backB8ne180100Ev, symObjAddr: 0x7F00, symBinAddr: 0x10000B6FC, symSize: 0x1C }
  - { offset: 0x186EA, size: 0x8, addend: 0x0, symName: __ZNSt3__114__split_bufferIPPN16BinarySearchTreeIiNS_4lessIiEEE4NodeENS_9allocatorIS7_EEE8pop_backB8ne180100Ev, symObjAddr: 0x7F1C, symBinAddr: 0x10000B718, symSize: 0x2C }
  - { offset: 0x18710, size: 0x8, addend: 0x0, symName: __ZNSt3__114__split_bufferIPPN16BinarySearchTreeIiNS_4lessIiEEE4NodeENS_9allocatorIS7_EEE17__destruct_at_endB8ne180100EPS7_, symObjAddr: 0x7F48, symBinAddr: 0x10000B744, symSize: 0x2C }
  - { offset: 0x18744, size: 0x8, addend: 0x0, symName: __ZNSt3__114__split_bufferIPPN16BinarySearchTreeIiNS_4lessIiEEE4NodeENS_9allocatorIS7_EEE17__destruct_at_endB8ne180100EPS7_NS_17integral_constantIbLb0EEE, symObjAddr: 0x7F74, symBinAddr: 0x10000B770, symSize: 0x80 }
  - { offset: 0x18784, size: 0x8, addend: 0x0, symName: __ZNKSt3__112basic_stringIcNS_11char_traitsIcEENS_9allocatorIcEEE4sizeB8ne180100Ev, symObjAddr: 0x7FF4, symBinAddr: 0x10000B7F0, symSize: 0x54 }
  - { offset: 0x187AA, size: 0x8, addend: 0x0, symName: __ZNKSt3__112basic_stringIcNS_11char_traitsIcEENS_9allocatorIcEEE15__get_long_sizeB8ne180100Ev, symObjAddr: 0x8048, symBinAddr: 0x10000B844, symSize: 0x28 }
  - { offset: 0x187D0, size: 0x8, addend: 0x0, symName: __ZNKSt3__112basic_stringIcNS_11char_traitsIcEENS_9allocatorIcEEE16__get_short_sizeB8ne180100Ev, symObjAddr: 0x8070, symBinAddr: 0x10000B86C, symSize: 0x34 }
  - { offset: 0x187F6, size: 0x8, addend: 0x0, symName: __ZNSt3__15stackIPN16BinarySearchTreeIiNS_4lessIiEEE4NodeENS_5dequeIS6_NS_9allocatorIS6_EEEEED2Ev, symObjAddr: 0x80A4, symBinAddr: 0x10000B8A0, symSize: 0x2C }
  - { offset: 0x18822, size: 0x8, addend: 0x0, symName: __ZNSt3__15dequeIPN16BinarySearchTreeIiNS_4lessIiEEE4NodeENS_9allocatorIS6_EEED1B8ne180100Ev, symObjAddr: 0x80D0, symBinAddr: 0x10000B8CC, symSize: 0x2C }
  - { offset: 0x1884C, size: 0x8, addend: 0x0, symName: __ZNSt3__15dequeIPN16BinarySearchTreeIiNS_4lessIiEEE4NodeENS_9allocatorIS6_EEED2B8ne180100Ev, symObjAddr: 0x80FC, symBinAddr: 0x10000B8F8, symSize: 0xA4 }
  - { offset: 0x188A2, size: 0x8, addend: 0x0, symName: __ZNSt3__15dequeIPN16BinarySearchTreeIiNS_4lessIiEEE4NodeENS_9allocatorIS6_EEE5clearEv, symObjAddr: 0x81A0, symBinAddr: 0x10000B99C, symSize: 0x170 }
  - { offset: 0x188FD, size: 0x8, addend: 0x0, symName: __ZNKSt3__15dequeIPN16BinarySearchTreeIiNS_4lessIiEEE4NodeENS_9allocatorIS6_EEE17__annotate_deleteB8ne180100Ev, symObjAddr: 0x8310, symBinAddr: 0x10000BB0C, symSize: 0x10 }
  - { offset: 0x18923, size: 0x8, addend: 0x0, symName: __ZNSt3__114__split_bufferIPPN16BinarySearchTreeIiNS_4lessIiEEE4NodeENS_9allocatorIS7_EEED1Ev, symObjAddr: 0x8320, symBinAddr: 0x10000BB1C, symSize: 0x2C }
  - { offset: 0x1894F, size: 0x8, addend: 0x0, symName: __ZNSt3__15dequeIPN16BinarySearchTreeIiNS_4lessIiEEE4NodeENS_9allocatorIS6_EEE5beginB8ne180100Ev, symObjAddr: 0x834C, symBinAddr: 0x10000BB48, symSize: 0xA8 }
  - { offset: 0x18984, size: 0x8, addend: 0x0, symName: __ZNSt3__116__deque_iteratorIPN16BinarySearchTreeIiNS_4lessIiEEE4NodeEPS6_RS6_PS7_lLl512EEppB8ne180100Ev, symObjAddr: 0x8428, symBinAddr: 0x10000BC24, symSize: 0x70 }
  - { offset: 0x189AA, size: 0x8, addend: 0x0, symName: __ZNSt3__114__split_bufferIPPN16BinarySearchTreeIiNS_4lessIiEEE4NodeENS_9allocatorIS7_EEED2Ev, symObjAddr: 0x84C8, symBinAddr: 0x10000BCC4, symSize: 0x80 }
  - { offset: 0x189D6, size: 0x8, addend: 0x0, symName: __ZNSt3__114__split_bufferIPPN16BinarySearchTreeIiNS_4lessIiEEE4NodeENS_9allocatorIS7_EEE5clearB8ne180100Ev, symObjAddr: 0x8548, symBinAddr: 0x10000BD44, symSize: 0x28 }
  - { offset: 0x189FC, size: 0x8, addend: 0x0, symName: __ZN16BinarySearchTreeIiNSt3__14lessIiEEE9Tree_gridC2ERKS3_, symObjAddr: 0x8570, symBinAddr: 0x10000BD6C, symSize: 0x90 }
  - { offset: 0x18A34, size: 0x8, addend: 0x0, symName: __ZNSt3__13setIN16BinarySearchTreeIiNS_4lessIiEEE16Tree_grid_squareENS2_IS5_EENS_9allocatorIS5_EEEC1B8ne180100Ev, symObjAddr: 0x8600, symBinAddr: 0x10000BDFC, symSize: 0x2C }
  - { offset: 0x18A5E, size: 0x8, addend: 0x0, symName: __ZN16BinarySearchTreeIiNSt3__14lessIiEEE9Tree_grid5buildEPKNS3_4NodeEii, symObjAddr: 0x862C, symBinAddr: 0x10000BE28, symSize: 0x3C8 }
  - { offset: 0x18B35, size: 0x8, addend: 0x0, symName: __ZNSt3__13setIN16BinarySearchTreeIiNS_4lessIiEEE16Tree_grid_squareENS2_IS5_EENS_9allocatorIS5_EEED1B8ne180100Ev, symObjAddr: 0x89F4, symBinAddr: 0x10000C1F0, symSize: 0x2C }
  - { offset: 0x18B5F, size: 0x8, addend: 0x0, symName: __ZNSt3__13setIN16BinarySearchTreeIiNS_4lessIiEEE16Tree_grid_squareENS2_IS5_EENS_9allocatorIS5_EEEC2B8ne180100Ev, symObjAddr: 0x8A20, symBinAddr: 0x10000C21C, symSize: 0x30 }
  - { offset: 0x18B89, size: 0x8, addend: 0x0, symName: __ZNSt3__16__treeIN16BinarySearchTreeIiNS_4lessIiEEE16Tree_grid_squareENS2_IS5_EENS_9allocatorIS5_EEEC1ERKS6_, symObjAddr: 0x8A50, symBinAddr: 0x10000C24C, symSize: 0x34 }
  - { offset: 0x18BC4, size: 0x8, addend: 0x0, symName: __ZNSt3__16__treeIN16BinarySearchTreeIiNS_4lessIiEEE16Tree_grid_squareENS2_IS5_EENS_9allocatorIS5_EEEC2ERKS6_, symObjAddr: 0x8A84, symBinAddr: 0x10000C280, symSize: 0x7C }
  - { offset: 0x18BFF, size: 0x8, addend: 0x0, symName: __ZNSt3__117__compressed_pairINS_15__tree_end_nodeIPNS_16__tree_node_baseIPvEEEENS_9allocatorINS_11__tree_nodeIN16BinarySearchTreeIiNS_4lessIiEEE16Tree_grid_squareES3_EEEEEC1B8ne180100ILb1EvEEv, symObjAddr: 0x8B00, symBinAddr: 0x10000C2FC, symSize: 0x2C }
  - { offset: 0x18C34, size: 0x8, addend: 0x0, symName: __ZNSt3__117__compressed_pairImNS_4lessIN16BinarySearchTreeIiNS1_IiEEE16Tree_grid_squareEEEEC1B8ne180100IiRKS6_EEOT_OT0_, symObjAddr: 0x8B2C, symBinAddr: 0x10000C328, symSize: 0x3C }
  - { offset: 0x18C8C, size: 0x8, addend: 0x0, symName: __ZNSt3__16__treeIN16BinarySearchTreeIiNS_4lessIiEEE16Tree_grid_squareENS2_IS5_EENS_9allocatorIS5_EEE10__end_nodeB8ne180100Ev, symObjAddr: 0x8B68, symBinAddr: 0x10000C364, symSize: 0x2C }
  - { offset: 0x18CB2, size: 0x8, addend: 0x0, symName: __ZNSt3__16__treeIN16BinarySearchTreeIiNS_4lessIiEEE16Tree_grid_squareENS2_IS5_EENS_9allocatorIS5_EEE12__begin_nodeB8ne180100Ev, symObjAddr: 0x8B94, symBinAddr: 0x10000C390, symSize: 0x14 }
  - { offset: 0x18CD8, size: 0x8, addend: 0x0, symName: __ZNSt3__117__compressed_pairINS_15__tree_end_nodeIPNS_16__tree_node_baseIPvEEEENS_9allocatorINS_11__tree_nodeIN16BinarySearchTreeIiNS_4lessIiEEE16Tree_grid_squareES3_EEEEEC2B8ne180100ILb1EvEEv, symObjAddr: 0x8BA8, symBinAddr: 0x10000C3A4, symSize: 0x34 }
  - { offset: 0x18D0D, size: 0x8, addend: 0x0, symName: __ZNSt3__122__compressed_pair_elemINS_15__tree_end_nodeIPNS_16__tree_node_baseIPvEEEELi0ELb0EEC2B8ne180100ENS_16__value_init_tagE, symObjAddr: 0x8BDC, symBinAddr: 0x10000C3D8, symSize: 0x2C }
  - { offset: 0x18D41, size: 0x8, addend: 0x0, symName: __ZNSt3__122__compressed_pair_elemINS_9allocatorINS_11__tree_nodeIN16BinarySearchTreeIiNS_4lessIiEEE16Tree_grid_squareEPvEEEELi1ELb1EEC2B8ne180100ENS_16__value_init_tagE, symObjAddr: 0x8C08, symBinAddr: 0x10000C404, symSize: 0x2C }
  - { offset: 0x18D75, size: 0x8, addend: 0x0, symName: __ZNSt3__115__tree_end_nodeIPNS_16__tree_node_baseIPvEEEC1B8ne180100Ev, symObjAddr: 0x8C34, symBinAddr: 0x10000C430, symSize: 0x2C }
  - { offset: 0x18D9F, size: 0x8, addend: 0x0, symName: __ZNSt3__115__tree_end_nodeIPNS_16__tree_node_baseIPvEEEC2B8ne180100Ev, symObjAddr: 0x8C60, symBinAddr: 0x10000C45C, symSize: 0x18 }
  - { offset: 0x18DC9, size: 0x8, addend: 0x0, symName: __ZNSt3__19allocatorINS_11__tree_nodeIN16BinarySearchTreeIiNS_4lessIiEEE16Tree_grid_squareEPvEEEC2B8ne180100Ev, symObjAddr: 0x8C78, symBinAddr: 0x10000C474, symSize: 0x2C }
  - { offset: 0x18DF3, size: 0x8, addend: 0x0, symName: __ZNSt3__116__non_trivial_ifILb1ENS_9allocatorINS_11__tree_nodeIN16BinarySearchTreeIiNS_4lessIiEEE16Tree_grid_squareEPvEEEEEC2B8ne180100Ev, symObjAddr: 0x8CA4, symBinAddr: 0x10000C4A0, symSize: 0x14 }
  - { offset: 0x18E1D, size: 0x8, addend: 0x0, symName: __ZNSt3__117__compressed_pairImNS_4lessIN16BinarySearchTreeIiNS1_IiEEE16Tree_grid_squareEEEEC2B8ne180100IiRKS6_EEOT_OT0_, symObjAddr: 0x8CB8, symBinAddr: 0x10000C4B4, symSize: 0x44 }
  - { offset: 0x18E75, size: 0x8, addend: 0x0, symName: __ZNSt3__122__compressed_pair_elemINS_4lessIN16BinarySearchTreeIiNS1_IiEEE16Tree_grid_squareEEELi1ELb1EEC2B8ne180100IRKS6_vEEOT_, symObjAddr: 0x8CFC, symBinAddr: 0x10000C4F8, symSize: 0x18 }
  - { offset: 0x18EB7, size: 0x8, addend: 0x0, symName: __ZNSt3__114pointer_traitsIPNS_15__tree_end_nodeIPNS_16__tree_node_baseIPvEEEEE10pointer_toB8ne180100ERS6_, symObjAddr: 0x8D14, symBinAddr: 0x10000C510, symSize: 0x14 }
  - { offset: 0x18EDA, size: 0x8, addend: 0x0, symName: __ZNSt3__117__compressed_pairINS_15__tree_end_nodeIPNS_16__tree_node_baseIPvEEEENS_9allocatorINS_11__tree_nodeIN16BinarySearchTreeIiNS_4lessIiEEE16Tree_grid_squareES3_EEEEE5firstB8ne180100Ev, symObjAddr: 0x8D28, symBinAddr: 0x10000C524, symSize: 0x24 }
  - { offset: 0x18F00, size: 0x8, addend: 0x0, symName: __ZNSt3__122__compressed_pair_elemINS_15__tree_end_nodeIPNS_16__tree_node_baseIPvEEEELi0ELb0EE5__getB8ne180100Ev, symObjAddr: 0x8D4C, symBinAddr: 0x10000C548, symSize: 0x14 }
  - { offset: 0x18F26, size: 0x8, addend: 0x0, symName: __ZNSt3__13setIN16BinarySearchTreeIiNS_4lessIiEEE16Tree_grid_squareENS2_IS5_EENS_9allocatorIS5_EEE6insertB8ne180100EOS5_, symObjAddr: 0x8D60, symBinAddr: 0x10000C55C, symSize: 0x4C }
  - { offset: 0x18F5B, size: 0x8, addend: 0x0, symName: __ZN16BinarySearchTreeIiNSt3__14lessIiEEE16Tree_grid_squareC1IiEEiiT_, symObjAddr: 0x8DAC, symBinAddr: 0x10000C5A8, symSize: 0x44 }
  - { offset: 0x18FB8, size: 0x8, addend: 0x0, symName: __ZN16BinarySearchTreeIiNSt3__14lessIiEEE9Tree_grid18calculate_x_offsetEii, symObjAddr: 0x8DF0, symBinAddr: 0x10000C5EC, symSize: 0x54 }
  - { offset: 0x18FE9, size: 0x8, addend: 0x0, symName: __ZN16BinarySearchTreeIiNSt3__14lessIiEEE16Tree_grid_squareC1IPKcEEiiT_, symObjAddr: 0x8E44, symBinAddr: 0x10000C640, symSize: 0x44 }
  - { offset: 0x19046, size: 0x8, addend: 0x0, symName: __ZNSt3__13setIN16BinarySearchTreeIiNS_4lessIiEEE16Tree_grid_squareENS2_IS5_EENS_9allocatorIS5_EEE4findB8ne180100ERKS5_, symObjAddr: 0x8E88, symBinAddr: 0x10000C684, symSize: 0x40 }
  - { offset: 0x1907B, size: 0x8, addend: 0x0, symName: __ZNSt3__13setIN16BinarySearchTreeIiNS_4lessIiEEE16Tree_grid_squareENS2_IS5_EENS_9allocatorIS5_EEE3endB8ne180100Ev, symObjAddr: 0x8EFC, symBinAddr: 0x10000C6F8, symSize: 0x38 }
  - { offset: 0x190A1, size: 0x8, addend: 0x0, symName: __ZNSt3__13setIN16BinarySearchTreeIiNS_4lessIiEEE16Tree_grid_squareENS2_IS5_EENS_9allocatorIS5_EEE5eraseB8ne180100ENS_21__tree_const_iteratorIS5_PNS_11__tree_nodeIS5_PvEElEE, symObjAddr: 0x8F34, symBinAddr: 0x10000C730, symSize: 0x48 }
  - { offset: 0x190D6, size: 0x8, addend: 0x0, symName: __ZNK16BinarySearchTreeIiNSt3__14lessIiEEE16Tree_grid_square5get_xEv, symObjAddr: 0x8F7C, symBinAddr: 0x10000C778, symSize: 0x18 }
  - { offset: 0x190FC, size: 0x8, addend: 0x0, symName: __ZNK16BinarySearchTreeIiNSt3__14lessIiEEE16Tree_grid_square5get_yEv, symObjAddr: 0x8F94, symBinAddr: 0x10000C790, symSize: 0x18 }
  - { offset: 0x19122, size: 0x8, addend: 0x0, symName: __ZNSt3__13setIN16BinarySearchTreeIiNS_4lessIiEEE16Tree_grid_squareENS2_IS5_EENS_9allocatorIS5_EEE6insertB8ne180100ERKS5_, symObjAddr: 0x8FAC, symBinAddr: 0x10000C7A8, symSize: 0x4C }
  - { offset: 0x19157, size: 0x8, addend: 0x0, symName: __ZNSt3__16__treeIN16BinarySearchTreeIiNS_4lessIiEEE16Tree_grid_squareENS2_IS5_EENS_9allocatorIS5_EEE15__insert_uniqueB8ne180100EOS5_, symObjAddr: 0x8FF8, symBinAddr: 0x10000C7F4, symSize: 0x50 }
  - { offset: 0x1918C, size: 0x8, addend: 0x0, symName: __ZNSt3__14pairINS_21__tree_const_iteratorIN16BinarySearchTreeIiNS_4lessIiEEE16Tree_grid_squareEPNS_11__tree_nodeIS6_PvEElEEbEC1B8ne180100INS_15__tree_iteratorIS6_SA_lEEbLi0EEEONS0_IT_T0_EE, symObjAddr: 0x9048, symBinAddr: 0x10000C844, symSize: 0x34 }
  - { offset: 0x191E2, size: 0x8, addend: 0x0, symName: __ZNSt3__16__treeIN16BinarySearchTreeIiNS_4lessIiEEE16Tree_grid_squareENS2_IS5_EENS_9allocatorIS5_EEE25__emplace_unique_key_argsIS5_JS5_EEENS_4pairINS_15__tree_iteratorIS5_PNS_11__tree_nodeIS5_PvEElEEbEERKT_DpOT0_, symObjAddr: 0x907C, symBinAddr: 0x10000C878, symSize: 0xF0 }
  - { offset: 0x1928E, size: 0x8, addend: 0x0, symName: __ZNSt3__122__tree_key_value_typesIN16BinarySearchTreeIiNS_4lessIiEEE16Tree_grid_squareEE9__get_keyB8ne180100ERKS5_, symObjAddr: 0x916C, symBinAddr: 0x10000C968, symSize: 0x14 }
  - { offset: 0x192B2, size: 0x8, addend: 0x0, symName: __ZNSt3__16__treeIN16BinarySearchTreeIiNS_4lessIiEEE16Tree_grid_squareENS2_IS5_EENS_9allocatorIS5_EEE12__find_equalIS5_EERPNS_16__tree_node_baseIPvEERPNS_15__tree_end_nodeISE_EERKT_, symObjAddr: 0x9180, symBinAddr: 0x10000C97C, symSize: 0x184 }
  - { offset: 0x1931F, size: 0x8, addend: 0x0, symName: __ZNSt3__16__treeIN16BinarySearchTreeIiNS_4lessIiEEE16Tree_grid_squareENS2_IS5_EENS_9allocatorIS5_EEE16__construct_nodeIJS5_EEENS_10unique_ptrINS_11__tree_nodeIS5_PvEENS_22__tree_node_destructorINS7_ISE_EEEEEEDpOT_, symObjAddr: 0x9304, symBinAddr: 0x10000CB00, symSize: 0x110 }
  - { offset: 0x19380, size: 0x8, addend: 0x0, symName: __ZNSt3__16__treeIN16BinarySearchTreeIiNS_4lessIiEEE16Tree_grid_squareENS2_IS5_EENS_9allocatorIS5_EEE16__insert_node_atEPNS_15__tree_end_nodeIPNS_16__tree_node_baseIPvEEEERSE_SE_, symObjAddr: 0x9414, symBinAddr: 0x10000CC10, symSize: 0xCC }
  - { offset: 0x193D5, size: 0x8, addend: 0x0, symName: __ZNKSt3__110unique_ptrINS_11__tree_nodeIN16BinarySearchTreeIiNS_4lessIiEEE16Tree_grid_squareEPvEENS_22__tree_node_destructorINS_9allocatorIS8_EEEEE3getB8ne180100Ev, symObjAddr: 0x94E0, symBinAddr: 0x10000CCDC, symSize: 0x28 }
  - { offset: 0x193FB, size: 0x8, addend: 0x0, symName: __ZNSt3__110unique_ptrINS_11__tree_nodeIN16BinarySearchTreeIiNS_4lessIiEEE16Tree_grid_squareEPvEENS_22__tree_node_destructorINS_9allocatorIS8_EEEEE7releaseB8ne180100Ev, symObjAddr: 0x9508, symBinAddr: 0x10000CD04, symSize: 0x44 }
  - { offset: 0x19430, size: 0x8, addend: 0x0, symName: __ZNSt3__110unique_ptrINS_11__tree_nodeIN16BinarySearchTreeIiNS_4lessIiEEE16Tree_grid_squareEPvEENS_22__tree_node_destructorINS_9allocatorIS8_EEEEED1B8ne180100Ev, symObjAddr: 0x954C, symBinAddr: 0x10000CD48, symSize: 0x2C }
  - { offset: 0x1945A, size: 0x8, addend: 0x0, symName: __ZNSt3__115__tree_iteratorIN16BinarySearchTreeIiNS_4lessIiEEE16Tree_grid_squareEPNS_11__tree_nodeIS5_PvEElEC1B8ne180100ES9_, symObjAddr: 0x9578, symBinAddr: 0x10000CD74, symSize: 0x34 }
  - { offset: 0x1949E, size: 0x8, addend: 0x0, symName: __ZNSt3__14pairINS_15__tree_iteratorIN16BinarySearchTreeIiNS_4lessIiEEE16Tree_grid_squareEPNS_11__tree_nodeIS6_PvEElEEbEC1B8ne180100ISB_RbLi0EEEOT_OT0_, symObjAddr: 0x95AC, symBinAddr: 0x10000CDA8, symSize: 0x3C }
  - { offset: 0x194FC, size: 0x8, addend: 0x0, symName: __ZNKSt3__16__treeIN16BinarySearchTreeIiNS_4lessIiEEE16Tree_grid_squareENS2_IS5_EENS_9allocatorIS5_EEE6__rootB8ne180100Ev, symObjAddr: 0x95E8, symBinAddr: 0x10000CDE4, symSize: 0x28 }
  - { offset: 0x19522, size: 0x8, addend: 0x0, symName: __ZNKSt3__16__treeIN16BinarySearchTreeIiNS_4lessIiEEE16Tree_grid_squareENS2_IS5_EENS_9allocatorIS5_EEE10__root_ptrB8ne180100Ev, symObjAddr: 0x9610, symBinAddr: 0x10000CE0C, symSize: 0x24 }
  - { offset: 0x19548, size: 0x8, addend: 0x0, symName: __ZNSt3__16__treeIN16BinarySearchTreeIiNS_4lessIiEEE16Tree_grid_squareENS2_IS5_EENS_9allocatorIS5_EEE10value_compB8ne180100Ev, symObjAddr: 0x9634, symBinAddr: 0x10000CE30, symSize: 0x28 }
  - { offset: 0x1956E, size: 0x8, addend: 0x0, symName: __ZNKSt3__14lessIN16BinarySearchTreeIiNS0_IiEEE16Tree_grid_squareEEclB8ne180100ERKS4_S7_, symObjAddr: 0x965C, symBinAddr: 0x10000CE58, symSize: 0x34 }
  - { offset: 0x195B2, size: 0x8, addend: 0x0, symName: __ZNKSt3__16__treeIN16BinarySearchTreeIiNS_4lessIiEEE16Tree_grid_squareENS2_IS5_EENS_9allocatorIS5_EEE10__end_nodeB8ne180100Ev, symObjAddr: 0x9690, symBinAddr: 0x10000CE8C, symSize: 0x2C }
  - { offset: 0x195D8, size: 0x8, addend: 0x0, symName: __ZNKSt3__117__compressed_pairINS_15__tree_end_nodeIPNS_16__tree_node_baseIPvEEEENS_9allocatorINS_11__tree_nodeIN16BinarySearchTreeIiNS_4lessIiEEE16Tree_grid_squareES3_EEEEE5firstB8ne180100Ev, symObjAddr: 0x96BC, symBinAddr: 0x10000CEB8, symSize: 0x24 }
  - { offset: 0x195FE, size: 0x8, addend: 0x0, symName: __ZNKSt3__122__compressed_pair_elemINS_15__tree_end_nodeIPNS_16__tree_node_baseIPvEEEELi0ELb0EE5__getB8ne180100Ev, symObjAddr: 0x96E0, symBinAddr: 0x10000CEDC, symSize: 0x14 }
  - { offset: 0x19624, size: 0x8, addend: 0x0, symName: __ZNSt3__117__compressed_pairImNS_4lessIN16BinarySearchTreeIiNS1_IiEEE16Tree_grid_squareEEEE6secondB8ne180100Ev, symObjAddr: 0x96F4, symBinAddr: 0x10000CEF0, symSize: 0x24 }
  - { offset: 0x1964A, size: 0x8, addend: 0x0, symName: __ZNSt3__122__compressed_pair_elemINS_4lessIN16BinarySearchTreeIiNS1_IiEEE16Tree_grid_squareEEELi1ELb1EE5__getB8ne180100Ev, symObjAddr: 0x9718, symBinAddr: 0x10000CF14, symSize: 0x14 }
  - { offset: 0x19670, size: 0x8, addend: 0x0, symName: __ZNK16BinarySearchTreeIiNSt3__14lessIiEEE16Tree_grid_squareltERKS4_, symObjAddr: 0x972C, symBinAddr: 0x10000CF28, symSize: 0xB0 }
  - { offset: 0x196A4, size: 0x8, addend: 0x0, symName: __ZNSt3__16__treeIN16BinarySearchTreeIiNS_4lessIiEEE16Tree_grid_squareENS2_IS5_EENS_9allocatorIS5_EEE12__node_allocB8ne180100Ev, symObjAddr: 0x97DC, symBinAddr: 0x10000CFD8, symSize: 0x28 }
  - { offset: 0x196CA, size: 0x8, addend: 0x0, symName: __ZNSt3__116allocator_traitsINS_9allocatorINS_11__tree_nodeIN16BinarySearchTreeIiNS_4lessIiEEE16Tree_grid_squareEPvEEEEE8allocateB8ne180100ERSA_m, symObjAddr: 0x9804, symBinAddr: 0x10000D000, symSize: 0x2C }
  - { offset: 0x196FD, size: 0x8, addend: 0x0, symName: __ZNSt3__122__tree_node_destructorINS_9allocatorINS_11__tree_nodeIN16BinarySearchTreeIiNS_4lessIiEEE16Tree_grid_squareEPvEEEEEC1B8ne180100ERSA_b, symObjAddr: 0x9830, symBinAddr: 0x10000D02C, symSize: 0x48 }
  - { offset: 0x1974B, size: 0x8, addend: 0x0, symName: __ZNSt3__110unique_ptrINS_11__tree_nodeIN16BinarySearchTreeIiNS_4lessIiEEE16Tree_grid_squareEPvEENS_22__tree_node_destructorINS_9allocatorIS8_EEEEEC1B8ne180100ILb1EvEEPS8_NS_16__dependent_typeINS_27__unique_ptr_deleter_sfinaeISC_EEXT_EE20__good_rval_ref_typeE, symObjAddr: 0x9878, symBinAddr: 0x10000D074, symSize: 0x3C }
  - { offset: 0x1979C, size: 0x8, addend: 0x0, symName: __ZNSt3__116allocator_traitsINS_9allocatorINS_11__tree_nodeIN16BinarySearchTreeIiNS_4lessIiEEE16Tree_grid_squareEPvEEEEE9constructB8ne180100IS7_JS7_EvEEvRSA_PT_DpOT0_, symObjAddr: 0x98B4, symBinAddr: 0x10000D0B0, symSize: 0x34 }
  - { offset: 0x197F3, size: 0x8, addend: 0x0, symName: __ZNSt3__122__tree_key_value_typesIN16BinarySearchTreeIiNS_4lessIiEEE16Tree_grid_squareEE9__get_ptrB8ne180100ERS5_, symObjAddr: 0x98E8, symBinAddr: 0x10000D0E4, symSize: 0x14 }
  - { offset: 0x19817, size: 0x8, addend: 0x0, symName: __ZNKSt3__110unique_ptrINS_11__tree_nodeIN16BinarySearchTreeIiNS_4lessIiEEE16Tree_grid_squareEPvEENS_22__tree_node_destructorINS_9allocatorIS8_EEEEEptB8ne180100Ev, symObjAddr: 0x98FC, symBinAddr: 0x10000D0F8, symSize: 0x28 }
  - { offset: 0x1983D, size: 0x8, addend: 0x0, symName: __ZNSt3__110unique_ptrINS_11__tree_nodeIN16BinarySearchTreeIiNS_4lessIiEEE16Tree_grid_squareEPvEENS_22__tree_node_destructorINS_9allocatorIS8_EEEEE11get_deleterB8ne180100Ev, symObjAddr: 0x9924, symBinAddr: 0x10000D120, symSize: 0x24 }
  - { offset: 0x19863, size: 0x8, addend: 0x0, symName: __ZNSt3__117__compressed_pairINS_15__tree_end_nodeIPNS_16__tree_node_baseIPvEEEENS_9allocatorINS_11__tree_nodeIN16BinarySearchTreeIiNS_4lessIiEEE16Tree_grid_squareES3_EEEEE6secondB8ne180100Ev, symObjAddr: 0x9948, symBinAddr: 0x10000D144, symSize: 0x24 }
  - { offset: 0x19889, size: 0x8, addend: 0x0, symName: __ZNSt3__122__compressed_pair_elemINS_9allocatorINS_11__tree_nodeIN16BinarySearchTreeIiNS_4lessIiEEE16Tree_grid_squareEPvEEEELi1ELb1EE5__getB8ne180100Ev, symObjAddr: 0x996C, symBinAddr: 0x10000D168, symSize: 0x14 }
  - { offset: 0x198AF, size: 0x8, addend: 0x0, symName: __ZNSt3__19allocatorINS_11__tree_nodeIN16BinarySearchTreeIiNS_4lessIiEEE16Tree_grid_squareEPvEEE8allocateB8ne180100Em, symObjAddr: 0x9980, symBinAddr: 0x10000D17C, symSize: 0x58 }
  - { offset: 0x198ED, size: 0x8, addend: 0x0, symName: __ZNSt3__116allocator_traitsINS_9allocatorINS_11__tree_nodeIN16BinarySearchTreeIiNS_4lessIiEEE16Tree_grid_squareEPvEEEEE8max_sizeB8ne180100ISA_vEEmRKSA_, symObjAddr: 0x99D8, symBinAddr: 0x10000D1D4, symSize: 0x24 }
  - { offset: 0x1991B, size: 0x8, addend: 0x0, symName: __ZNKSt3__19allocatorINS_11__tree_nodeIN16BinarySearchTreeIiNS_4lessIiEEE16Tree_grid_squareEPvEEE8max_sizeB8ne180100Ev, symObjAddr: 0x99FC, symBinAddr: 0x10000D1F8, symSize: 0x14 }
  - { offset: 0x19941, size: 0x8, addend: 0x0, symName: __ZNSt3__122__tree_node_destructorINS_9allocatorINS_11__tree_nodeIN16BinarySearchTreeIiNS_4lessIiEEE16Tree_grid_squareEPvEEEEEC2B8ne180100ERSA_b, symObjAddr: 0x9A10, symBinAddr: 0x10000D20C, symSize: 0x38 }
  - { offset: 0x19989, size: 0x8, addend: 0x0, symName: __ZNSt3__110unique_ptrINS_11__tree_nodeIN16BinarySearchTreeIiNS_4lessIiEEE16Tree_grid_squareEPvEENS_22__tree_node_destructorINS_9allocatorIS8_EEEEEC2B8ne180100ILb1EvEEPS8_NS_16__dependent_typeINS_27__unique_ptr_deleter_sfinaeISC_EEXT_EE20__good_rval_ref_typeE, symObjAddr: 0x9A48, symBinAddr: 0x10000D244, symSize: 0x48 }
  - { offset: 0x199DA, size: 0x8, addend: 0x0, symName: __ZNSt3__117__compressed_pairIPNS_11__tree_nodeIN16BinarySearchTreeIiNS_4lessIiEEE16Tree_grid_squareEPvEENS_22__tree_node_destructorINS_9allocatorIS8_EEEEEC1B8ne180100IRS9_SD_EEOT_OT0_, symObjAddr: 0x9A90, symBinAddr: 0x10000D28C, symSize: 0x3C }
  - { offset: 0x19A32, size: 0x8, addend: 0x0, symName: __ZNSt3__117__compressed_pairIPNS_11__tree_nodeIN16BinarySearchTreeIiNS_4lessIiEEE16Tree_grid_squareEPvEENS_22__tree_node_destructorINS_9allocatorIS8_EEEEEC2B8ne180100IRS9_SD_EEOT_OT0_, symObjAddr: 0x9ACC, symBinAddr: 0x10000D2C8, symSize: 0x48 }
  - { offset: 0x19A8A, size: 0x8, addend: 0x0, symName: __ZNSt3__122__compressed_pair_elemIPNS_11__tree_nodeIN16BinarySearchTreeIiNS_4lessIiEEE16Tree_grid_squareEPvEELi0ELb0EEC2B8ne180100IRS9_vEEOT_, symObjAddr: 0x9B14, symBinAddr: 0x10000D310, symSize: 0x24 }
  - { offset: 0x19ACC, size: 0x8, addend: 0x0, symName: __ZNSt3__122__compressed_pair_elemINS_22__tree_node_destructorINS_9allocatorINS_11__tree_nodeIN16BinarySearchTreeIiNS_4lessIiEEE16Tree_grid_squareEPvEEEEEELi1ELb0EEC2B8ne180100ISC_vEEOT_, symObjAddr: 0x9B38, symBinAddr: 0x10000D334, symSize: 0x24 }
  - { offset: 0x19B0E, size: 0x8, addend: 0x0, symName: __ZNSt3__19allocatorINS_11__tree_nodeIN16BinarySearchTreeIiNS_4lessIiEEE16Tree_grid_squareEPvEEE9constructB8ne180100IS6_JS6_EEEvPT_DpOT0_, symObjAddr: 0x9B5C, symBinAddr: 0x10000D358, symSize: 0x30 }
  - { offset: 0x19B64, size: 0x8, addend: 0x0, symName: __ZN16BinarySearchTreeIiNSt3__14lessIiEEE16Tree_grid_squareC1EOS4_, symObjAddr: 0x9B8C, symBinAddr: 0x10000D388, symSize: 0x34 }
  - { offset: 0x19B9A, size: 0x8, addend: 0x0, symName: __ZN16BinarySearchTreeIiNSt3__14lessIiEEE16Tree_grid_squareC2EOS4_, symObjAddr: 0x9BC0, symBinAddr: 0x10000D3BC, symSize: 0x48 }
  - { offset: 0x19BD0, size: 0x8, addend: 0x0, symName: __ZNSt3__112basic_stringIcNS_11char_traitsIcEENS_9allocatorIcEEEC1B8ne180100EOS5_, symObjAddr: 0x9C08, symBinAddr: 0x10000D404, symSize: 0x34 }
  - { offset: 0x19C09, size: 0x8, addend: 0x0, symName: __ZNSt3__112basic_stringIcNS_11char_traitsIcEENS_9allocatorIcEEEC2B8ne180100EOS5_, symObjAddr: 0x9C3C, symBinAddr: 0x10000D438, symSize: 0xB8 }
  - { offset: 0x19C73, size: 0x8, addend: 0x0, symName: __ZZNSt3__112basic_stringIcNS_11char_traitsIcEENS_9allocatorIcEEEC1B8ne180100EOS5_ENKUlRS5_E_clES7_, symObjAddr: 0x9CF4, symBinAddr: 0x10000D4F0, symSize: 0x40 }
  - { offset: 0x19CAC, size: 0x8, addend: 0x0, symName: __ZNKSt3__112basic_stringIcNS_11char_traitsIcEENS_9allocatorIcEEE17__annotate_deleteB8ne180100Ev, symObjAddr: 0x9D34, symBinAddr: 0x10000D530, symSize: 0x10 }
  - { offset: 0x19CD2, size: 0x8, addend: 0x0, symName: __ZNKSt3__117__compressed_pairIPNS_11__tree_nodeIN16BinarySearchTreeIiNS_4lessIiEEE16Tree_grid_squareEPvEENS_22__tree_node_destructorINS_9allocatorIS8_EEEEE5firstB8ne180100Ev, symObjAddr: 0x9D44, symBinAddr: 0x10000D540, symSize: 0x24 }
  - { offset: 0x19CF8, size: 0x8, addend: 0x0, symName: __ZNKSt3__122__compressed_pair_elemIPNS_11__tree_nodeIN16BinarySearchTreeIiNS_4lessIiEEE16Tree_grid_squareEPvEELi0ELb0EE5__getB8ne180100Ev, symObjAddr: 0x9D68, symBinAddr: 0x10000D564, symSize: 0x14 }
  - { offset: 0x19D1E, size: 0x8, addend: 0x0, symName: __ZNSt3__117__compressed_pairIPNS_11__tree_nodeIN16BinarySearchTreeIiNS_4lessIiEEE16Tree_grid_squareEPvEENS_22__tree_node_destructorINS_9allocatorIS8_EEEEE6secondB8ne180100Ev, symObjAddr: 0x9D7C, symBinAddr: 0x10000D578, symSize: 0x28 }
  - { offset: 0x19D44, size: 0x8, addend: 0x0, symName: __ZNSt3__122__compressed_pair_elemINS_22__tree_node_destructorINS_9allocatorINS_11__tree_nodeIN16BinarySearchTreeIiNS_4lessIiEEE16Tree_grid_squareEPvEEEEEELi1ELb0EE5__getB8ne180100Ev, symObjAddr: 0x9DA4, symBinAddr: 0x10000D5A0, symSize: 0x14 }
  - { offset: 0x19D6A, size: 0x8, addend: 0x0, symName: __ZNSt3__16__treeIN16BinarySearchTreeIiNS_4lessIiEEE16Tree_grid_squareENS2_IS5_EENS_9allocatorIS5_EEE4sizeB8ne180100Ev, symObjAddr: 0xA0E4, symBinAddr: 0x10000D8E0, symSize: 0x28 }
  - { offset: 0x19D90, size: 0x8, addend: 0x0, symName: __ZNKSt3__116__tree_node_baseIPvE15__parent_unsafeB8ne180100Ev, symObjAddr: 0xA10C, symBinAddr: 0x10000D908, symSize: 0x18 }
  - { offset: 0x19DB6, size: 0x8, addend: 0x0, symName: __ZNSt3__116__tree_node_baseIPvE12__set_parentB8ne180100EPS2_, symObjAddr: 0xA2F4, symBinAddr: 0x10000DAF0, symSize: 0x20 }
  - { offset: 0x19DEB, size: 0x8, addend: 0x0, symName: __ZNSt3__117__compressed_pairImNS_4lessIN16BinarySearchTreeIiNS1_IiEEE16Tree_grid_squareEEEE5firstB8ne180100Ev, symObjAddr: 0xA314, symBinAddr: 0x10000DB10, symSize: 0x24 }
  - { offset: 0x19E11, size: 0x8, addend: 0x0, symName: __ZNSt3__117__compressed_pairIPNS_11__tree_nodeIN16BinarySearchTreeIiNS_4lessIiEEE16Tree_grid_squareEPvEENS_22__tree_node_destructorINS_9allocatorIS8_EEEEE5firstB8ne180100Ev, symObjAddr: 0xA338, symBinAddr: 0x10000DB34, symSize: 0x24 }
  - { offset: 0x19E37, size: 0x8, addend: 0x0, symName: __ZNSt3__122__compressed_pair_elemIPNS_11__tree_nodeIN16BinarySearchTreeIiNS_4lessIiEEE16Tree_grid_squareEPvEELi0ELb0EE5__getB8ne180100Ev, symObjAddr: 0xA35C, symBinAddr: 0x10000DB58, symSize: 0x14 }
  - { offset: 0x19E5D, size: 0x8, addend: 0x0, symName: __ZNSt3__110unique_ptrINS_11__tree_nodeIN16BinarySearchTreeIiNS_4lessIiEEE16Tree_grid_squareEPvEENS_22__tree_node_destructorINS_9allocatorIS8_EEEEED2B8ne180100Ev, symObjAddr: 0xA370, symBinAddr: 0x10000DB6C, symSize: 0x30 }
  - { offset: 0x19E87, size: 0x8, addend: 0x0, symName: __ZNSt3__110unique_ptrINS_11__tree_nodeIN16BinarySearchTreeIiNS_4lessIiEEE16Tree_grid_squareEPvEENS_22__tree_node_destructorINS_9allocatorIS8_EEEEE5resetB8ne180100EPS8_, symObjAddr: 0xA3A0, symBinAddr: 0x10000DB9C, symSize: 0x78 }
  - { offset: 0x19ECB, size: 0x8, addend: 0x0, symName: __ZNSt3__122__tree_node_destructorINS_9allocatorINS_11__tree_nodeIN16BinarySearchTreeIiNS_4lessIiEEE16Tree_grid_squareEPvEEEEEclB8ne180100EPS9_, symObjAddr: 0xA418, symBinAddr: 0x10000DC14, symSize: 0x90 }
  - { offset: 0x19F00, size: 0x8, addend: 0x0, symName: __ZNSt3__116allocator_traitsINS_9allocatorINS_11__tree_nodeIN16BinarySearchTreeIiNS_4lessIiEEE16Tree_grid_squareEPvEEEEE7destroyB8ne180100IS7_vvEEvRSA_PT_, symObjAddr: 0xA4A8, symBinAddr: 0x10000DCA4, symSize: 0x28 }
  - { offset: 0x19F3B, size: 0x8, addend: 0x0, symName: __ZNSt3__116allocator_traitsINS_9allocatorINS_11__tree_nodeIN16BinarySearchTreeIiNS_4lessIiEEE16Tree_grid_squareEPvEEEEE10deallocateB8ne180100ERSA_PS9_m, symObjAddr: 0xA4D0, symBinAddr: 0x10000DCCC, symSize: 0x34 }
  - { offset: 0x19F7D, size: 0x8, addend: 0x0, symName: __ZNSt3__19allocatorINS_11__tree_nodeIN16BinarySearchTreeIiNS_4lessIiEEE16Tree_grid_squareEPvEEE10deallocateB8ne180100EPS8_m, symObjAddr: 0xA528, symBinAddr: 0x10000DD24, symSize: 0x40 }
  - { offset: 0x19FBF, size: 0x8, addend: 0x0, symName: __ZNSt3__115__tree_iteratorIN16BinarySearchTreeIiNS_4lessIiEEE16Tree_grid_squareEPNS_11__tree_nodeIS5_PvEElEC2B8ne180100ES9_, symObjAddr: 0xA568, symBinAddr: 0x10000DD64, symSize: 0x20 }
  - { offset: 0x19FF8, size: 0x8, addend: 0x0, symName: __ZNSt3__14pairINS_15__tree_iteratorIN16BinarySearchTreeIiNS_4lessIiEEE16Tree_grid_squareEPNS_11__tree_nodeIS6_PvEElEEbEC2B8ne180100ISB_RbLi0EEEOT_OT0_, symObjAddr: 0xA588, symBinAddr: 0x10000DD84, symSize: 0x38 }
  - { offset: 0x1A056, size: 0x8, addend: 0x0, symName: __ZNSt3__14pairINS_21__tree_const_iteratorIN16BinarySearchTreeIiNS_4lessIiEEE16Tree_grid_squareEPNS_11__tree_nodeIS6_PvEElEEbEC2B8ne180100INS_15__tree_iteratorIS6_SA_lEEbLi0EEEONS0_IT_T0_EE, symObjAddr: 0xA5C0, symBinAddr: 0x10000DDBC, symSize: 0x50 }
  - { offset: 0x1A0A6, size: 0x8, addend: 0x0, symName: __ZNSt3__121__tree_const_iteratorIN16BinarySearchTreeIiNS_4lessIiEEE16Tree_grid_squareEPNS_11__tree_nodeIS5_PvEElEC1B8ne180100ENS_15__tree_iteratorIS5_S9_lEE, symObjAddr: 0xA610, symBinAddr: 0x10000DE0C, symSize: 0x34 }
  - { offset: 0x1A0DF, size: 0x8, addend: 0x0, symName: __ZNSt3__121__tree_const_iteratorIN16BinarySearchTreeIiNS_4lessIiEEE16Tree_grid_squareEPNS_11__tree_nodeIS5_PvEElEC2B8ne180100ENS_15__tree_iteratorIS5_S9_lEE, symObjAddr: 0xA644, symBinAddr: 0x10000DE40, symSize: 0x20 }
  - { offset: 0x1A118, size: 0x8, addend: 0x0, symName: __ZN16BinarySearchTreeIiNSt3__14lessIiEEE16Tree_grid_squareC2IiEEiiT_, symObjAddr: 0xA664, symBinAddr: 0x10000DE60, symSize: 0xE4 }
  - { offset: 0x1A18A, size: 0x8, addend: 0x0, symName: __ZN16BinarySearchTreeIiNSt3__14lessIiEEE16Tree_grid_squareC2IPKcEEiiT_, symObjAddr: 0xA7B8, symBinAddr: 0x10000DFB4, symSize: 0xE4 }
  - { offset: 0x1A1FC, size: 0x8, addend: 0x0, symName: __ZNSt3__16__treeIN16BinarySearchTreeIiNS_4lessIiEEE16Tree_grid_squareENS2_IS5_EENS_9allocatorIS5_EEE4findIS5_EENS_15__tree_iteratorIS5_PNS_11__tree_nodeIS5_PvEElEERKT_, symObjAddr: 0xA89C, symBinAddr: 0x10000E098, symSize: 0xF8 }
  - { offset: 0x1A24B, size: 0x8, addend: 0x0, symName: __ZNSt3__16__treeIN16BinarySearchTreeIiNS_4lessIiEEE16Tree_grid_squareENS2_IS5_EENS_9allocatorIS5_EEE13__lower_boundIS5_EENS_15__tree_iteratorIS5_PNS_11__tree_nodeIS5_PvEElEERKT_SF_PNS_15__tree_end_nodeIPNS_16__tree_node_baseISD_EEEE, symObjAddr: 0xA994, symBinAddr: 0x10000E190, symSize: 0xA4 }
  - { offset: 0x1A2A9, size: 0x8, addend: 0x0, symName: __ZNSt3__16__treeIN16BinarySearchTreeIiNS_4lessIiEEE16Tree_grid_squareENS2_IS5_EENS_9allocatorIS5_EEE3endB8ne180100Ev, symObjAddr: 0xAA6C, symBinAddr: 0x10000E268, symSize: 0x34 }
  - { offset: 0x1A2CF, size: 0x8, addend: 0x0, symName: __ZNKSt3__115__tree_iteratorIN16BinarySearchTreeIiNS_4lessIiEEE16Tree_grid_squareEPNS_11__tree_nodeIS5_PvEElEdeB8ne180100Ev, symObjAddr: 0xAAA0, symBinAddr: 0x10000E29C, symSize: 0x28 }
  - { offset: 0x1A2F5, size: 0x8, addend: 0x0, symName: __ZNSt3__115__tree_iteratorIN16BinarySearchTreeIiNS_4lessIiEEE16Tree_grid_squareEPNS_11__tree_nodeIS5_PvEElEC1B8ne180100EPNS_15__tree_end_nodeIPNS_16__tree_node_baseIS7_EEEE, symObjAddr: 0xAAC8, symBinAddr: 0x10000E2C4, symSize: 0x34 }
  - { offset: 0x1A32E, size: 0x8, addend: 0x0, symName: __ZNSt3__115__tree_iteratorIN16BinarySearchTreeIiNS_4lessIiEEE16Tree_grid_squareEPNS_11__tree_nodeIS5_PvEElEC2B8ne180100EPNS_15__tree_end_nodeIPNS_16__tree_node_baseIS7_EEEE, symObjAddr: 0xAAFC, symBinAddr: 0x10000E2F8, symSize: 0x20 }
  - { offset: 0x1A367, size: 0x8, addend: 0x0, symName: __ZNKSt3__115__tree_iteratorIN16BinarySearchTreeIiNS_4lessIiEEE16Tree_grid_squareEPNS_11__tree_nodeIS5_PvEElE8__get_npB8ne180100Ev, symObjAddr: 0xAB4C, symBinAddr: 0x10000E348, symSize: 0x18 }
  - { offset: 0x1A38D, size: 0x8, addend: 0x0, symName: __ZNSt3__16__treeIN16BinarySearchTreeIiNS_4lessIiEEE16Tree_grid_squareENS2_IS5_EENS_9allocatorIS5_EEE5eraseENS_21__tree_const_iteratorIS5_PNS_11__tree_nodeIS5_PvEElEE, symObjAddr: 0xAB94, symBinAddr: 0x10000E390, symSize: 0x98 }
  - { offset: 0x1A3F1, size: 0x8, addend: 0x0, symName: __ZNKSt3__121__tree_const_iteratorIN16BinarySearchTreeIiNS_4lessIiEEE16Tree_grid_squareEPNS_11__tree_nodeIS5_PvEElE8__get_npB8ne180100Ev, symObjAddr: 0xAC2C, symBinAddr: 0x10000E428, symSize: 0x18 }
  - { offset: 0x1A417, size: 0x8, addend: 0x0, symName: __ZNSt3__16__treeIN16BinarySearchTreeIiNS_4lessIiEEE16Tree_grid_squareENS2_IS5_EENS_9allocatorIS5_EEE21__remove_node_pointerEPNS_11__tree_nodeIS5_PvEE, symObjAddr: 0xAC44, symBinAddr: 0x10000E440, symSize: 0xB4 }
  - { offset: 0x1A45D, size: 0x8, addend: 0x0, symName: __ZNKSt3__121__tree_const_iteratorIN16BinarySearchTreeIiNS_4lessIiEEE16Tree_grid_squareEPNS_11__tree_nodeIS5_PvEElEdeB8ne180100Ev, symObjAddr: 0xACF8, symBinAddr: 0x10000E4F4, symSize: 0x28 }
  - { offset: 0x1A483, size: 0x8, addend: 0x0, symName: __ZNSt3__115__tree_iteratorIN16BinarySearchTreeIiNS_4lessIiEEE16Tree_grid_squareEPNS_11__tree_nodeIS5_PvEElEppB8ne180100Ev, symObjAddr: 0xAD20, symBinAddr: 0x10000E51C, symSize: 0x38 }
  - { offset: 0x1A4A9, size: 0x8, addend: 0x0, symName: __ZNSt3__16__treeIN16BinarySearchTreeIiNS_4lessIiEEE16Tree_grid_squareENS2_IS5_EENS_9allocatorIS5_EEE15__insert_uniqueB8ne180100ERKS5_, symObjAddr: 0xB588, symBinAddr: 0x10000ED84, symSize: 0x50 }
  - { offset: 0x1A4DE, size: 0x8, addend: 0x0, symName: __ZNSt3__16__treeIN16BinarySearchTreeIiNS_4lessIiEEE16Tree_grid_squareENS2_IS5_EENS_9allocatorIS5_EEE25__emplace_unique_key_argsIS5_JRKS5_EEENS_4pairINS_15__tree_iteratorIS5_PNS_11__tree_nodeIS5_PvEElEEbEERKT_DpOT0_, symObjAddr: 0xB5D8, symBinAddr: 0x10000EDD4, symSize: 0xF0 }
  - { offset: 0x1A58A, size: 0x8, addend: 0x0, symName: __ZNSt3__16__treeIN16BinarySearchTreeIiNS_4lessIiEEE16Tree_grid_squareENS2_IS5_EENS_9allocatorIS5_EEE16__construct_nodeIJRKS5_EEENS_10unique_ptrINS_11__tree_nodeIS5_PvEENS_22__tree_node_destructorINS7_ISG_EEEEEEDpOT_, symObjAddr: 0xB6C8, symBinAddr: 0x10000EEC4, symSize: 0x108 }
  - { offset: 0x1A5EB, size: 0x8, addend: 0x0, symName: __ZNSt3__116allocator_traitsINS_9allocatorINS_11__tree_nodeIN16BinarySearchTreeIiNS_4lessIiEEE16Tree_grid_squareEPvEEEEE9constructB8ne180100IS7_JRKS7_EvEEvRSA_PT_DpOT0_, symObjAddr: 0xB7D0, symBinAddr: 0x10000EFCC, symSize: 0x34 }
  - { offset: 0x1A642, size: 0x8, addend: 0x0, symName: __ZNSt3__19allocatorINS_11__tree_nodeIN16BinarySearchTreeIiNS_4lessIiEEE16Tree_grid_squareEPvEEE9constructB8ne180100IS6_JRKS6_EEEvPT_DpOT0_, symObjAddr: 0xB804, symBinAddr: 0x10000F000, symSize: 0x30 }
  - { offset: 0x1A698, size: 0x8, addend: 0x0, symName: __ZN16BinarySearchTreeIiNSt3__14lessIiEEE16Tree_grid_squareC1ERKS4_, symObjAddr: 0xB834, symBinAddr: 0x10000F030, symSize: 0x34 }
  - { offset: 0x1A6CE, size: 0x8, addend: 0x0, symName: __ZN16BinarySearchTreeIiNSt3__14lessIiEEE16Tree_grid_squareC2ERKS4_, symObjAddr: 0xB868, symBinAddr: 0x10000F064, symSize: 0x48 }
  - { offset: 0x1A704, size: 0x8, addend: 0x0, symName: __ZNSt3__13setIN16BinarySearchTreeIiNS_4lessIiEEE16Tree_grid_squareENS2_IS5_EENS_9allocatorIS5_EEED2B8ne180100Ev, symObjAddr: 0xB8B0, symBinAddr: 0x10000F0AC, symSize: 0x2C }
  - { offset: 0x1A72E, size: 0x8, addend: 0x0, symName: __ZNSt3__16__treeIN16BinarySearchTreeIiNS_4lessIiEEE16Tree_grid_squareENS2_IS5_EENS_9allocatorIS5_EEED1Ev, symObjAddr: 0xB8DC, symBinAddr: 0x10000F0D8, symSize: 0x2C }
  - { offset: 0x1A75A, size: 0x8, addend: 0x0, symName: __ZNSt3__16__treeIN16BinarySearchTreeIiNS_4lessIiEEE16Tree_grid_squareENS2_IS5_EENS_9allocatorIS5_EEED2Ev, symObjAddr: 0xB908, symBinAddr: 0x10000F104, symSize: 0x38 }
  - { offset: 0x1A786, size: 0x8, addend: 0x0, symName: __ZNSt3__16__treeIN16BinarySearchTreeIiNS_4lessIiEEE16Tree_grid_squareENS2_IS5_EENS_9allocatorIS5_EEE7destroyEPNS_11__tree_nodeIS5_PvEE, symObjAddr: 0xB940, symBinAddr: 0x10000F13C, symSize: 0xA4 }
  - { offset: 0x1A7D2, size: 0x8, addend: 0x0, symName: __ZNSt3__19basic_iosIcNS_11char_traitsIcEEEC2B8ne180100Ev, symObjAddr: 0xB9E4, symBinAddr: 0x10000F1E0, symSize: 0x3C }
  - { offset: 0x1A7FC, size: 0x8, addend: 0x0, symName: __ZNSt3__113basic_ostreamIcNS_11char_traitsIcEEEC2B8ne180100EPNS_15basic_streambufIcS2_EE, symObjAddr: 0xBA20, symBinAddr: 0x10000F21C, symSize: 0x60 }
  - { offset: 0x1A841, size: 0x8, addend: 0x0, symName: __ZNSt3__115basic_stringbufIcNS_11char_traitsIcEENS_9allocatorIcEEEC1B8ne180100Ej, symObjAddr: 0xBA80, symBinAddr: 0x10000F27C, symSize: 0x34 }
  - { offset: 0x1A87A, size: 0x8, addend: 0x0, symName: __ZNSt3__18ios_baseC2B8ne180100Ev, symObjAddr: 0xBAB4, symBinAddr: 0x10000F2B0, symSize: 0x24 }
  - { offset: 0x1A8A4, size: 0x8, addend: 0x0, symName: __ZNSt3__19basic_iosIcNS_11char_traitsIcEEE4initB8ne180100EPNS_15basic_streambufIcS2_EE, symObjAddr: 0xBAD8, symBinAddr: 0x10000F2D4, symSize: 0x44 }
  - { offset: 0x1A8DB, size: 0x8, addend: 0x0, symName: __ZNSt3__115basic_stringbufIcNS_11char_traitsIcEENS_9allocatorIcEEEC2B8ne180100Ej, symObjAddr: 0xBB1C, symBinAddr: 0x10000F318, symSize: 0x58 }
  - { offset: 0x1A914, size: 0x8, addend: 0x0, symName: __ZNKSt3__13setIN16BinarySearchTreeIiNS_4lessIiEEE16Tree_grid_squareENS2_IS5_EENS_9allocatorIS5_EEE4findB8ne180100ERKS5_, symObjAddr: 0xBB74, symBinAddr: 0x10000F370, symSize: 0x34 }
  - { offset: 0x1A949, size: 0x8, addend: 0x0, symName: __ZNKSt3__13setIN16BinarySearchTreeIiNS_4lessIiEEE16Tree_grid_squareENS2_IS5_EENS_9allocatorIS5_EEE3endB8ne180100Ev, symObjAddr: 0xBBA8, symBinAddr: 0x10000F3A4, symSize: 0x2C }
  - { offset: 0x1A96F, size: 0x8, addend: 0x0, symName: __ZNKSt3__16__treeIN16BinarySearchTreeIiNS_4lessIiEEE16Tree_grid_squareENS2_IS5_EENS_9allocatorIS5_EEE4findIS5_EENS_21__tree_const_iteratorIS5_PNS_11__tree_nodeIS5_PvEElEERKT_, symObjAddr: 0xBBD4, symBinAddr: 0x10000F3D0, symSize: 0xF8 }
  - { offset: 0x1A9BE, size: 0x8, addend: 0x0, symName: __ZNKSt3__16__treeIN16BinarySearchTreeIiNS_4lessIiEEE16Tree_grid_squareENS2_IS5_EENS_9allocatorIS5_EEE13__lower_boundIS5_EENS_21__tree_const_iteratorIS5_PNS_11__tree_nodeIS5_PvEElEERKT_SF_PNS_15__tree_end_nodeIPNS_16__tree_node_baseISD_EEEE, symObjAddr: 0xBCCC, symBinAddr: 0x10000F4C8, symSize: 0xA4 }
  - { offset: 0x1AA1C, size: 0x8, addend: 0x0, symName: __ZNKSt3__16__treeIN16BinarySearchTreeIiNS_4lessIiEEE16Tree_grid_squareENS2_IS5_EENS_9allocatorIS5_EEE3endB8ne180100Ev, symObjAddr: 0xBD70, symBinAddr: 0x10000F56C, symSize: 0x34 }
  - { offset: 0x1AA42, size: 0x8, addend: 0x0, symName: __ZNKSt3__16__treeIN16BinarySearchTreeIiNS_4lessIiEEE16Tree_grid_squareENS2_IS5_EENS_9allocatorIS5_EEE10value_compB8ne180100Ev, symObjAddr: 0xBDA4, symBinAddr: 0x10000F5A0, symSize: 0x28 }
  - { offset: 0x1AA68, size: 0x8, addend: 0x0, symName: __ZNSt3__121__tree_const_iteratorIN16BinarySearchTreeIiNS_4lessIiEEE16Tree_grid_squareEPNS_11__tree_nodeIS5_PvEElEC1B8ne180100EPNS_15__tree_end_nodeIPNS_16__tree_node_baseIS7_EEEE, symObjAddr: 0xBDCC, symBinAddr: 0x10000F5C8, symSize: 0x34 }
  - { offset: 0x1AAA1, size: 0x8, addend: 0x0, symName: __ZNSt3__121__tree_const_iteratorIN16BinarySearchTreeIiNS_4lessIiEEE16Tree_grid_squareEPNS_11__tree_nodeIS5_PvEElEC2B8ne180100EPNS_15__tree_end_nodeIPNS_16__tree_node_baseIS7_EEEE, symObjAddr: 0xBE00, symBinAddr: 0x10000F5FC, symSize: 0x20 }
  - { offset: 0x1AADA, size: 0x8, addend: 0x0, symName: __ZNKSt3__117__compressed_pairImNS_4lessIN16BinarySearchTreeIiNS1_IiEEE16Tree_grid_squareEEEE6secondB8ne180100Ev, symObjAddr: 0xBE20, symBinAddr: 0x10000F61C, symSize: 0x24 }
  - { offset: 0x1AB00, size: 0x8, addend: 0x0, symName: __ZNKSt3__122__compressed_pair_elemINS_4lessIN16BinarySearchTreeIiNS1_IiEEE16Tree_grid_squareEEELi1ELb1EE5__getB8ne180100Ev, symObjAddr: 0xBE44, symBinAddr: 0x10000F640, symSize: 0x14 }
  - { offset: 0x1AB26, size: 0x8, addend: 0x0, symName: __ZN16BinarySearchTreeIiNSt3__14lessIiEEE16Tree_grid_squareC2Eii, symObjAddr: 0xBE58, symBinAddr: 0x10000F654, symSize: 0x48 }
  - { offset: 0x1AB6C, size: 0x8, addend: 0x0, symName: __ZN16BinarySearchTreeIiNSt3__14lessIiEEE16Tree_grid_squareD2Ev, symObjAddr: 0xBEA0, symBinAddr: 0x10000F69C, symSize: 0x30 }
  - { offset: 0x1AB99, size: 0x8, addend: 0x0, symName: __ZNSt3__18ios_base4setfB8ne180100Ejj, symObjAddr: 0xBED0, symBinAddr: 0x10000F6CC, symSize: 0x5C }
  - { offset: 0x1ABEE, size: 0x8, addend: 0x0, symName: __ZNSt3__18ios_base6unsetfB8ne180100Ej, symObjAddr: 0xBF2C, symBinAddr: 0x10000F728, symSize: 0x28 }
  - { offset: 0x1AC25, size: 0x8, addend: 0x0, symName: __ZNSt3__18__iom_t6C1B8ne180100Ei, symObjAddr: 0xBF54, symBinAddr: 0x10000F750, symSize: 0x34 }
  - { offset: 0x1AC5D, size: 0x8, addend: 0x0, symName: __ZNSt3__18__iom_t6C2B8ne180100Ei, symObjAddr: 0xBF88, symBinAddr: 0x10000F784, symSize: 0x20 }
  - { offset: 0x1AC95, size: 0x8, addend: 0x0, symName: __ZNSt3__119basic_ostringstreamIcNS_11char_traitsIcEENS_9allocatorIcEEED2Ev, symObjAddr: 0xBFA8, symBinAddr: 0x10000F7A4, symSize: 0x64 }
  - { offset: 0x1ACCF, size: 0x8, addend: 0x0, symName: __ZTv0_n24_NSt3__119basic_ostringstreamIcNS_11char_traitsIcEENS_9allocatorIcEEED1Ev, symObjAddr: 0xC00C, symBinAddr: 0x10000F808, symSize: 0x28 }
  - { offset: 0x1ACEB, size: 0x8, addend: 0x0, symName: __ZNSt3__115basic_stringbufIcNS_11char_traitsIcEENS_9allocatorIcEEED1Ev, symObjAddr: 0xC034, symBinAddr: 0x10000F830, symSize: 0x2C }
  - { offset: 0x1AD18, size: 0x8, addend: 0x0, symName: __ZNSt3__115basic_stringbufIcNS_11char_traitsIcEENS_9allocatorIcEEED2Ev, symObjAddr: 0xC060, symBinAddr: 0x10000F85C, symSize: 0x48 }
  - { offset: 0x1AD45, size: 0x8, addend: 0x0, symName: __ZN16BinarySearchTreeIiNSt3__14lessIiEEE9Tree_gridD2Ev, symObjAddr: 0xC0A8, symBinAddr: 0x10000F8A4, symSize: 0x2C }
  - { offset: 0x1AD72, size: 0x8, addend: 0x0, symName: __ZNSt3__112basic_stringIcNS_11char_traitsIcEENS_9allocatorIcEEE13__move_assignB8ne180100ERS5_NS_17integral_constantIbLb1EEE, symObjAddr: 0xC0D4, symBinAddr: 0x10000F8D0, symSize: 0x17C }
  - { offset: 0x1ADD3, size: 0x8, addend: 0x0, symName: __ZNSt3__116allocator_traitsINS_9allocatorIcEEE10deallocateB8ne180100ERS2_Pcm, symObjAddr: 0xC250, symBinAddr: 0x10000FA4C, symSize: 0x34 }
  - { offset: 0x1AE15, size: 0x8, addend: 0x0, symName: __ZNSt3__112basic_stringIcNS_11char_traitsIcEENS_9allocatorIcEEE7__allocB8ne180100Ev, symObjAddr: 0xC284, symBinAddr: 0x10000FA80, symSize: 0x24 }
  - { offset: 0x1AE3B, size: 0x8, addend: 0x0, symName: __ZNKSt3__112basic_stringIcNS_11char_traitsIcEENS_9allocatorIcEEE14__get_long_capB8ne180100Ev, symObjAddr: 0xC2A8, symBinAddr: 0x10000FAA4, symSize: 0x30 }
  - { offset: 0x1AE61, size: 0x8, addend: 0x0, symName: __ZNSt3__112basic_stringIcNS_11char_traitsIcEENS_9allocatorIcEEE19__move_assign_allocB8ne180100ERS5_, symObjAddr: 0xC2D8, symBinAddr: 0x10000FAD4, symSize: 0x2C }
  - { offset: 0x1AE96, size: 0x8, addend: 0x0, symName: __ZNSt3__112basic_stringIcNS_11char_traitsIcEENS_9allocatorIcEEE16__set_short_sizeB8ne180100Em, symObjAddr: 0xC304, symBinAddr: 0x10000FB00, symSize: 0x78 }
  - { offset: 0x1AECB, size: 0x8, addend: 0x0, symName: __ZNSt3__111char_traitsIcE6assignB8ne180100ERcRKc, symObjAddr: 0xC37C, symBinAddr: 0x10000FB78, symSize: 0x24 }
  - { offset: 0x1AEFC, size: 0x8, addend: 0x0, symName: __ZNKSt3__112basic_stringIcNS_11char_traitsIcEENS_9allocatorIcEEE17__annotate_shrinkB8ne180100Em, symObjAddr: 0xC3A0, symBinAddr: 0x10000FB9C, symSize: 0x14 }
  - { offset: 0x1AF31, size: 0x8, addend: 0x0, symName: __ZNSt3__19allocatorIcE10deallocateB8ne180100EPcm, symObjAddr: 0xC3B4, symBinAddr: 0x10000FBB0, symSize: 0x40 }
  - { offset: 0x1AF73, size: 0x8, addend: 0x0, symName: __ZNSt3__117__compressed_pairINS_12basic_stringIcNS_11char_traitsIcEENS_9allocatorIcEEE5__repES5_E6secondB8ne180100Ev, symObjAddr: 0xC3F4, symBinAddr: 0x10000FBF0, symSize: 0x24 }
  - { offset: 0x1AF99, size: 0x8, addend: 0x0, symName: __ZNSt3__122__compressed_pair_elemINS_9allocatorIcEELi1ELb1EE5__getB8ne180100Ev, symObjAddr: 0xC418, symBinAddr: 0x10000FC14, symSize: 0x14 }
  - { offset: 0x1AFBF, size: 0x8, addend: 0x0, symName: __ZNSt3__112basic_stringIcNS_11char_traitsIcEENS_9allocatorIcEEE19__move_assign_allocB8ne180100ERS5_NS_17integral_constantIbLb1EEE, symObjAddr: 0xC42C, symBinAddr: 0x10000FC28, symSize: 0x38 }
  - { offset: 0x1B000, size: 0x8, addend: 0x0, symName: __ZNK16BinarySearchTreeI4Duck14DuckWealthLessE17get_max_elt_widthEv, symObjAddr: 0xC464, symBinAddr: 0x10000FC60, symSize: 0x1AC }
  - { offset: 0x1B1AA, size: 0x8, addend: 0x0, symName: __ZN16BinarySearchTreeI4Duck14DuckWealthLessE9Tree_gridC1ERKS2_, symObjAddr: 0xC610, symBinAddr: 0x10000FE0C, symSize: 0x34 }
  - { offset: 0x1B1E2, size: 0x8, addend: 0x0, symName: __ZNK16BinarySearchTreeI4Duck14DuckWealthLessE9Tree_grid14get_leftmost_xEv, symObjAddr: 0xC644, symBinAddr: 0x10000FE40, symSize: 0x18 }
  - { offset: 0x1B208, size: 0x8, addend: 0x0, symName: __ZNK16BinarySearchTreeI4Duck14DuckWealthLessE9Tree_grid15get_rightmost_xEv, symObjAddr: 0xC65C, symBinAddr: 0x10000FE58, symSize: 0x18 }
  - { offset: 0x1B22E, size: 0x8, addend: 0x0, symName: __ZNK16BinarySearchTreeI4Duck14DuckWealthLessE9Tree_grid14get_num_levelsEv, symObjAddr: 0xC674, symBinAddr: 0x10000FE70, symSize: 0x18 }
  - { offset: 0x1B254, size: 0x8, addend: 0x0, symName: __ZNK16BinarySearchTreeI4Duck14DuckWealthLessE9Tree_grid4findERKNS2_16Tree_grid_squareE, symObjAddr: 0xC68C, symBinAddr: 0x10000FE88, symSize: 0x80 }
  - { offset: 0x1B296, size: 0x8, addend: 0x0, symName: __ZN16BinarySearchTreeI4Duck14DuckWealthLessE16Tree_grid_squareC1Eii, symObjAddr: 0xC70C, symBinAddr: 0x10000FF08, symSize: 0x3C }
  - { offset: 0x1B2DC, size: 0x8, addend: 0x0, symName: __ZN16BinarySearchTreeI4Duck14DuckWealthLessE16Tree_grid_squareD1Ev, symObjAddr: 0xC748, symBinAddr: 0x10000FF44, symSize: 0x2C }
  - { offset: 0x1B309, size: 0x8, addend: 0x0, symName: __ZNK16BinarySearchTreeI4Duck14DuckWealthLessE16Tree_grid_square9get_valueEv, symObjAddr: 0xC774, symBinAddr: 0x10000FF70, symSize: 0x3C }
  - { offset: 0x1B32F, size: 0x8, addend: 0x0, symName: __ZN16BinarySearchTreeI4Duck14DuckWealthLessE9Tree_gridD1Ev, symObjAddr: 0xC7B0, symBinAddr: 0x10000FFAC, symSize: 0x2C }
  - { offset: 0x1B39B, size: 0x8, addend: 0x0, symName: __ZNSt3__15stackIPN16BinarySearchTreeI4Duck14DuckWealthLessE4NodeENS_5dequeIS6_NS_9allocatorIS6_EEEEEC1B8ne180100Ev, symObjAddr: 0xC7DC, symBinAddr: 0x10000FFD8, symSize: 0x2C }
  - { offset: 0x1B3C5, size: 0x8, addend: 0x0, symName: __ZNSt3__15stackIPN16BinarySearchTreeI4Duck14DuckWealthLessE4NodeENS_5dequeIS6_NS_9allocatorIS6_EEEEE4pushB8ne180100ERKS6_, symObjAddr: 0xC808, symBinAddr: 0x100010004, symSize: 0x2C }
  - { offset: 0x1B3F9, size: 0x8, addend: 0x0, symName: __ZNKSt3__15stackIPN16BinarySearchTreeI4Duck14DuckWealthLessE4NodeENS_5dequeIS6_NS_9allocatorIS6_EEEEE5emptyB8ne180100Ev, symObjAddr: 0xC834, symBinAddr: 0x100010030, symSize: 0x28 }
  - { offset: 0x1B41F, size: 0x8, addend: 0x0, symName: __ZNSt3__15stackIPN16BinarySearchTreeI4Duck14DuckWealthLessE4NodeENS_5dequeIS6_NS_9allocatorIS6_EEEEE3topB8ne180100Ev, symObjAddr: 0xC85C, symBinAddr: 0x100010058, symSize: 0x24 }
  - { offset: 0x1B445, size: 0x8, addend: 0x0, symName: __ZNSt3__15stackIPN16BinarySearchTreeI4Duck14DuckWealthLessE4NodeENS_5dequeIS6_NS_9allocatorIS6_EEEEE3popB8ne180100Ev, symObjAddr: 0xC880, symBinAddr: 0x10001007C, symSize: 0x24 }
  - { offset: 0x1B46B, size: 0x8, addend: 0x0, symName: __ZNSt3__15stackIPN16BinarySearchTreeI4Duck14DuckWealthLessE4NodeENS_5dequeIS6_NS_9allocatorIS6_EEEEED1Ev, symObjAddr: 0xC8A4, symBinAddr: 0x1000100A0, symSize: 0x2C }
  - { offset: 0x1B497, size: 0x8, addend: 0x0, symName: __ZNSt3__15stackIPN16BinarySearchTreeI4Duck14DuckWealthLessE4NodeENS_5dequeIS6_NS_9allocatorIS6_EEEEEC2B8ne180100Ev, symObjAddr: 0xC8D0, symBinAddr: 0x1000100CC, symSize: 0x2C }
  - { offset: 0x1B4C1, size: 0x8, addend: 0x0, symName: __ZNSt3__15dequeIPN16BinarySearchTreeI4Duck14DuckWealthLessE4NodeENS_9allocatorIS6_EEEC1B8ne180100Ev, symObjAddr: 0xC8FC, symBinAddr: 0x1000100F8, symSize: 0x2C }
  - { offset: 0x1B4EB, size: 0x8, addend: 0x0, symName: __ZNSt3__15dequeIPN16BinarySearchTreeI4Duck14DuckWealthLessE4NodeENS_9allocatorIS6_EEEC2B8ne180100Ev, symObjAddr: 0xC928, symBinAddr: 0x100010124, symSize: 0x5C }
  - { offset: 0x1B515, size: 0x8, addend: 0x0, symName: __ZNSt3__114__split_bufferIPPN16BinarySearchTreeI4Duck14DuckWealthLessE4NodeENS_9allocatorIS7_EEEC1B8ne180100Ev, symObjAddr: 0xC984, symBinAddr: 0x100010180, symSize: 0x2C }
  - { offset: 0x1B53F, size: 0x8, addend: 0x0, symName: __ZNSt3__117__compressed_pairImNS_9allocatorIPN16BinarySearchTreeI4Duck14DuckWealthLessE4NodeEEEEC1B8ne180100IiNS_18__default_init_tagEEEOT_OT0_, symObjAddr: 0xC9B0, symBinAddr: 0x1000101AC, symSize: 0x3C }
  - { offset: 0x1B597, size: 0x8, addend: 0x0, symName: __ZNKSt3__15dequeIPN16BinarySearchTreeI4Duck14DuckWealthLessE4NodeENS_9allocatorIS6_EEE14__annotate_newB8ne180100Em, symObjAddr: 0xC9EC, symBinAddr: 0x1000101E8, symSize: 0x14 }
  - { offset: 0x1B5CC, size: 0x8, addend: 0x0, symName: __ZNSt3__114__split_bufferIPPN16BinarySearchTreeI4Duck14DuckWealthLessE4NodeENS_9allocatorIS7_EEEC2B8ne180100Ev, symObjAddr: 0xCA00, symBinAddr: 0x1000101FC, symSize: 0x50 }
  - { offset: 0x1B5F6, size: 0x8, addend: 0x0, symName: __ZNSt3__117__compressed_pairIPPPN16BinarySearchTreeI4Duck14DuckWealthLessE4NodeENS_9allocatorIS7_EEEC1B8ne180100IDnNS_18__default_init_tagEEEOT_OT0_, symObjAddr: 0xCA50, symBinAddr: 0x10001024C, symSize: 0x3C }
  - { offset: 0x1B64E, size: 0x8, addend: 0x0, symName: __ZNSt3__117__compressed_pairIPPPN16BinarySearchTreeI4Duck14DuckWealthLessE4NodeENS_9allocatorIS7_EEEC2B8ne180100IDnNS_18__default_init_tagEEEOT_OT0_, symObjAddr: 0xCA8C, symBinAddr: 0x100010288, symSize: 0x40 }
  - { offset: 0x1B6A6, size: 0x8, addend: 0x0, symName: __ZNSt3__122__compressed_pair_elemIPPPN16BinarySearchTreeI4Duck14DuckWealthLessE4NodeELi0ELb0EEC2B8ne180100IDnvEEOT_, symObjAddr: 0xCACC, symBinAddr: 0x1000102C8, symSize: 0x1C }
  - { offset: 0x1B6E8, size: 0x8, addend: 0x0, symName: __ZNSt3__122__compressed_pair_elemINS_9allocatorIPPN16BinarySearchTreeI4Duck14DuckWealthLessE4NodeEEELi1ELb1EEC2B8ne180100ENS_18__default_init_tagE, symObjAddr: 0xCAE8, symBinAddr: 0x1000102E4, symSize: 0x2C }
  - { offset: 0x1B71C, size: 0x8, addend: 0x0, symName: __ZNSt3__19allocatorIPPN16BinarySearchTreeI4Duck14DuckWealthLessE4NodeEEC2B8ne180100Ev, symObjAddr: 0xCB14, symBinAddr: 0x100010310, symSize: 0x2C }
  - { offset: 0x1B746, size: 0x8, addend: 0x0, symName: __ZNSt3__116__non_trivial_ifILb1ENS_9allocatorIPPN16BinarySearchTreeI4Duck14DuckWealthLessE4NodeEEEEC2B8ne180100Ev, symObjAddr: 0xCB40, symBinAddr: 0x10001033C, symSize: 0x14 }
  - { offset: 0x1B770, size: 0x8, addend: 0x0, symName: __ZNSt3__117__compressed_pairImNS_9allocatorIPN16BinarySearchTreeI4Duck14DuckWealthLessE4NodeEEEEC2B8ne180100IiNS_18__default_init_tagEEEOT_OT0_, symObjAddr: 0xCB54, symBinAddr: 0x100010350, symSize: 0x40 }
  - { offset: 0x1B7C8, size: 0x8, addend: 0x0, symName: __ZNSt3__122__compressed_pair_elemINS_9allocatorIPN16BinarySearchTreeI4Duck14DuckWealthLessE4NodeEEELi1ELb1EEC2B8ne180100ENS_18__default_init_tagE, symObjAddr: 0xCB94, symBinAddr: 0x100010390, symSize: 0x2C }
  - { offset: 0x1B7FC, size: 0x8, addend: 0x0, symName: __ZNSt3__19allocatorIPN16BinarySearchTreeI4Duck14DuckWealthLessE4NodeEEC2B8ne180100Ev, symObjAddr: 0xCBC0, symBinAddr: 0x1000103BC, symSize: 0x2C }
  - { offset: 0x1B826, size: 0x8, addend: 0x0, symName: __ZNSt3__116__non_trivial_ifILb1ENS_9allocatorIPN16BinarySearchTreeI4Duck14DuckWealthLessE4NodeEEEEC2B8ne180100Ev, symObjAddr: 0xCBEC, symBinAddr: 0x1000103E8, symSize: 0x14 }
  - { offset: 0x1B850, size: 0x8, addend: 0x0, symName: __ZNSt3__15dequeIPN16BinarySearchTreeI4Duck14DuckWealthLessE4NodeENS_9allocatorIS6_EEE9push_backERKS6_, symObjAddr: 0xCC00, symBinAddr: 0x1000103FC, symSize: 0xAC }
  - { offset: 0x1B896, size: 0x8, addend: 0x0, symName: __ZNSt3__15dequeIPN16BinarySearchTreeI4Duck14DuckWealthLessE4NodeENS_9allocatorIS6_EEE7__allocB8ne180100Ev, symObjAddr: 0xCCAC, symBinAddr: 0x1000104A8, symSize: 0x28 }
  - { offset: 0x1B8BC, size: 0x8, addend: 0x0, symName: __ZNKSt3__15dequeIPN16BinarySearchTreeI4Duck14DuckWealthLessE4NodeENS_9allocatorIS6_EEE12__back_spareB8ne180100Ev, symObjAddr: 0xCCD4, symBinAddr: 0x1000104D0, symSize: 0x54 }
  - { offset: 0x1B8E2, size: 0x8, addend: 0x0, symName: __ZNSt3__15dequeIPN16BinarySearchTreeI4Duck14DuckWealthLessE4NodeENS_9allocatorIS6_EEE19__add_back_capacityEv, symObjAddr: 0xCD28, symBinAddr: 0x100010524, symSize: 0x34C }
  - { offset: 0x1B997, size: 0x8, addend: 0x0, symName: __ZNKSt3__15dequeIPN16BinarySearchTreeI4Duck14DuckWealthLessE4NodeENS_9allocatorIS6_EEE24__annotate_increase_backB8ne180100Em, symObjAddr: 0xD074, symBinAddr: 0x100010870, symSize: 0x14 }
  - { offset: 0x1B9CC, size: 0x8, addend: 0x0, symName: __ZNSt3__116allocator_traitsINS_9allocatorIPN16BinarySearchTreeI4Duck14DuckWealthLessE4NodeEEEE9constructB8ne180100IS7_JRKS7_EvEEvRS8_PT_DpOT0_, symObjAddr: 0xD088, symBinAddr: 0x100010884, symSize: 0x34 }
  - { offset: 0x1BA23, size: 0x8, addend: 0x0, symName: __ZNSt3__15dequeIPN16BinarySearchTreeI4Duck14DuckWealthLessE4NodeENS_9allocatorIS6_EEE3endB8ne180100Ev, symObjAddr: 0xD0BC, symBinAddr: 0x1000108B8, symSize: 0xCC }
  - { offset: 0x1BA67, size: 0x8, addend: 0x0, symName: __ZNKSt3__116__deque_iteratorIPN16BinarySearchTreeI4Duck14DuckWealthLessE4NodeEPS6_RS6_PS7_lLl512EEdeB8ne180100Ev, symObjAddr: 0xD188, symBinAddr: 0x100010984, symSize: 0x18 }
  - { offset: 0x1BA8D, size: 0x8, addend: 0x0, symName: __ZNSt3__15dequeIPN16BinarySearchTreeI4Duck14DuckWealthLessE4NodeENS_9allocatorIS6_EEE6__sizeB8ne180100Ev, symObjAddr: 0xD1A0, symBinAddr: 0x10001099C, symSize: 0x28 }
  - { offset: 0x1BAB3, size: 0x8, addend: 0x0, symName: __ZNSt3__117__compressed_pairImNS_9allocatorIPN16BinarySearchTreeI4Duck14DuckWealthLessE4NodeEEEE6secondB8ne180100Ev, symObjAddr: 0xD1C8, symBinAddr: 0x1000109C4, symSize: 0x24 }
  - { offset: 0x1BAD9, size: 0x8, addend: 0x0, symName: __ZNSt3__122__compressed_pair_elemINS_9allocatorIPN16BinarySearchTreeI4Duck14DuckWealthLessE4NodeEEELi1ELb1EE5__getB8ne180100Ev, symObjAddr: 0xD1EC, symBinAddr: 0x1000109E8, symSize: 0x14 }
  - { offset: 0x1BAFF, size: 0x8, addend: 0x0, symName: __ZNKSt3__15dequeIPN16BinarySearchTreeI4Duck14DuckWealthLessE4NodeENS_9allocatorIS6_EEE10__capacityB8ne180100Ev, symObjAddr: 0xD200, symBinAddr: 0x1000109FC, symSize: 0x60 }
  - { offset: 0x1BB25, size: 0x8, addend: 0x0, symName: __ZNKSt3__15dequeIPN16BinarySearchTreeI4Duck14DuckWealthLessE4NodeENS_9allocatorIS6_EEE4sizeB8ne180100Ev, symObjAddr: 0xD260, symBinAddr: 0x100010A5C, symSize: 0x28 }
  - { offset: 0x1BB4B, size: 0x8, addend: 0x0, symName: __ZNKSt3__114__split_bufferIPPN16BinarySearchTreeI4Duck14DuckWealthLessE4NodeENS_9allocatorIS7_EEE4sizeB8ne180100Ev, symObjAddr: 0xD288, symBinAddr: 0x100010A84, symSize: 0x28 }
  - { offset: 0x1BB71, size: 0x8, addend: 0x0, symName: __ZNKSt3__15dequeIPN16BinarySearchTreeI4Duck14DuckWealthLessE4NodeENS_9allocatorIS6_EEE6__sizeB8ne180100Ev, symObjAddr: 0xD2B0, symBinAddr: 0x100010AAC, symSize: 0x28 }
  - { offset: 0x1BB97, size: 0x8, addend: 0x0, symName: __ZNKSt3__117__compressed_pairImNS_9allocatorIPN16BinarySearchTreeI4Duck14DuckWealthLessE4NodeEEEE5firstB8ne180100Ev, symObjAddr: 0xD2D8, symBinAddr: 0x100010AD4, symSize: 0x24 }
  - { offset: 0x1BBBD, size: 0x8, addend: 0x0, symName: __ZNKSt3__15dequeIPN16BinarySearchTreeI4Duck14DuckWealthLessE4NodeENS_9allocatorIS6_EEE13__front_spareB8ne180100Ev, symObjAddr: 0xD2FC, symBinAddr: 0x100010AF8, symSize: 0x18 }
  - { offset: 0x1BBE3, size: 0x8, addend: 0x0, symName: __ZNSt3__114__split_bufferIPPN16BinarySearchTreeI4Duck14DuckWealthLessE4NodeENS_9allocatorIS7_EEE5frontB8ne180100Ev, symObjAddr: 0xD314, symBinAddr: 0x100010B10, symSize: 0x18 }
  - { offset: 0x1BC09, size: 0x8, addend: 0x0, symName: __ZNSt3__114__split_bufferIPPN16BinarySearchTreeI4Duck14DuckWealthLessE4NodeENS_9allocatorIS7_EEE9pop_frontB8ne180100Ev, symObjAddr: 0xD32C, symBinAddr: 0x100010B28, symSize: 0x2C }
  - { offset: 0x1BC2F, size: 0x8, addend: 0x0, symName: __ZNSt3__114__split_bufferIPPN16BinarySearchTreeI4Duck14DuckWealthLessE4NodeENS_9allocatorIS7_EEE9push_backB8ne180100ERKS7_, symObjAddr: 0xD358, symBinAddr: 0x100010B54, symSize: 0x260 }
  - { offset: 0x1BCA7, size: 0x8, addend: 0x0, symName: __ZNKSt3__114__split_bufferIPPN16BinarySearchTreeI4Duck14DuckWealthLessE4NodeENS_9allocatorIS7_EEE8capacityB8ne180100Ev, symObjAddr: 0xD5B8, symBinAddr: 0x100010DB4, symSize: 0x40 }
  - { offset: 0x1BCCD, size: 0x8, addend: 0x0, symName: __ZNKSt3__114__split_bufferIPPN16BinarySearchTreeI4Duck14DuckWealthLessE4NodeENS_9allocatorIS7_EEE12__back_spareB8ne180100Ev, symObjAddr: 0xD5F8, symBinAddr: 0x100010DF4, symSize: 0x40 }
  - { offset: 0x1BCF3, size: 0x8, addend: 0x0, symName: __ZNSt3__114__split_bufferIPPN16BinarySearchTreeI4Duck14DuckWealthLessE4NodeENS_9allocatorIS7_EEE9push_backEOS7_, symObjAddr: 0xD638, symBinAddr: 0x100010E34, symSize: 0x260 }
  - { offset: 0x1BD6B, size: 0x8, addend: 0x0, symName: __ZNSt3__116allocator_traitsINS_9allocatorIPN16BinarySearchTreeI4Duck14DuckWealthLessE4NodeEEEE8allocateB8ne180100ERS8_m, symObjAddr: 0xD898, symBinAddr: 0x100011094, symSize: 0x2C }
  - { offset: 0x1BD9E, size: 0x8, addend: 0x0, symName: __ZNSt3__114__split_bufferIPPN16BinarySearchTreeI4Duck14DuckWealthLessE4NodeENS_9allocatorIS7_EEE10push_frontEOS7_, symObjAddr: 0xD8C4, symBinAddr: 0x1000110C0, symSize: 0x25C }
  - { offset: 0x1BE16, size: 0x8, addend: 0x0, symName: __ZNKSt3__15dequeIPN16BinarySearchTreeI4Duck14DuckWealthLessE4NodeENS_9allocatorIS6_EEE22__annotate_whole_blockB8ne180100EmNS9_22__asan_annotation_typeE, symObjAddr: 0xDB20, symBinAddr: 0x10001131C, symSize: 0x18 }
  - { offset: 0x1BE5A, size: 0x8, addend: 0x0, symName: __ZNSt3__114__split_bufferIPPN16BinarySearchTreeI4Duck14DuckWealthLessE4NodeENS_9allocatorIS7_EEE7__allocB8ne180100Ev, symObjAddr: 0xDB38, symBinAddr: 0x100011334, symSize: 0x28 }
  - { offset: 0x1BE80, size: 0x8, addend: 0x0, symName: __ZNSt3__114__split_bufferIPPN16BinarySearchTreeI4Duck14DuckWealthLessE4NodeERNS_9allocatorIS7_EEEC1EmmSA_, symObjAddr: 0xDB60, symBinAddr: 0x10001135C, symSize: 0x44 }
  - { offset: 0x1BEDB, size: 0x8, addend: 0x0, symName: __ZNSt3__122__allocator_destructorINS_9allocatorIPN16BinarySearchTreeI4Duck14DuckWealthLessE4NodeEEEEC1B8ne180100ERS8_m, symObjAddr: 0xDBA4, symBinAddr: 0x1000113A0, symSize: 0x3C }
  - { offset: 0x1BFA0, size: 0x8, addend: 0x0, symName: __ZNSt3__110unique_ptrIPPN16BinarySearchTreeI4Duck14DuckWealthLessE4NodeENS_22__allocator_destructorINS_9allocatorIS6_EEEEEC1B8ne180100ILb1EvEES7_NS_16__dependent_typeINS_27__unique_ptr_deleter_sfinaeISB_EEXT_EE20__good_rval_ref_typeE, symObjAddr: 0xDBE0, symBinAddr: 0x1000113DC, symSize: 0x3C }
  - { offset: 0x1BFF1, size: 0x8, addend: 0x0, symName: __ZNSt3__114__split_bufferIPPN16BinarySearchTreeI4Duck14DuckWealthLessE4NodeERNS_9allocatorIS7_EEE9push_backEOS7_, symObjAddr: 0xDC1C, symBinAddr: 0x100011418, symSize: 0x260 }
  - { offset: 0x1C069, size: 0x8, addend: 0x0, symName: __ZNKSt3__110unique_ptrIPPN16BinarySearchTreeI4Duck14DuckWealthLessE4NodeENS_22__allocator_destructorINS_9allocatorIS6_EEEEE3getB8ne180100Ev, symObjAddr: 0xDE7C, symBinAddr: 0x100011678, symSize: 0x28 }
  - { offset: 0x1C08F, size: 0x8, addend: 0x0, symName: __ZNSt3__110unique_ptrIPPN16BinarySearchTreeI4Duck14DuckWealthLessE4NodeENS_22__allocator_destructorINS_9allocatorIS6_EEEEE7releaseB8ne180100Ev, symObjAddr: 0xDEA4, symBinAddr: 0x1000116A0, symSize: 0x44 }
  - { offset: 0x1C0C4, size: 0x8, addend: 0x0, symName: __ZNSt3__114__split_bufferIPPN16BinarySearchTreeI4Duck14DuckWealthLessE4NodeENS_9allocatorIS7_EEE3endB8ne180100Ev, symObjAddr: 0xDEE8, symBinAddr: 0x1000116E4, symSize: 0x18 }
  - { offset: 0x1C0EA, size: 0x8, addend: 0x0, symName: __ZNSt3__114__split_bufferIPPN16BinarySearchTreeI4Duck14DuckWealthLessE4NodeENS_9allocatorIS7_EEE5beginB8ne180100Ev, symObjAddr: 0xDF00, symBinAddr: 0x1000116FC, symSize: 0x18 }
  - { offset: 0x1C110, size: 0x8, addend: 0x0, symName: __ZNSt3__114__split_bufferIPPN16BinarySearchTreeI4Duck14DuckWealthLessE4NodeERNS_9allocatorIS7_EEE10push_frontERKS7_, symObjAddr: 0xDF18, symBinAddr: 0x100011714, symSize: 0x25C }
  - { offset: 0x1C188, size: 0x8, addend: 0x0, symName: __ZNSt3__114__split_bufferIPPN16BinarySearchTreeI4Duck14DuckWealthLessE4NodeENS_9allocatorIS7_EEE9__end_capB8ne180100Ev, symObjAddr: 0xE1B0, symBinAddr: 0x1000119AC, symSize: 0x28 }
  - { offset: 0x1C1AE, size: 0x8, addend: 0x0, symName: __ZNSt3__114__split_bufferIPPN16BinarySearchTreeI4Duck14DuckWealthLessE4NodeERNS_9allocatorIS7_EEE9__end_capB8ne180100Ev, symObjAddr: 0xE1D8, symBinAddr: 0x1000119D4, symSize: 0x28 }
  - { offset: 0x1C1D4, size: 0x8, addend: 0x0, symName: __ZNSt3__110unique_ptrIPPN16BinarySearchTreeI4Duck14DuckWealthLessE4NodeENS_22__allocator_destructorINS_9allocatorIS6_EEEEED1B8ne180100Ev, symObjAddr: 0xE200, symBinAddr: 0x1000119FC, symSize: 0x2C }
  - { offset: 0x1C1FE, size: 0x8, addend: 0x0, symName: __ZNSt3__114__split_bufferIPPN16BinarySearchTreeI4Duck14DuckWealthLessE4NodeERNS_9allocatorIS7_EEED1Ev, symObjAddr: 0xE22C, symBinAddr: 0x100011A28, symSize: 0x2C }
  - { offset: 0x1C22A, size: 0x8, addend: 0x0, symName: __ZNSt3__114__split_bufferIPPN16BinarySearchTreeI4Duck14DuckWealthLessE4NodeENS_9allocatorIS7_EEE19__destruct_at_beginB8ne180100EPS7_, symObjAddr: 0xE258, symBinAddr: 0x100011A54, symSize: 0x2C }
  - { offset: 0x1C25E, size: 0x8, addend: 0x0, symName: __ZNSt3__114__split_bufferIPPN16BinarySearchTreeI4Duck14DuckWealthLessE4NodeENS_9allocatorIS7_EEE19__destruct_at_beginEPS7_NS_17integral_constantIbLb1EEE, symObjAddr: 0xE284, symBinAddr: 0x100011A80, symSize: 0x20 }
  - { offset: 0x1C29E, size: 0x8, addend: 0x0, symName: __ZNSt3__114__split_bufferIPPN16BinarySearchTreeI4Duck14DuckWealthLessE4NodeERNS_9allocatorIS7_EEE18__construct_at_endINS_13move_iteratorIPS7_EELi0EEEvT_SG_, symObjAddr: 0xE2E4, symBinAddr: 0x100011AE0, symSize: 0x60 }
  - { offset: 0x1C2F1, size: 0x8, addend: 0x0, symName: __ZNSt3__113move_iteratorIPPPN16BinarySearchTreeI4Duck14DuckWealthLessE4NodeEEC1B8ne180100ES8_, symObjAddr: 0xE344, symBinAddr: 0x100011B40, symSize: 0x34 }
  - { offset: 0x1C329, size: 0x8, addend: 0x0, symName: __ZNSt3__116allocator_traitsINS_9allocatorIPPN16BinarySearchTreeI4Duck14DuckWealthLessE4NodeEEEE9constructB8ne180100IS8_JRKS8_EvEEvRS9_PT_DpOT0_, symObjAddr: 0xE378, symBinAddr: 0x100011B74, symSize: 0x34 }
  - { offset: 0x1C39A, size: 0x8, addend: 0x0, symName: __ZNKSt3__114__move_trivialclB8ne180100IPPN16BinarySearchTreeI4Duck14DuckWealthLessE4NodeES8_Li0EEENS_4pairIPT_PT0_EESB_SB_SD_, symObjAddr: 0xE55C, symBinAddr: 0x100011D58, symSize: 0x48 }
  - { offset: 0x1C408, size: 0x8, addend: 0x0, symName: __ZNSt3__14pairIPPPN16BinarySearchTreeI4Duck14DuckWealthLessE4NodeES8_EC1B8ne180100IRS8_S8_Li0EEEOT_OT0_, symObjAddr: 0xE784, symBinAddr: 0x100011F80, symSize: 0x3C }
  - { offset: 0x1C466, size: 0x8, addend: 0x0, symName: __ZNSt3__14pairIPPPN16BinarySearchTreeI4Duck14DuckWealthLessE4NodeES8_EC2B8ne180100IRS8_S8_Li0EEEOT_OT0_, symObjAddr: 0xE7C0, symBinAddr: 0x100011FBC, symSize: 0x34 }
  - { offset: 0x1C4C4, size: 0x8, addend: 0x0, symName: __ZNSt3__118__unwrap_iter_implIPPPN16BinarySearchTreeI4Duck14DuckWealthLessE4NodeELb1EE8__unwrapB8ne180100ES8_, symObjAddr: 0xE7F4, symBinAddr: 0x100011FF0, symSize: 0x24 }
  - { offset: 0x1C4E7, size: 0x8, addend: 0x0, symName: __ZNSt3__14pairIPPPN16BinarySearchTreeI4Duck14DuckWealthLessE4NodeES8_EC1B8ne180100IS8_S8_Li0EEEOT_OT0_, symObjAddr: 0xE818, symBinAddr: 0x100012014, symSize: 0x3C }
  - { offset: 0x1C545, size: 0x8, addend: 0x0, symName: __ZNSt3__14pairIPPPN16BinarySearchTreeI4Duck14DuckWealthLessE4NodeES8_EC2B8ne180100IS8_S8_Li0EEEOT_OT0_, symObjAddr: 0xE854, symBinAddr: 0x100012050, symSize: 0x34 }
  - { offset: 0x1C5A3, size: 0x8, addend: 0x0, symName: __ZNSt3__118__unwrap_iter_implIPPPN16BinarySearchTreeI4Duck14DuckWealthLessE4NodeELb1EE8__rewrapB8ne180100ES8_S8_, symObjAddr: 0xE888, symBinAddr: 0x100012084, symSize: 0x50 }
  - { offset: 0x1C5D4, size: 0x8, addend: 0x0, symName: __ZNSt3__114__split_bufferIPPN16BinarySearchTreeI4Duck14DuckWealthLessE4NodeERNS_9allocatorIS7_EEE28__construct_at_end_with_sizeINS_13move_iteratorIPS7_EEEEvT_m, symObjAddr: 0xE8D8, symBinAddr: 0x1000120D4, symSize: 0xDC }
  - { offset: 0x1C63A, size: 0x8, addend: 0x0, symName: __ZNSt3__114__split_bufferIPPN16BinarySearchTreeI4Duck14DuckWealthLessE4NodeERNS_9allocatorIS7_EEE21_ConstructTransactionC1B8ne180100EPPS7_m, symObjAddr: 0xE9F0, symBinAddr: 0x1000121EC, symSize: 0x3C }
  - { offset: 0x1C680, size: 0x8, addend: 0x0, symName: __ZNSt3__116allocator_traitsINS_9allocatorIPPN16BinarySearchTreeI4Duck14DuckWealthLessE4NodeEEEE9constructB8ne180100IS8_JS8_EvEEvRS9_PT_DpOT0_, symObjAddr: 0xEA2C, symBinAddr: 0x100012228, symSize: 0x34 }
  - { offset: 0x1C6D7, size: 0x8, addend: 0x0, symName: __ZNSt3__114__split_bufferIPPN16BinarySearchTreeI4Duck14DuckWealthLessE4NodeERNS_9allocatorIS7_EEE7__allocB8ne180100Ev, symObjAddr: 0xEA60, symBinAddr: 0x10001225C, symSize: 0x28 }
  - { offset: 0x1C6FD, size: 0x8, addend: 0x0, symName: __ZNKSt3__113move_iteratorIPPPN16BinarySearchTreeI4Duck14DuckWealthLessE4NodeEEdeB8ne180100Ev, symObjAddr: 0xEA88, symBinAddr: 0x100012284, symSize: 0x18 }
  - { offset: 0x1C723, size: 0x8, addend: 0x0, symName: __ZNSt3__113move_iteratorIPPPN16BinarySearchTreeI4Duck14DuckWealthLessE4NodeEEppB8ne180100Ev, symObjAddr: 0xEAA0, symBinAddr: 0x10001229C, symSize: 0x20 }
  - { offset: 0x1C749, size: 0x8, addend: 0x0, symName: __ZNSt3__114__split_bufferIPPN16BinarySearchTreeI4Duck14DuckWealthLessE4NodeERNS_9allocatorIS7_EEE21_ConstructTransactionD1B8ne180100Ev, symObjAddr: 0xEAC0, symBinAddr: 0x1000122BC, symSize: 0x2C }
  - { offset: 0x1C773, size: 0x8, addend: 0x0, symName: __ZNSt3__114__split_bufferIPPN16BinarySearchTreeI4Duck14DuckWealthLessE4NodeERNS_9allocatorIS7_EEE21_ConstructTransactionC2B8ne180100EPPS7_m, symObjAddr: 0xEAEC, symBinAddr: 0x1000122E8, symSize: 0x44 }
  - { offset: 0x1C7B9, size: 0x8, addend: 0x0, symName: __ZNSt3__19allocatorIPPN16BinarySearchTreeI4Duck14DuckWealthLessE4NodeEE9constructB8ne180100IS7_JS7_EEEvPT_DpOT0_, symObjAddr: 0xEB30, symBinAddr: 0x10001232C, symSize: 0x28 }
  - { offset: 0x1C80F, size: 0x8, addend: 0x0, symName: __ZNSt3__117__compressed_pairIPPPN16BinarySearchTreeI4Duck14DuckWealthLessE4NodeERNS_9allocatorIS7_EEE6secondB8ne180100Ev, symObjAddr: 0xEB58, symBinAddr: 0x100012354, symSize: 0x28 }
  - { offset: 0x1C835, size: 0x8, addend: 0x0, symName: __ZNSt3__122__compressed_pair_elemIRNS_9allocatorIPPN16BinarySearchTreeI4Duck14DuckWealthLessE4NodeEEELi1ELb0EE5__getB8ne180100Ev, symObjAddr: 0xEB80, symBinAddr: 0x10001237C, symSize: 0x18 }
  - { offset: 0x1C85B, size: 0x8, addend: 0x0, symName: __ZNSt3__114__split_bufferIPPN16BinarySearchTreeI4Duck14DuckWealthLessE4NodeERNS_9allocatorIS7_EEE21_ConstructTransactionD2B8ne180100Ev, symObjAddr: 0xEB98, symBinAddr: 0x100012394, symSize: 0x20 }
  - { offset: 0x1C885, size: 0x8, addend: 0x0, symName: __ZNKSt3__113move_iteratorIPPPN16BinarySearchTreeI4Duck14DuckWealthLessE4NodeEE4baseB8ne180100Ev, symObjAddr: 0xEC30, symBinAddr: 0x10001242C, symSize: 0x18 }
  - { offset: 0x1C8AB, size: 0x8, addend: 0x0, symName: __ZNSt3__113move_iteratorIPPPN16BinarySearchTreeI4Duck14DuckWealthLessE4NodeEEC2B8ne180100ES8_, symObjAddr: 0xEC48, symBinAddr: 0x100012444, symSize: 0x20 }
  - { offset: 0x1C8E3, size: 0x8, addend: 0x0, symName: __ZNSt3__19allocatorIPPN16BinarySearchTreeI4Duck14DuckWealthLessE4NodeEE9constructB8ne180100IS7_JRKS7_EEEvPT_DpOT0_, symObjAddr: 0xEC68, symBinAddr: 0x100012464, symSize: 0x28 }
  - { offset: 0x1C939, size: 0x8, addend: 0x0, symName: __ZNKSt3__114__split_bufferIPPN16BinarySearchTreeI4Duck14DuckWealthLessE4NodeENS_9allocatorIS7_EEE9__end_capB8ne180100Ev, symObjAddr: 0xEC90, symBinAddr: 0x10001248C, symSize: 0x28 }
  - { offset: 0x1C95F, size: 0x8, addend: 0x0, symName: __ZNKSt3__117__compressed_pairIPPPN16BinarySearchTreeI4Duck14DuckWealthLessE4NodeENS_9allocatorIS7_EEE5firstB8ne180100Ev, symObjAddr: 0xECB8, symBinAddr: 0x1000124B4, symSize: 0x24 }
  - { offset: 0x1C985, size: 0x8, addend: 0x0, symName: __ZNKSt3__122__compressed_pair_elemIPPPN16BinarySearchTreeI4Duck14DuckWealthLessE4NodeELi0ELb0EE5__getB8ne180100Ev, symObjAddr: 0xECDC, symBinAddr: 0x1000124D8, symSize: 0x14 }
  - { offset: 0x1C9AB, size: 0x8, addend: 0x0, symName: __ZNSt3__19allocatorIPN16BinarySearchTreeI4Duck14DuckWealthLessE4NodeEE8allocateB8ne180100Em, symObjAddr: 0xECF0, symBinAddr: 0x1000124EC, symSize: 0x58 }
  - { offset: 0x1C9E9, size: 0x8, addend: 0x0, symName: __ZNSt3__116allocator_traitsINS_9allocatorIPN16BinarySearchTreeI4Duck14DuckWealthLessE4NodeEEEE8max_sizeB8ne180100IS8_vEEmRKS8_, symObjAddr: 0xED48, symBinAddr: 0x100012544, symSize: 0x24 }
  - { offset: 0x1CA17, size: 0x8, addend: 0x0, symName: __ZNKSt3__19allocatorIPN16BinarySearchTreeI4Duck14DuckWealthLessE4NodeEE8max_sizeB8ne180100Ev, symObjAddr: 0xED6C, symBinAddr: 0x100012568, symSize: 0x14 }
  - { offset: 0x1CA3D, size: 0x8, addend: 0x0, symName: __ZNKSt3__123__move_backward_trivialclB8ne180100IPPN16BinarySearchTreeI4Duck14DuckWealthLessE4NodeES8_Li0EEENS_4pairIPT_PT0_EESB_SB_SD_, symObjAddr: 0xEEFC, symBinAddr: 0x1000126F8, symSize: 0x48 }
  - { offset: 0x1CAA5, size: 0x8, addend: 0x0, symName: __ZNSt3__14pairIPPPN16BinarySearchTreeI4Duck14DuckWealthLessE4NodeES8_EC1B8ne180100IRS8_SB_Li0EEEOT_OT0_, symObjAddr: 0xF00C, symBinAddr: 0x100012808, symSize: 0x3C }
  - { offset: 0x1CB03, size: 0x8, addend: 0x0, symName: __ZNSt3__14pairIPPPN16BinarySearchTreeI4Duck14DuckWealthLessE4NodeES8_EC2B8ne180100IRS8_SB_Li0EEEOT_OT0_, symObjAddr: 0xF048, symBinAddr: 0x100012844, symSize: 0x34 }
  - { offset: 0x1CB61, size: 0x8, addend: 0x0, symName: __ZNSt3__117__compressed_pairIPPPN16BinarySearchTreeI4Duck14DuckWealthLessE4NodeENS_9allocatorIS7_EEE6secondB8ne180100Ev, symObjAddr: 0xF07C, symBinAddr: 0x100012878, symSize: 0x24 }
  - { offset: 0x1CB87, size: 0x8, addend: 0x0, symName: __ZNSt3__122__compressed_pair_elemINS_9allocatorIPPN16BinarySearchTreeI4Duck14DuckWealthLessE4NodeEEELi1ELb1EE5__getB8ne180100Ev, symObjAddr: 0xF0A0, symBinAddr: 0x10001289C, symSize: 0x14 }
  - { offset: 0x1CBAD, size: 0x8, addend: 0x0, symName: __ZNSt3__114__split_bufferIPPN16BinarySearchTreeI4Duck14DuckWealthLessE4NodeERNS_9allocatorIS7_EEEC2EmmSA_, symObjAddr: 0xF0B4, symBinAddr: 0x1000128B0, symSize: 0xD4 }
  - { offset: 0x1CC20, size: 0x8, addend: 0x0, symName: __ZNSt3__117__compressed_pairIPPPN16BinarySearchTreeI4Duck14DuckWealthLessE4NodeERNS_9allocatorIS7_EEEC1B8ne180100IDnSB_EEOT_OT0_, symObjAddr: 0xF188, symBinAddr: 0x100012984, symSize: 0x3C }
  - { offset: 0x1CC78, size: 0x8, addend: 0x0, symName: __ZNSt3__117__compressed_pairIPPPN16BinarySearchTreeI4Duck14DuckWealthLessE4NodeERNS_9allocatorIS7_EEEC2B8ne180100IDnSB_EEOT_OT0_, symObjAddr: 0xF204, symBinAddr: 0x100012A00, symSize: 0x48 }
  - { offset: 0x1CCD0, size: 0x8, addend: 0x0, symName: __ZNSt3__122__compressed_pair_elemIRNS_9allocatorIPPN16BinarySearchTreeI4Duck14DuckWealthLessE4NodeEEELi1ELb0EEC2B8ne180100ISA_vEEOT_, symObjAddr: 0xF24C, symBinAddr: 0x100012A48, symSize: 0x20 }
  - { offset: 0x1CD12, size: 0x8, addend: 0x0, symName: __ZNSt3__19allocatorIPPN16BinarySearchTreeI4Duck14DuckWealthLessE4NodeEE8allocateB8ne180100Em, symObjAddr: 0xF26C, symBinAddr: 0x100012A68, symSize: 0x58 }
  - { offset: 0x1CD50, size: 0x8, addend: 0x0, symName: __ZNSt3__116allocator_traitsINS_9allocatorIPPN16BinarySearchTreeI4Duck14DuckWealthLessE4NodeEEEE8max_sizeB8ne180100IS9_vEEmRKS9_, symObjAddr: 0xF2C4, symBinAddr: 0x100012AC0, symSize: 0x24 }
  - { offset: 0x1CD7E, size: 0x8, addend: 0x0, symName: __ZNKSt3__19allocatorIPPN16BinarySearchTreeI4Duck14DuckWealthLessE4NodeEE8max_sizeB8ne180100Ev, symObjAddr: 0xF2E8, symBinAddr: 0x100012AE4, symSize: 0x14 }
  - { offset: 0x1CDA4, size: 0x8, addend: 0x0, symName: __ZNSt3__122__allocator_destructorINS_9allocatorIPN16BinarySearchTreeI4Duck14DuckWealthLessE4NodeEEEEC2B8ne180100ERS8_m, symObjAddr: 0xF2FC, symBinAddr: 0x100012AF8, symSize: 0x2C }
  - { offset: 0x1CDEA, size: 0x8, addend: 0x0, symName: __ZNSt3__110unique_ptrIPPN16BinarySearchTreeI4Duck14DuckWealthLessE4NodeENS_22__allocator_destructorINS_9allocatorIS6_EEEEEC2B8ne180100ILb1EvEES7_NS_16__dependent_typeINS_27__unique_ptr_deleter_sfinaeISB_EEXT_EE20__good_rval_ref_typeE, symObjAddr: 0xF328, symBinAddr: 0x100012B24, symSize: 0x48 }
  - { offset: 0x1CE3B, size: 0x8, addend: 0x0, symName: __ZNSt3__117__compressed_pairIPPN16BinarySearchTreeI4Duck14DuckWealthLessE4NodeENS_22__allocator_destructorINS_9allocatorIS6_EEEEEC1B8ne180100IRS7_SB_EEOT_OT0_, symObjAddr: 0xF370, symBinAddr: 0x100012B6C, symSize: 0x3C }
  - { offset: 0x1CE93, size: 0x8, addend: 0x0, symName: __ZNSt3__117__compressed_pairIPPN16BinarySearchTreeI4Duck14DuckWealthLessE4NodeENS_22__allocator_destructorINS_9allocatorIS6_EEEEEC2B8ne180100IRS7_SB_EEOT_OT0_, symObjAddr: 0xF3AC, symBinAddr: 0x100012BA8, symSize: 0x48 }
  - { offset: 0x1CEEB, size: 0x8, addend: 0x0, symName: __ZNSt3__122__compressed_pair_elemIPPN16BinarySearchTreeI4Duck14DuckWealthLessE4NodeELi0ELb0EEC2B8ne180100IRS7_vEEOT_, symObjAddr: 0xF3F4, symBinAddr: 0x100012BF0, symSize: 0x24 }
  - { offset: 0x1CF2D, size: 0x8, addend: 0x0, symName: __ZNSt3__122__compressed_pair_elemINS_22__allocator_destructorINS_9allocatorIPN16BinarySearchTreeI4Duck14DuckWealthLessE4NodeEEEEELi1ELb0EEC2B8ne180100ISA_vEEOT_, symObjAddr: 0xF418, symBinAddr: 0x100012C14, symSize: 0x24 }
  - { offset: 0x1CF6F, size: 0x8, addend: 0x0, symName: __ZNKSt3__117__compressed_pairIPPN16BinarySearchTreeI4Duck14DuckWealthLessE4NodeENS_22__allocator_destructorINS_9allocatorIS6_EEEEE5firstB8ne180100Ev, symObjAddr: 0xF43C, symBinAddr: 0x100012C38, symSize: 0x24 }
  - { offset: 0x1CF95, size: 0x8, addend: 0x0, symName: __ZNKSt3__122__compressed_pair_elemIPPN16BinarySearchTreeI4Duck14DuckWealthLessE4NodeELi0ELb0EE5__getB8ne180100Ev, symObjAddr: 0xF460, symBinAddr: 0x100012C5C, symSize: 0x14 }
  - { offset: 0x1CFBB, size: 0x8, addend: 0x0, symName: __ZNSt3__117__compressed_pairIPPN16BinarySearchTreeI4Duck14DuckWealthLessE4NodeENS_22__allocator_destructorINS_9allocatorIS6_EEEEE5firstB8ne180100Ev, symObjAddr: 0xF474, symBinAddr: 0x100012C70, symSize: 0x24 }
  - { offset: 0x1CFE1, size: 0x8, addend: 0x0, symName: __ZNSt3__122__compressed_pair_elemIPPN16BinarySearchTreeI4Duck14DuckWealthLessE4NodeELi0ELb0EE5__getB8ne180100Ev, symObjAddr: 0xF498, symBinAddr: 0x100012C94, symSize: 0x14 }
  - { offset: 0x1D007, size: 0x8, addend: 0x0, symName: __ZNSt3__117__compressed_pairIPPPN16BinarySearchTreeI4Duck14DuckWealthLessE4NodeENS_9allocatorIS7_EEE5firstB8ne180100Ev, symObjAddr: 0xF4AC, symBinAddr: 0x100012CA8, symSize: 0x24 }
  - { offset: 0x1D02D, size: 0x8, addend: 0x0, symName: __ZNSt3__122__compressed_pair_elemIPPPN16BinarySearchTreeI4Duck14DuckWealthLessE4NodeELi0ELb0EE5__getB8ne180100Ev, symObjAddr: 0xF4D0, symBinAddr: 0x100012CCC, symSize: 0x14 }
  - { offset: 0x1D053, size: 0x8, addend: 0x0, symName: __ZNSt3__117__compressed_pairIPPPN16BinarySearchTreeI4Duck14DuckWealthLessE4NodeERNS_9allocatorIS7_EEE5firstB8ne180100Ev, symObjAddr: 0xF4E4, symBinAddr: 0x100012CE0, symSize: 0x24 }
  - { offset: 0x1D079, size: 0x8, addend: 0x0, symName: __ZNSt3__110unique_ptrIPPN16BinarySearchTreeI4Duck14DuckWealthLessE4NodeENS_22__allocator_destructorINS_9allocatorIS6_EEEEED2B8ne180100Ev, symObjAddr: 0xF508, symBinAddr: 0x100012D04, symSize: 0x30 }
  - { offset: 0x1D0A3, size: 0x8, addend: 0x0, symName: __ZNSt3__110unique_ptrIPPN16BinarySearchTreeI4Duck14DuckWealthLessE4NodeENS_22__allocator_destructorINS_9allocatorIS6_EEEEE5resetB8ne180100ES7_, symObjAddr: 0xF538, symBinAddr: 0x100012D34, symSize: 0x78 }
  - { offset: 0x1D0E7, size: 0x8, addend: 0x0, symName: __ZNSt3__117__compressed_pairIPPN16BinarySearchTreeI4Duck14DuckWealthLessE4NodeENS_22__allocator_destructorINS_9allocatorIS6_EEEEE6secondB8ne180100Ev, symObjAddr: 0xF5B0, symBinAddr: 0x100012DAC, symSize: 0x28 }
  - { offset: 0x1D10D, size: 0x8, addend: 0x0, symName: __ZNSt3__122__allocator_destructorINS_9allocatorIPN16BinarySearchTreeI4Duck14DuckWealthLessE4NodeEEEEclB8ne180100EPS7_, symObjAddr: 0xF5D8, symBinAddr: 0x100012DD4, symSize: 0x34 }
  - { offset: 0x1D141, size: 0x8, addend: 0x0, symName: __ZNSt3__122__compressed_pair_elemINS_22__allocator_destructorINS_9allocatorIPN16BinarySearchTreeI4Duck14DuckWealthLessE4NodeEEEEELi1ELb0EE5__getB8ne180100Ev, symObjAddr: 0xF60C, symBinAddr: 0x100012E08, symSize: 0x14 }
  - { offset: 0x1D167, size: 0x8, addend: 0x0, symName: __ZNSt3__116allocator_traitsINS_9allocatorIPN16BinarySearchTreeI4Duck14DuckWealthLessE4NodeEEEE10deallocateB8ne180100ERS8_PS7_m, symObjAddr: 0xF620, symBinAddr: 0x100012E1C, symSize: 0x34 }
  - { offset: 0x1D1A9, size: 0x8, addend: 0x0, symName: __ZNSt3__19allocatorIPN16BinarySearchTreeI4Duck14DuckWealthLessE4NodeEE10deallocateB8ne180100EPS6_m, symObjAddr: 0xF654, symBinAddr: 0x100012E50, symSize: 0x40 }
  - { offset: 0x1D1EB, size: 0x8, addend: 0x0, symName: __ZNSt3__114__split_bufferIPPN16BinarySearchTreeI4Duck14DuckWealthLessE4NodeERNS_9allocatorIS7_EEED2Ev, symObjAddr: 0xF694, symBinAddr: 0x100012E90, symSize: 0x8C }
  - { offset: 0x1D217, size: 0x8, addend: 0x0, symName: __ZNSt3__114__split_bufferIPPN16BinarySearchTreeI4Duck14DuckWealthLessE4NodeERNS_9allocatorIS7_EEE5clearB8ne180100Ev, symObjAddr: 0xF720, symBinAddr: 0x100012F1C, symSize: 0x28 }
  - { offset: 0x1D23D, size: 0x8, addend: 0x0, symName: __ZNSt3__116allocator_traitsINS_9allocatorIPPN16BinarySearchTreeI4Duck14DuckWealthLessE4NodeEEEE10deallocateB8ne180100ERS9_PS8_m, symObjAddr: 0xF748, symBinAddr: 0x100012F44, symSize: 0x34 }
  - { offset: 0x1D27F, size: 0x8, addend: 0x0, symName: __ZNKSt3__114__split_bufferIPPN16BinarySearchTreeI4Duck14DuckWealthLessE4NodeERNS_9allocatorIS7_EEE8capacityB8ne180100Ev, symObjAddr: 0xF77C, symBinAddr: 0x100012F78, symSize: 0x40 }
  - { offset: 0x1D2A5, size: 0x8, addend: 0x0, symName: __ZNSt3__114__split_bufferIPPN16BinarySearchTreeI4Duck14DuckWealthLessE4NodeERNS_9allocatorIS7_EEE17__destruct_at_endB8ne180100EPS7_, symObjAddr: 0xF7BC, symBinAddr: 0x100012FB8, symSize: 0x2C }
  - { offset: 0x1D2D9, size: 0x8, addend: 0x0, symName: __ZNSt3__114__split_bufferIPPN16BinarySearchTreeI4Duck14DuckWealthLessE4NodeERNS_9allocatorIS7_EEE17__destruct_at_endB8ne180100EPS7_NS_17integral_constantIbLb0EEE, symObjAddr: 0xF7E8, symBinAddr: 0x100012FE4, symSize: 0x80 }
  - { offset: 0x1D319, size: 0x8, addend: 0x0, symName: __ZNSt3__116allocator_traitsINS_9allocatorIPPN16BinarySearchTreeI4Duck14DuckWealthLessE4NodeEEEE7destroyB8ne180100IS8_vEEvRS9_PT_, symObjAddr: 0xF868, symBinAddr: 0x100013064, symSize: 0x2C }
  - { offset: 0x1D356, size: 0x8, addend: 0x0, symName: __ZNSt3__19allocatorIPPN16BinarySearchTreeI4Duck14DuckWealthLessE4NodeEE7destroyB8ne180100EPS7_, symObjAddr: 0xF894, symBinAddr: 0x100013090, symSize: 0x14 }
  - { offset: 0x1D38A, size: 0x8, addend: 0x0, symName: __ZNSt3__19allocatorIPPN16BinarySearchTreeI4Duck14DuckWealthLessE4NodeEE10deallocateB8ne180100EPS7_m, symObjAddr: 0xF8A8, symBinAddr: 0x1000130A4, symSize: 0x40 }
  - { offset: 0x1D3CC, size: 0x8, addend: 0x0, symName: __ZNKSt3__114__split_bufferIPPN16BinarySearchTreeI4Duck14DuckWealthLessE4NodeERNS_9allocatorIS7_EEE9__end_capB8ne180100Ev, symObjAddr: 0xF8E8, symBinAddr: 0x1000130E4, symSize: 0x28 }
  - { offset: 0x1D3F2, size: 0x8, addend: 0x0, symName: __ZNKSt3__117__compressed_pairIPPPN16BinarySearchTreeI4Duck14DuckWealthLessE4NodeERNS_9allocatorIS7_EEE5firstB8ne180100Ev, symObjAddr: 0xF910, symBinAddr: 0x10001310C, symSize: 0x24 }
  - { offset: 0x1D418, size: 0x8, addend: 0x0, symName: __ZNSt3__19allocatorIPN16BinarySearchTreeI4Duck14DuckWealthLessE4NodeEE9constructB8ne180100IS6_JRKS6_EEEvPT_DpOT0_, symObjAddr: 0xF934, symBinAddr: 0x100013130, symSize: 0x28 }
  - { offset: 0x1D46E, size: 0x8, addend: 0x0, symName: __ZNKSt3__114__split_bufferIPPN16BinarySearchTreeI4Duck14DuckWealthLessE4NodeENS_9allocatorIS7_EEE5emptyB8ne180100Ev, symObjAddr: 0xF95C, symBinAddr: 0x100013158, symSize: 0x28 }
  - { offset: 0x1D494, size: 0x8, addend: 0x0, symName: __ZNSt3__116__deque_iteratorIPN16BinarySearchTreeI4Duck14DuckWealthLessE4NodeEPS6_RS6_PS7_lLl512EEC1B8ne180100ES9_S7_, symObjAddr: 0xF984, symBinAddr: 0x100013180, symSize: 0x3C }
  - { offset: 0x1D4DC, size: 0x8, addend: 0x0, symName: __ZNSt3__116__deque_iteratorIPN16BinarySearchTreeI4Duck14DuckWealthLessE4NodeEPS6_RS6_PS7_lLl512EEC2B8ne180100ES9_S7_, symObjAddr: 0xF9C0, symBinAddr: 0x1000131BC, symSize: 0x2C }
  - { offset: 0x1D524, size: 0x8, addend: 0x0, symName: __ZNSt3__117__compressed_pairImNS_9allocatorIPN16BinarySearchTreeI4Duck14DuckWealthLessE4NodeEEEE5firstB8ne180100Ev, symObjAddr: 0xF9EC, symBinAddr: 0x1000131E8, symSize: 0x24 }
  - { offset: 0x1D54A, size: 0x8, addend: 0x0, symName: __ZNKSt3__15dequeIPN16BinarySearchTreeI4Duck14DuckWealthLessE4NodeENS_9allocatorIS6_EEE5emptyB8ne180100Ev, symObjAddr: 0xFA10, symBinAddr: 0x10001320C, symSize: 0x30 }
  - { offset: 0x1D570, size: 0x8, addend: 0x0, symName: __ZNSt3__15dequeIPN16BinarySearchTreeI4Duck14DuckWealthLessE4NodeENS_9allocatorIS6_EEE4backEv, symObjAddr: 0xFA40, symBinAddr: 0x10001323C, symSize: 0x68 }
  - { offset: 0x1D5A7, size: 0x8, addend: 0x0, symName: __ZNSt3__15dequeIPN16BinarySearchTreeI4Duck14DuckWealthLessE4NodeENS_9allocatorIS6_EEE8pop_backEv, symObjAddr: 0xFAA8, symBinAddr: 0x1000132A4, symSize: 0xE0 }
  - { offset: 0x1D60B, size: 0x8, addend: 0x0, symName: __ZNSt3__116allocator_traitsINS_9allocatorIPN16BinarySearchTreeI4Duck14DuckWealthLessE4NodeEEEE7destroyB8ne180100IS7_vEEvRS8_PT_, symObjAddr: 0xFB88, symBinAddr: 0x100013384, symSize: 0x2C }
  - { offset: 0x1D648, size: 0x8, addend: 0x0, symName: __ZNKSt3__15dequeIPN16BinarySearchTreeI4Duck14DuckWealthLessE4NodeENS_9allocatorIS6_EEE22__annotate_shrink_backB8ne180100Emm, symObjAddr: 0xFBC8, symBinAddr: 0x1000133C4, symSize: 0x18 }
  - { offset: 0x1D68C, size: 0x8, addend: 0x0, symName: __ZNSt3__15dequeIPN16BinarySearchTreeI4Duck14DuckWealthLessE4NodeENS_9allocatorIS6_EEE25__maybe_remove_back_spareB8ne180100Eb, symObjAddr: 0xFBE0, symBinAddr: 0x1000133DC, symSize: 0xE8 }
  - { offset: 0x1D6C1, size: 0x8, addend: 0x0, symName: __ZNSt3__19allocatorIPN16BinarySearchTreeI4Duck14DuckWealthLessE4NodeEE7destroyB8ne180100EPS6_, symObjAddr: 0xFCC8, symBinAddr: 0x1000134C4, symSize: 0x14 }
  - { offset: 0x1D6F5, size: 0x8, addend: 0x0, symName: __ZNKSt3__15dequeIPN16BinarySearchTreeI4Duck14DuckWealthLessE4NodeENS_9allocatorIS6_EEE19__back_spare_blocksB8ne180100Ev, symObjAddr: 0xFCDC, symBinAddr: 0x1000134D8, symSize: 0x2C }
  - { offset: 0x1D71B, size: 0x8, addend: 0x0, symName: __ZNSt3__114__split_bufferIPPN16BinarySearchTreeI4Duck14DuckWealthLessE4NodeENS_9allocatorIS7_EEE4backB8ne180100Ev, symObjAddr: 0xFD08, symBinAddr: 0x100013504, symSize: 0x1C }
  - { offset: 0x1D741, size: 0x8, addend: 0x0, symName: __ZNSt3__114__split_bufferIPPN16BinarySearchTreeI4Duck14DuckWealthLessE4NodeENS_9allocatorIS7_EEE8pop_backB8ne180100Ev, symObjAddr: 0xFD24, symBinAddr: 0x100013520, symSize: 0x2C }
  - { offset: 0x1D767, size: 0x8, addend: 0x0, symName: __ZNSt3__114__split_bufferIPPN16BinarySearchTreeI4Duck14DuckWealthLessE4NodeENS_9allocatorIS7_EEE17__destruct_at_endB8ne180100EPS7_, symObjAddr: 0xFD50, symBinAddr: 0x10001354C, symSize: 0x2C }
  - { offset: 0x1D79B, size: 0x8, addend: 0x0, symName: __ZNSt3__114__split_bufferIPPN16BinarySearchTreeI4Duck14DuckWealthLessE4NodeENS_9allocatorIS7_EEE17__destruct_at_endB8ne180100EPS7_NS_17integral_constantIbLb0EEE, symObjAddr: 0xFD7C, symBinAddr: 0x100013578, symSize: 0x80 }
  - { offset: 0x1D7DB, size: 0x8, addend: 0x0, symName: __ZNSt3__15stackIPN16BinarySearchTreeI4Duck14DuckWealthLessE4NodeENS_5dequeIS6_NS_9allocatorIS6_EEEEED2Ev, symObjAddr: 0xFDFC, symBinAddr: 0x1000135F8, symSize: 0x2C }
  - { offset: 0x1D807, size: 0x8, addend: 0x0, symName: __ZNSt3__15dequeIPN16BinarySearchTreeI4Duck14DuckWealthLessE4NodeENS_9allocatorIS6_EEED1B8ne180100Ev, symObjAddr: 0xFE28, symBinAddr: 0x100013624, symSize: 0x2C }
  - { offset: 0x1D831, size: 0x8, addend: 0x0, symName: __ZNSt3__15dequeIPN16BinarySearchTreeI4Duck14DuckWealthLessE4NodeENS_9allocatorIS6_EEED2B8ne180100Ev, symObjAddr: 0xFE54, symBinAddr: 0x100013650, symSize: 0xA4 }
  - { offset: 0x1D887, size: 0x8, addend: 0x0, symName: __ZNSt3__15dequeIPN16BinarySearchTreeI4Duck14DuckWealthLessE4NodeENS_9allocatorIS6_EEE5clearEv, symObjAddr: 0xFEF8, symBinAddr: 0x1000136F4, symSize: 0x170 }
  - { offset: 0x1D8E2, size: 0x8, addend: 0x0, symName: __ZNKSt3__15dequeIPN16BinarySearchTreeI4Duck14DuckWealthLessE4NodeENS_9allocatorIS6_EEE17__annotate_deleteB8ne180100Ev, symObjAddr: 0x10068, symBinAddr: 0x100013864, symSize: 0x10 }
  - { offset: 0x1D908, size: 0x8, addend: 0x0, symName: __ZNSt3__114__split_bufferIPPN16BinarySearchTreeI4Duck14DuckWealthLessE4NodeENS_9allocatorIS7_EEED1Ev, symObjAddr: 0x10078, symBinAddr: 0x100013874, symSize: 0x2C }
  - { offset: 0x1D934, size: 0x8, addend: 0x0, symName: __ZNSt3__15dequeIPN16BinarySearchTreeI4Duck14DuckWealthLessE4NodeENS_9allocatorIS6_EEE5beginB8ne180100Ev, symObjAddr: 0x100A4, symBinAddr: 0x1000138A0, symSize: 0xA8 }
  - { offset: 0x1D969, size: 0x8, addend: 0x0, symName: __ZNSt3__116__deque_iteratorIPN16BinarySearchTreeI4Duck14DuckWealthLessE4NodeEPS6_RS6_PS7_lLl512EEppB8ne180100Ev, symObjAddr: 0x10180, symBinAddr: 0x10001397C, symSize: 0x70 }
  - { offset: 0x1D98F, size: 0x8, addend: 0x0, symName: __ZNSt3__114__split_bufferIPPN16BinarySearchTreeI4Duck14DuckWealthLessE4NodeENS_9allocatorIS7_EEED2Ev, symObjAddr: 0x10220, symBinAddr: 0x100013A1C, symSize: 0x80 }
  - { offset: 0x1D9BB, size: 0x8, addend: 0x0, symName: __ZNSt3__114__split_bufferIPPN16BinarySearchTreeI4Duck14DuckWealthLessE4NodeENS_9allocatorIS7_EEE5clearB8ne180100Ev, symObjAddr: 0x102A0, symBinAddr: 0x100013A9C, symSize: 0x28 }
  - { offset: 0x1D9E1, size: 0x8, addend: 0x0, symName: __ZN16BinarySearchTreeI4Duck14DuckWealthLessE9Tree_gridC2ERKS2_, symObjAddr: 0x102C8, symBinAddr: 0x100013AC4, symSize: 0x90 }
  - { offset: 0x1DA19, size: 0x8, addend: 0x0, symName: __ZNSt3__13setIN16BinarySearchTreeI4Duck14DuckWealthLessE16Tree_grid_squareENS_4lessIS5_EENS_9allocatorIS5_EEEC1B8ne180100Ev, symObjAddr: 0x10358, symBinAddr: 0x100013B54, symSize: 0x2C }
  - { offset: 0x1DA43, size: 0x8, addend: 0x0, symName: __ZN16BinarySearchTreeI4Duck14DuckWealthLessE9Tree_grid5buildEPKNS2_4NodeEii, symObjAddr: 0x10384, symBinAddr: 0x100013B80, symSize: 0x3D4 }
  - { offset: 0x1DB1A, size: 0x8, addend: 0x0, symName: __ZNSt3__13setIN16BinarySearchTreeI4Duck14DuckWealthLessE16Tree_grid_squareENS_4lessIS5_EENS_9allocatorIS5_EEED1B8ne180100Ev, symObjAddr: 0x10758, symBinAddr: 0x100013F54, symSize: 0x2C }
  - { offset: 0x1DB44, size: 0x8, addend: 0x0, symName: __ZNSt3__13setIN16BinarySearchTreeI4Duck14DuckWealthLessE16Tree_grid_squareENS_4lessIS5_EENS_9allocatorIS5_EEEC2B8ne180100Ev, symObjAddr: 0x10784, symBinAddr: 0x100013F80, symSize: 0x30 }
  - { offset: 0x1DB6E, size: 0x8, addend: 0x0, symName: __ZNSt3__16__treeIN16BinarySearchTreeI4Duck14DuckWealthLessE16Tree_grid_squareENS_4lessIS5_EENS_9allocatorIS5_EEEC1ERKS7_, symObjAddr: 0x107B4, symBinAddr: 0x100013FB0, symSize: 0x34 }
  - { offset: 0x1DBA9, size: 0x8, addend: 0x0, symName: __ZNSt3__16__treeIN16BinarySearchTreeI4Duck14DuckWealthLessE16Tree_grid_squareENS_4lessIS5_EENS_9allocatorIS5_EEEC2ERKS7_, symObjAddr: 0x107E8, symBinAddr: 0x100013FE4, symSize: 0x7C }
  - { offset: 0x1DBE4, size: 0x8, addend: 0x0, symName: __ZNSt3__117__compressed_pairINS_15__tree_end_nodeIPNS_16__tree_node_baseIPvEEEENS_9allocatorINS_11__tree_nodeIN16BinarySearchTreeI4Duck14DuckWealthLessE16Tree_grid_squareES3_EEEEEC1B8ne180100ILb1EvEEv, symObjAddr: 0x10864, symBinAddr: 0x100014060, symSize: 0x2C }
  - { offset: 0x1DC19, size: 0x8, addend: 0x0, symName: __ZNSt3__117__compressed_pairImNS_4lessIN16BinarySearchTreeI4Duck14DuckWealthLessE16Tree_grid_squareEEEEC1B8ne180100IiRKS7_EEOT_OT0_, symObjAddr: 0x10890, symBinAddr: 0x10001408C, symSize: 0x3C }
  - { offset: 0x1DC71, size: 0x8, addend: 0x0, symName: __ZNSt3__16__treeIN16BinarySearchTreeI4Duck14DuckWealthLessE16Tree_grid_squareENS_4lessIS5_EENS_9allocatorIS5_EEE10__end_nodeB8ne180100Ev, symObjAddr: 0x108CC, symBinAddr: 0x1000140C8, symSize: 0x2C }
  - { offset: 0x1DC97, size: 0x8, addend: 0x0, symName: __ZNSt3__16__treeIN16BinarySearchTreeI4Duck14DuckWealthLessE16Tree_grid_squareENS_4lessIS5_EENS_9allocatorIS5_EEE12__begin_nodeB8ne180100Ev, symObjAddr: 0x108F8, symBinAddr: 0x1000140F4, symSize: 0x14 }
  - { offset: 0x1DCBD, size: 0x8, addend: 0x0, symName: __ZNSt3__117__compressed_pairINS_15__tree_end_nodeIPNS_16__tree_node_baseIPvEEEENS_9allocatorINS_11__tree_nodeIN16BinarySearchTreeI4Duck14DuckWealthLessE16Tree_grid_squareES3_EEEEEC2B8ne180100ILb1EvEEv, symObjAddr: 0x1090C, symBinAddr: 0x100014108, symSize: 0x34 }
  - { offset: 0x1DCF2, size: 0x8, addend: 0x0, symName: __ZNSt3__122__compressed_pair_elemINS_9allocatorINS_11__tree_nodeIN16BinarySearchTreeI4Duck14DuckWealthLessE16Tree_grid_squareEPvEEEELi1ELb1EEC2B8ne180100ENS_16__value_init_tagE, symObjAddr: 0x10940, symBinAddr: 0x10001413C, symSize: 0x2C }
  - { offset: 0x1DD26, size: 0x8, addend: 0x0, symName: __ZNSt3__19allocatorINS_11__tree_nodeIN16BinarySearchTreeI4Duck14DuckWealthLessE16Tree_grid_squareEPvEEEC2B8ne180100Ev, symObjAddr: 0x1096C, symBinAddr: 0x100014168, symSize: 0x2C }
  - { offset: 0x1DD50, size: 0x8, addend: 0x0, symName: __ZNSt3__116__non_trivial_ifILb1ENS_9allocatorINS_11__tree_nodeIN16BinarySearchTreeI4Duck14DuckWealthLessE16Tree_grid_squareEPvEEEEEC2B8ne180100Ev, symObjAddr: 0x10998, symBinAddr: 0x100014194, symSize: 0x14 }
  - { offset: 0x1DD7A, size: 0x8, addend: 0x0, symName: __ZNSt3__117__compressed_pairImNS_4lessIN16BinarySearchTreeI4Duck14DuckWealthLessE16Tree_grid_squareEEEEC2B8ne180100IiRKS7_EEOT_OT0_, symObjAddr: 0x109AC, symBinAddr: 0x1000141A8, symSize: 0x44 }
  - { offset: 0x1DDD2, size: 0x8, addend: 0x0, symName: __ZNSt3__122__compressed_pair_elemINS_4lessIN16BinarySearchTreeI4Duck14DuckWealthLessE16Tree_grid_squareEEELi1ELb1EEC2B8ne180100IRKS7_vEEOT_, symObjAddr: 0x109F0, symBinAddr: 0x1000141EC, symSize: 0x18 }
  - { offset: 0x1DE14, size: 0x8, addend: 0x0, symName: __ZNSt3__117__compressed_pairINS_15__tree_end_nodeIPNS_16__tree_node_baseIPvEEEENS_9allocatorINS_11__tree_nodeIN16BinarySearchTreeI4Duck14DuckWealthLessE16Tree_grid_squareES3_EEEEE5firstB8ne180100Ev, symObjAddr: 0x10A08, symBinAddr: 0x100014204, symSize: 0x24 }
  - { offset: 0x1DE3A, size: 0x8, addend: 0x0, symName: __ZNSt3__13setIN16BinarySearchTreeI4Duck14DuckWealthLessE16Tree_grid_squareENS_4lessIS5_EENS_9allocatorIS5_EEE6insertB8ne180100EOS5_, symObjAddr: 0x10A2C, symBinAddr: 0x100014228, symSize: 0x4C }
  - { offset: 0x1DE6F, size: 0x8, addend: 0x0, symName: __ZN16BinarySearchTreeI4Duck14DuckWealthLessE16Tree_grid_squareC1IS0_EEiiT_, symObjAddr: 0x10A78, symBinAddr: 0x100014274, symSize: 0x4C }
  - { offset: 0x1DECC, size: 0x8, addend: 0x0, symName: __ZN16BinarySearchTreeI4Duck14DuckWealthLessE9Tree_grid18calculate_x_offsetEii, symObjAddr: 0x10AC4, symBinAddr: 0x1000142C0, symSize: 0x54 }
  - { offset: 0x1DEFD, size: 0x8, addend: 0x0, symName: __ZN16BinarySearchTreeI4Duck14DuckWealthLessE16Tree_grid_squareC1IPKcEEiiT_, symObjAddr: 0x10B18, symBinAddr: 0x100014314, symSize: 0x44 }
  - { offset: 0x1DF5A, size: 0x8, addend: 0x0, symName: __ZNSt3__13setIN16BinarySearchTreeI4Duck14DuckWealthLessE16Tree_grid_squareENS_4lessIS5_EENS_9allocatorIS5_EEE4findB8ne180100ERKS5_, symObjAddr: 0x10B5C, symBinAddr: 0x100014358, symSize: 0x40 }
  - { offset: 0x1DF8F, size: 0x8, addend: 0x0, symName: __ZNSt3__13setIN16BinarySearchTreeI4Duck14DuckWealthLessE16Tree_grid_squareENS_4lessIS5_EENS_9allocatorIS5_EEE3endB8ne180100Ev, symObjAddr: 0x10BD0, symBinAddr: 0x1000143CC, symSize: 0x38 }
  - { offset: 0x1DFB5, size: 0x8, addend: 0x0, symName: __ZNSt3__13setIN16BinarySearchTreeI4Duck14DuckWealthLessE16Tree_grid_squareENS_4lessIS5_EENS_9allocatorIS5_EEE5eraseB8ne180100ENS_21__tree_const_iteratorIS5_PNS_11__tree_nodeIS5_PvEElEE, symObjAddr: 0x10C08, symBinAddr: 0x100014404, symSize: 0x48 }
  - { offset: 0x1DFEA, size: 0x8, addend: 0x0, symName: __ZNK16BinarySearchTreeI4Duck14DuckWealthLessE16Tree_grid_square5get_xEv, symObjAddr: 0x10C50, symBinAddr: 0x10001444C, symSize: 0x18 }
  - { offset: 0x1E010, size: 0x8, addend: 0x0, symName: __ZNK16BinarySearchTreeI4Duck14DuckWealthLessE16Tree_grid_square5get_yEv, symObjAddr: 0x10C68, symBinAddr: 0x100014464, symSize: 0x18 }
  - { offset: 0x1E036, size: 0x8, addend: 0x0, symName: __ZNSt3__13setIN16BinarySearchTreeI4Duck14DuckWealthLessE16Tree_grid_squareENS_4lessIS5_EENS_9allocatorIS5_EEE6insertB8ne180100ERKS5_, symObjAddr: 0x10C80, symBinAddr: 0x10001447C, symSize: 0x4C }
  - { offset: 0x1E06B, size: 0x8, addend: 0x0, symName: __ZNSt3__16__treeIN16BinarySearchTreeI4Duck14DuckWealthLessE16Tree_grid_squareENS_4lessIS5_EENS_9allocatorIS5_EEE15__insert_uniqueB8ne180100EOS5_, symObjAddr: 0x10CCC, symBinAddr: 0x1000144C8, symSize: 0x50 }
  - { offset: 0x1E0A0, size: 0x8, addend: 0x0, symName: __ZNSt3__14pairINS_21__tree_const_iteratorIN16BinarySearchTreeI4Duck14DuckWealthLessE16Tree_grid_squareEPNS_11__tree_nodeIS6_PvEElEEbEC1B8ne180100INS_15__tree_iteratorIS6_SA_lEEbLi0EEEONS0_IT_T0_EE, symObjAddr: 0x10D1C, symBinAddr: 0x100014518, symSize: 0x34 }
  - { offset: 0x1E0F6, size: 0x8, addend: 0x0, symName: __ZNSt3__16__treeIN16BinarySearchTreeI4Duck14DuckWealthLessE16Tree_grid_squareENS_4lessIS5_EENS_9allocatorIS5_EEE25__emplace_unique_key_argsIS5_JS5_EEENS_4pairINS_15__tree_iteratorIS5_PNS_11__tree_nodeIS5_PvEElEEbEERKT_DpOT0_, symObjAddr: 0x10D50, symBinAddr: 0x10001454C, symSize: 0xF0 }
  - { offset: 0x1E1A2, size: 0x8, addend: 0x0, symName: __ZNSt3__122__tree_key_value_typesIN16BinarySearchTreeI4Duck14DuckWealthLessE16Tree_grid_squareEE9__get_keyB8ne180100ERKS5_, symObjAddr: 0x10E40, symBinAddr: 0x10001463C, symSize: 0x14 }
  - { offset: 0x1E1C6, size: 0x8, addend: 0x0, symName: __ZNSt3__16__treeIN16BinarySearchTreeI4Duck14DuckWealthLessE16Tree_grid_squareENS_4lessIS5_EENS_9allocatorIS5_EEE12__find_equalIS5_EERPNS_16__tree_node_baseIPvEERPNS_15__tree_end_nodeISF_EERKT_, symObjAddr: 0x10E54, symBinAddr: 0x100014650, symSize: 0x184 }
  - { offset: 0x1E233, size: 0x8, addend: 0x0, symName: __ZNSt3__16__treeIN16BinarySearchTreeI4Duck14DuckWealthLessE16Tree_grid_squareENS_4lessIS5_EENS_9allocatorIS5_EEE16__construct_nodeIJS5_EEENS_10unique_ptrINS_11__tree_nodeIS5_PvEENS_22__tree_node_destructorINS8_ISF_EEEEEEDpOT_, symObjAddr: 0x10FD8, symBinAddr: 0x1000147D4, symSize: 0x110 }
  - { offset: 0x1E294, size: 0x8, addend: 0x0, symName: __ZNSt3__16__treeIN16BinarySearchTreeI4Duck14DuckWealthLessE16Tree_grid_squareENS_4lessIS5_EENS_9allocatorIS5_EEE16__insert_node_atEPNS_15__tree_end_nodeIPNS_16__tree_node_baseIPvEEEERSF_SF_, symObjAddr: 0x110E8, symBinAddr: 0x1000148E4, symSize: 0xCC }
  - { offset: 0x1E2E9, size: 0x8, addend: 0x0, symName: __ZNKSt3__110unique_ptrINS_11__tree_nodeIN16BinarySearchTreeI4Duck14DuckWealthLessE16Tree_grid_squareEPvEENS_22__tree_node_destructorINS_9allocatorIS8_EEEEE3getB8ne180100Ev, symObjAddr: 0x111B4, symBinAddr: 0x1000149B0, symSize: 0x28 }
  - { offset: 0x1E30F, size: 0x8, addend: 0x0, symName: __ZNSt3__110unique_ptrINS_11__tree_nodeIN16BinarySearchTreeI4Duck14DuckWealthLessE16Tree_grid_squareEPvEENS_22__tree_node_destructorINS_9allocatorIS8_EEEEE7releaseB8ne180100Ev, symObjAddr: 0x111DC, symBinAddr: 0x1000149D8, symSize: 0x44 }
  - { offset: 0x1E344, size: 0x8, addend: 0x0, symName: __ZNSt3__110unique_ptrINS_11__tree_nodeIN16BinarySearchTreeI4Duck14DuckWealthLessE16Tree_grid_squareEPvEENS_22__tree_node_destructorINS_9allocatorIS8_EEEEED1B8ne180100Ev, symObjAddr: 0x11220, symBinAddr: 0x100014A1C, symSize: 0x2C }
  - { offset: 0x1E36E, size: 0x8, addend: 0x0, symName: __ZNSt3__115__tree_iteratorIN16BinarySearchTreeI4Duck14DuckWealthLessE16Tree_grid_squareEPNS_11__tree_nodeIS5_PvEElEC1B8ne180100ES9_, symObjAddr: 0x1124C, symBinAddr: 0x100014A48, symSize: 0x34 }
  - { offset: 0x1E3AD, size: 0x8, addend: 0x0, symName: __ZNSt3__14pairINS_15__tree_iteratorIN16BinarySearchTreeI4Duck14DuckWealthLessE16Tree_grid_squareEPNS_11__tree_nodeIS6_PvEElEEbEC1B8ne180100ISB_RbLi0EEEOT_OT0_, symObjAddr: 0x11280, symBinAddr: 0x100014A7C, symSize: 0x3C }
  - { offset: 0x1E40B, size: 0x8, addend: 0x0, symName: __ZNKSt3__16__treeIN16BinarySearchTreeI4Duck14DuckWealthLessE16Tree_grid_squareENS_4lessIS5_EENS_9allocatorIS5_EEE6__rootB8ne180100Ev, symObjAddr: 0x112BC, symBinAddr: 0x100014AB8, symSize: 0x28 }
  - { offset: 0x1E431, size: 0x8, addend: 0x0, symName: __ZNKSt3__16__treeIN16BinarySearchTreeI4Duck14DuckWealthLessE16Tree_grid_squareENS_4lessIS5_EENS_9allocatorIS5_EEE10__root_ptrB8ne180100Ev, symObjAddr: 0x112E4, symBinAddr: 0x100014AE0, symSize: 0x24 }
  - { offset: 0x1E457, size: 0x8, addend: 0x0, symName: __ZNSt3__16__treeIN16BinarySearchTreeI4Duck14DuckWealthLessE16Tree_grid_squareENS_4lessIS5_EENS_9allocatorIS5_EEE10value_compB8ne180100Ev, symObjAddr: 0x11308, symBinAddr: 0x100014B04, symSize: 0x28 }
  - { offset: 0x1E47D, size: 0x8, addend: 0x0, symName: __ZNKSt3__14lessIN16BinarySearchTreeI4Duck14DuckWealthLessE16Tree_grid_squareEEclB8ne180100ERKS5_S8_, symObjAddr: 0x11330, symBinAddr: 0x100014B2C, symSize: 0x34 }
  - { offset: 0x1E4C1, size: 0x8, addend: 0x0, symName: __ZNKSt3__16__treeIN16BinarySearchTreeI4Duck14DuckWealthLessE16Tree_grid_squareENS_4lessIS5_EENS_9allocatorIS5_EEE10__end_nodeB8ne180100Ev, symObjAddr: 0x11364, symBinAddr: 0x100014B60, symSize: 0x2C }
  - { offset: 0x1E4E7, size: 0x8, addend: 0x0, symName: __ZNKSt3__117__compressed_pairINS_15__tree_end_nodeIPNS_16__tree_node_baseIPvEEEENS_9allocatorINS_11__tree_nodeIN16BinarySearchTreeI4Duck14DuckWealthLessE16Tree_grid_squareES3_EEEEE5firstB8ne180100Ev, symObjAddr: 0x11390, symBinAddr: 0x100014B8C, symSize: 0x24 }
  - { offset: 0x1E50D, size: 0x8, addend: 0x0, symName: __ZNSt3__117__compressed_pairImNS_4lessIN16BinarySearchTreeI4Duck14DuckWealthLessE16Tree_grid_squareEEEE6secondB8ne180100Ev, symObjAddr: 0x113B4, symBinAddr: 0x100014BB0, symSize: 0x24 }
  - { offset: 0x1E533, size: 0x8, addend: 0x0, symName: __ZNSt3__122__compressed_pair_elemINS_4lessIN16BinarySearchTreeI4Duck14DuckWealthLessE16Tree_grid_squareEEELi1ELb1EE5__getB8ne180100Ev, symObjAddr: 0x113D8, symBinAddr: 0x100014BD4, symSize: 0x14 }
  - { offset: 0x1E559, size: 0x8, addend: 0x0, symName: __ZNK16BinarySearchTreeI4Duck14DuckWealthLessE16Tree_grid_squareltERKS3_, symObjAddr: 0x113EC, symBinAddr: 0x100014BE8, symSize: 0xB0 }
  - { offset: 0x1E58D, size: 0x8, addend: 0x0, symName: __ZNSt3__16__treeIN16BinarySearchTreeI4Duck14DuckWealthLessE16Tree_grid_squareENS_4lessIS5_EENS_9allocatorIS5_EEE12__node_allocB8ne180100Ev, symObjAddr: 0x1149C, symBinAddr: 0x100014C98, symSize: 0x28 }
  - { offset: 0x1E5B3, size: 0x8, addend: 0x0, symName: __ZNSt3__116allocator_traitsINS_9allocatorINS_11__tree_nodeIN16BinarySearchTreeI4Duck14DuckWealthLessE16Tree_grid_squareEPvEEEEE8allocateB8ne180100ERSA_m, symObjAddr: 0x114C4, symBinAddr: 0x100014CC0, symSize: 0x2C }
  - { offset: 0x1E5E6, size: 0x8, addend: 0x0, symName: __ZNSt3__122__tree_node_destructorINS_9allocatorINS_11__tree_nodeIN16BinarySearchTreeI4Duck14DuckWealthLessE16Tree_grid_squareEPvEEEEEC1B8ne180100ERSA_b, symObjAddr: 0x114F0, symBinAddr: 0x100014CEC, symSize: 0x48 }
  - { offset: 0x1E634, size: 0x8, addend: 0x0, symName: __ZNSt3__110unique_ptrINS_11__tree_nodeIN16BinarySearchTreeI4Duck14DuckWealthLessE16Tree_grid_squareEPvEENS_22__tree_node_destructorINS_9allocatorIS8_EEEEEC1B8ne180100ILb1EvEEPS8_NS_16__dependent_typeINS_27__unique_ptr_deleter_sfinaeISC_EEXT_EE20__good_rval_ref_typeE, symObjAddr: 0x11538, symBinAddr: 0x100014D34, symSize: 0x3C }
  - { offset: 0x1E685, size: 0x8, addend: 0x0, symName: __ZNSt3__116allocator_traitsINS_9allocatorINS_11__tree_nodeIN16BinarySearchTreeI4Duck14DuckWealthLessE16Tree_grid_squareEPvEEEEE9constructB8ne180100IS7_JS7_EvEEvRSA_PT_DpOT0_, symObjAddr: 0x11574, symBinAddr: 0x100014D70, symSize: 0x34 }
  - { offset: 0x1E6DC, size: 0x8, addend: 0x0, symName: __ZNSt3__122__tree_key_value_typesIN16BinarySearchTreeI4Duck14DuckWealthLessE16Tree_grid_squareEE9__get_ptrB8ne180100ERS5_, symObjAddr: 0x115A8, symBinAddr: 0x100014DA4, symSize: 0x14 }
  - { offset: 0x1E700, size: 0x8, addend: 0x0, symName: __ZNKSt3__110unique_ptrINS_11__tree_nodeIN16BinarySearchTreeI4Duck14DuckWealthLessE16Tree_grid_squareEPvEENS_22__tree_node_destructorINS_9allocatorIS8_EEEEEptB8ne180100Ev, symObjAddr: 0x115BC, symBinAddr: 0x100014DB8, symSize: 0x28 }
  - { offset: 0x1E726, size: 0x8, addend: 0x0, symName: __ZNSt3__110unique_ptrINS_11__tree_nodeIN16BinarySearchTreeI4Duck14DuckWealthLessE16Tree_grid_squareEPvEENS_22__tree_node_destructorINS_9allocatorIS8_EEEEE11get_deleterB8ne180100Ev, symObjAddr: 0x115E4, symBinAddr: 0x100014DE0, symSize: 0x24 }
  - { offset: 0x1E74C, size: 0x8, addend: 0x0, symName: __ZNSt3__117__compressed_pairINS_15__tree_end_nodeIPNS_16__tree_node_baseIPvEEEENS_9allocatorINS_11__tree_nodeIN16BinarySearchTreeI4Duck14DuckWealthLessE16Tree_grid_squareES3_EEEEE6secondB8ne180100Ev, symObjAddr: 0x11608, symBinAddr: 0x100014E04, symSize: 0x24 }
  - { offset: 0x1E772, size: 0x8, addend: 0x0, symName: __ZNSt3__122__compressed_pair_elemINS_9allocatorINS_11__tree_nodeIN16BinarySearchTreeI4Duck14DuckWealthLessE16Tree_grid_squareEPvEEEELi1ELb1EE5__getB8ne180100Ev, symObjAddr: 0x1162C, symBinAddr: 0x100014E28, symSize: 0x14 }
  - { offset: 0x1E798, size: 0x8, addend: 0x0, symName: __ZNSt3__19allocatorINS_11__tree_nodeIN16BinarySearchTreeI4Duck14DuckWealthLessE16Tree_grid_squareEPvEEE8allocateB8ne180100Em, symObjAddr: 0x11640, symBinAddr: 0x100014E3C, symSize: 0x58 }
  - { offset: 0x1E7D6, size: 0x8, addend: 0x0, symName: __ZNSt3__116allocator_traitsINS_9allocatorINS_11__tree_nodeIN16BinarySearchTreeI4Duck14DuckWealthLessE16Tree_grid_squareEPvEEEEE8max_sizeB8ne180100ISA_vEEmRKSA_, symObjAddr: 0x11698, symBinAddr: 0x100014E94, symSize: 0x24 }
  - { offset: 0x1E804, size: 0x8, addend: 0x0, symName: __ZNKSt3__19allocatorINS_11__tree_nodeIN16BinarySearchTreeI4Duck14DuckWealthLessE16Tree_grid_squareEPvEEE8max_sizeB8ne180100Ev, symObjAddr: 0x116BC, symBinAddr: 0x100014EB8, symSize: 0x14 }
  - { offset: 0x1E82A, size: 0x8, addend: 0x0, symName: __ZNSt3__122__tree_node_destructorINS_9allocatorINS_11__tree_nodeIN16BinarySearchTreeI4Duck14DuckWealthLessE16Tree_grid_squareEPvEEEEEC2B8ne180100ERSA_b, symObjAddr: 0x116D0, symBinAddr: 0x100014ECC, symSize: 0x38 }
  - { offset: 0x1E872, size: 0x8, addend: 0x0, symName: __ZNSt3__110unique_ptrINS_11__tree_nodeIN16BinarySearchTreeI4Duck14DuckWealthLessE16Tree_grid_squareEPvEENS_22__tree_node_destructorINS_9allocatorIS8_EEEEEC2B8ne180100ILb1EvEEPS8_NS_16__dependent_typeINS_27__unique_ptr_deleter_sfinaeISC_EEXT_EE20__good_rval_ref_typeE, symObjAddr: 0x11708, symBinAddr: 0x100014F04, symSize: 0x48 }
  - { offset: 0x1E8C3, size: 0x8, addend: 0x0, symName: __ZNSt3__117__compressed_pairIPNS_11__tree_nodeIN16BinarySearchTreeI4Duck14DuckWealthLessE16Tree_grid_squareEPvEENS_22__tree_node_destructorINS_9allocatorIS8_EEEEEC1B8ne180100IRS9_SD_EEOT_OT0_, symObjAddr: 0x11750, symBinAddr: 0x100014F4C, symSize: 0x3C }
  - { offset: 0x1E91B, size: 0x8, addend: 0x0, symName: __ZNSt3__117__compressed_pairIPNS_11__tree_nodeIN16BinarySearchTreeI4Duck14DuckWealthLessE16Tree_grid_squareEPvEENS_22__tree_node_destructorINS_9allocatorIS8_EEEEEC2B8ne180100IRS9_SD_EEOT_OT0_, symObjAddr: 0x1178C, symBinAddr: 0x100014F88, symSize: 0x48 }
  - { offset: 0x1E973, size: 0x8, addend: 0x0, symName: __ZNSt3__122__compressed_pair_elemIPNS_11__tree_nodeIN16BinarySearchTreeI4Duck14DuckWealthLessE16Tree_grid_squareEPvEELi0ELb0EEC2B8ne180100IRS9_vEEOT_, symObjAddr: 0x117D4, symBinAddr: 0x100014FD0, symSize: 0x24 }
  - { offset: 0x1E9B5, size: 0x8, addend: 0x0, symName: __ZNSt3__122__compressed_pair_elemINS_22__tree_node_destructorINS_9allocatorINS_11__tree_nodeIN16BinarySearchTreeI4Duck14DuckWealthLessE16Tree_grid_squareEPvEEEEEELi1ELb0EEC2B8ne180100ISC_vEEOT_, symObjAddr: 0x117F8, symBinAddr: 0x100014FF4, symSize: 0x24 }
  - { offset: 0x1E9F7, size: 0x8, addend: 0x0, symName: __ZNSt3__19allocatorINS_11__tree_nodeIN16BinarySearchTreeI4Duck14DuckWealthLessE16Tree_grid_squareEPvEEE9constructB8ne180100IS6_JS6_EEEvPT_DpOT0_, symObjAddr: 0x1181C, symBinAddr: 0x100015018, symSize: 0x30 }
  - { offset: 0x1EA4D, size: 0x8, addend: 0x0, symName: __ZN16BinarySearchTreeI4Duck14DuckWealthLessE16Tree_grid_squareC1EOS3_, symObjAddr: 0x1184C, symBinAddr: 0x100015048, symSize: 0x34 }
  - { offset: 0x1EA83, size: 0x8, addend: 0x0, symName: __ZN16BinarySearchTreeI4Duck14DuckWealthLessE16Tree_grid_squareC2EOS3_, symObjAddr: 0x11880, symBinAddr: 0x10001507C, symSize: 0x48 }
  - { offset: 0x1EAB9, size: 0x8, addend: 0x0, symName: __ZNKSt3__117__compressed_pairIPNS_11__tree_nodeIN16BinarySearchTreeI4Duck14DuckWealthLessE16Tree_grid_squareEPvEENS_22__tree_node_destructorINS_9allocatorIS8_EEEEE5firstB8ne180100Ev, symObjAddr: 0x118C8, symBinAddr: 0x1000150C4, symSize: 0x24 }
  - { offset: 0x1EADF, size: 0x8, addend: 0x0, symName: __ZNKSt3__122__compressed_pair_elemIPNS_11__tree_nodeIN16BinarySearchTreeI4Duck14DuckWealthLessE16Tree_grid_squareEPvEELi0ELb0EE5__getB8ne180100Ev, symObjAddr: 0x118EC, symBinAddr: 0x1000150E8, symSize: 0x14 }
  - { offset: 0x1EB05, size: 0x8, addend: 0x0, symName: __ZNSt3__117__compressed_pairIPNS_11__tree_nodeIN16BinarySearchTreeI4Duck14DuckWealthLessE16Tree_grid_squareEPvEENS_22__tree_node_destructorINS_9allocatorIS8_EEEEE6secondB8ne180100Ev, symObjAddr: 0x11900, symBinAddr: 0x1000150FC, symSize: 0x28 }
  - { offset: 0x1EB2B, size: 0x8, addend: 0x0, symName: __ZNSt3__122__compressed_pair_elemINS_22__tree_node_destructorINS_9allocatorINS_11__tree_nodeIN16BinarySearchTreeI4Duck14DuckWealthLessE16Tree_grid_squareEPvEEEEEELi1ELb0EE5__getB8ne180100Ev, symObjAddr: 0x11928, symBinAddr: 0x100015124, symSize: 0x14 }
  - { offset: 0x1EB51, size: 0x8, addend: 0x0, symName: __ZNSt3__16__treeIN16BinarySearchTreeI4Duck14DuckWealthLessE16Tree_grid_squareENS_4lessIS5_EENS_9allocatorIS5_EEE4sizeB8ne180100Ev, symObjAddr: 0x1193C, symBinAddr: 0x100015138, symSize: 0x28 }
  - { offset: 0x1EB77, size: 0x8, addend: 0x0, symName: __ZNSt3__117__compressed_pairImNS_4lessIN16BinarySearchTreeI4Duck14DuckWealthLessE16Tree_grid_squareEEEE5firstB8ne180100Ev, symObjAddr: 0x11964, symBinAddr: 0x100015160, symSize: 0x24 }
  - { offset: 0x1EB9D, size: 0x8, addend: 0x0, symName: __ZNSt3__117__compressed_pairIPNS_11__tree_nodeIN16BinarySearchTreeI4Duck14DuckWealthLessE16Tree_grid_squareEPvEENS_22__tree_node_destructorINS_9allocatorIS8_EEEEE5firstB8ne180100Ev, symObjAddr: 0x11988, symBinAddr: 0x100015184, symSize: 0x24 }
  - { offset: 0x1EBC3, size: 0x8, addend: 0x0, symName: __ZNSt3__122__compressed_pair_elemIPNS_11__tree_nodeIN16BinarySearchTreeI4Duck14DuckWealthLessE16Tree_grid_squareEPvEELi0ELb0EE5__getB8ne180100Ev, symObjAddr: 0x119AC, symBinAddr: 0x1000151A8, symSize: 0x14 }
  - { offset: 0x1EBE9, size: 0x8, addend: 0x0, symName: __ZNSt3__110unique_ptrINS_11__tree_nodeIN16BinarySearchTreeI4Duck14DuckWealthLessE16Tree_grid_squareEPvEENS_22__tree_node_destructorINS_9allocatorIS8_EEEEED2B8ne180100Ev, symObjAddr: 0x119C0, symBinAddr: 0x1000151BC, symSize: 0x30 }
  - { offset: 0x1EC13, size: 0x8, addend: 0x0, symName: __ZNSt3__110unique_ptrINS_11__tree_nodeIN16BinarySearchTreeI4Duck14DuckWealthLessE16Tree_grid_squareEPvEENS_22__tree_node_destructorINS_9allocatorIS8_EEEEE5resetB8ne180100EPS8_, symObjAddr: 0x119F0, symBinAddr: 0x1000151EC, symSize: 0x78 }
  - { offset: 0x1EC57, size: 0x8, addend: 0x0, symName: __ZNSt3__122__tree_node_destructorINS_9allocatorINS_11__tree_nodeIN16BinarySearchTreeI4Duck14DuckWealthLessE16Tree_grid_squareEPvEEEEEclB8ne180100EPS9_, symObjAddr: 0x11A68, symBinAddr: 0x100015264, symSize: 0x90 }
  - { offset: 0x1EC8C, size: 0x8, addend: 0x0, symName: __ZNSt3__116allocator_traitsINS_9allocatorINS_11__tree_nodeIN16BinarySearchTreeI4Duck14DuckWealthLessE16Tree_grid_squareEPvEEEEE7destroyB8ne180100IS7_vvEEvRSA_PT_, symObjAddr: 0x11AF8, symBinAddr: 0x1000152F4, symSize: 0x28 }
  - { offset: 0x1ECC7, size: 0x8, addend: 0x0, symName: __ZNSt3__116allocator_traitsINS_9allocatorINS_11__tree_nodeIN16BinarySearchTreeI4Duck14DuckWealthLessE16Tree_grid_squareEPvEEEEE10deallocateB8ne180100ERSA_PS9_m, symObjAddr: 0x11B20, symBinAddr: 0x10001531C, symSize: 0x34 }
  - { offset: 0x1ED09, size: 0x8, addend: 0x0, symName: __ZNSt3__19allocatorINS_11__tree_nodeIN16BinarySearchTreeI4Duck14DuckWealthLessE16Tree_grid_squareEPvEEE10deallocateB8ne180100EPS8_m, symObjAddr: 0x11B78, symBinAddr: 0x100015374, symSize: 0x40 }
  - { offset: 0x1ED4B, size: 0x8, addend: 0x0, symName: __ZNSt3__115__tree_iteratorIN16BinarySearchTreeI4Duck14DuckWealthLessE16Tree_grid_squareEPNS_11__tree_nodeIS5_PvEElEC2B8ne180100ES9_, symObjAddr: 0x11BB8, symBinAddr: 0x1000153B4, symSize: 0x20 }
  - { offset: 0x1ED84, size: 0x8, addend: 0x0, symName: __ZNSt3__14pairINS_15__tree_iteratorIN16BinarySearchTreeI4Duck14DuckWealthLessE16Tree_grid_squareEPNS_11__tree_nodeIS6_PvEElEEbEC2B8ne180100ISB_RbLi0EEEOT_OT0_, symObjAddr: 0x11BD8, symBinAddr: 0x1000153D4, symSize: 0x38 }
  - { offset: 0x1EDE2, size: 0x8, addend: 0x0, symName: __ZNSt3__14pairINS_21__tree_const_iteratorIN16BinarySearchTreeI4Duck14DuckWealthLessE16Tree_grid_squareEPNS_11__tree_nodeIS6_PvEElEEbEC2B8ne180100INS_15__tree_iteratorIS6_SA_lEEbLi0EEEONS0_IT_T0_EE, symObjAddr: 0x11C10, symBinAddr: 0x10001540C, symSize: 0x50 }
  - { offset: 0x1EE32, size: 0x8, addend: 0x0, symName: __ZNSt3__121__tree_const_iteratorIN16BinarySearchTreeI4Duck14DuckWealthLessE16Tree_grid_squareEPNS_11__tree_nodeIS5_PvEElEC1B8ne180100ENS_15__tree_iteratorIS5_S9_lEE, symObjAddr: 0x11C60, symBinAddr: 0x10001545C, symSize: 0x34 }
  - { offset: 0x1EE6B, size: 0x8, addend: 0x0, symName: __ZNSt3__121__tree_const_iteratorIN16BinarySearchTreeI4Duck14DuckWealthLessE16Tree_grid_squareEPNS_11__tree_nodeIS5_PvEElEC2B8ne180100ENS_15__tree_iteratorIS5_S9_lEE, symObjAddr: 0x11C94, symBinAddr: 0x100015490, symSize: 0x20 }
  - { offset: 0x1EEA4, size: 0x8, addend: 0x0, symName: __ZN16BinarySearchTreeI4Duck14DuckWealthLessE16Tree_grid_squareC2IS0_EEiiT_, symObjAddr: 0x11CB4, symBinAddr: 0x1000154B0, symSize: 0xE8 }
  - { offset: 0x1EF16, size: 0x8, addend: 0x0, symName: __ZN16BinarySearchTreeI4Duck14DuckWealthLessE16Tree_grid_squareC2IPKcEEiiT_, symObjAddr: 0x11D9C, symBinAddr: 0x100015598, symSize: 0xE4 }
  - { offset: 0x1EF88, size: 0x8, addend: 0x0, symName: __ZNSt3__16__treeIN16BinarySearchTreeI4Duck14DuckWealthLessE16Tree_grid_squareENS_4lessIS5_EENS_9allocatorIS5_EEE4findIS5_EENS_15__tree_iteratorIS5_PNS_11__tree_nodeIS5_PvEElEERKT_, symObjAddr: 0x11E80, symBinAddr: 0x10001567C, symSize: 0xF8 }
  - { offset: 0x1EFD7, size: 0x8, addend: 0x0, symName: __ZNSt3__16__treeIN16BinarySearchTreeI4Duck14DuckWealthLessE16Tree_grid_squareENS_4lessIS5_EENS_9allocatorIS5_EEE13__lower_boundIS5_EENS_15__tree_iteratorIS5_PNS_11__tree_nodeIS5_PvEElEERKT_SG_PNS_15__tree_end_nodeIPNS_16__tree_node_baseISE_EEEE, symObjAddr: 0x11F78, symBinAddr: 0x100015774, symSize: 0xA4 }
  - { offset: 0x1F035, size: 0x8, addend: 0x0, symName: __ZNSt3__16__treeIN16BinarySearchTreeI4Duck14DuckWealthLessE16Tree_grid_squareENS_4lessIS5_EENS_9allocatorIS5_EEE3endB8ne180100Ev, symObjAddr: 0x12050, symBinAddr: 0x10001584C, symSize: 0x34 }
  - { offset: 0x1F05B, size: 0x8, addend: 0x0, symName: __ZNKSt3__115__tree_iteratorIN16BinarySearchTreeI4Duck14DuckWealthLessE16Tree_grid_squareEPNS_11__tree_nodeIS5_PvEElEdeB8ne180100Ev, symObjAddr: 0x12084, symBinAddr: 0x100015880, symSize: 0x28 }
  - { offset: 0x1F081, size: 0x8, addend: 0x0, symName: __ZNSt3__115__tree_iteratorIN16BinarySearchTreeI4Duck14DuckWealthLessE16Tree_grid_squareEPNS_11__tree_nodeIS5_PvEElEC1B8ne180100EPNS_15__tree_end_nodeIPNS_16__tree_node_baseIS7_EEEE, symObjAddr: 0x120AC, symBinAddr: 0x1000158A8, symSize: 0x34 }
  - { offset: 0x1F0BA, size: 0x8, addend: 0x0, symName: __ZNSt3__115__tree_iteratorIN16BinarySearchTreeI4Duck14DuckWealthLessE16Tree_grid_squareEPNS_11__tree_nodeIS5_PvEElEC2B8ne180100EPNS_15__tree_end_nodeIPNS_16__tree_node_baseIS7_EEEE, symObjAddr: 0x120E0, symBinAddr: 0x1000158DC, symSize: 0x20 }
  - { offset: 0x1F0F3, size: 0x8, addend: 0x0, symName: __ZNKSt3__115__tree_iteratorIN16BinarySearchTreeI4Duck14DuckWealthLessE16Tree_grid_squareEPNS_11__tree_nodeIS5_PvEElE8__get_npB8ne180100Ev, symObjAddr: 0x12130, symBinAddr: 0x10001592C, symSize: 0x18 }
  - { offset: 0x1F119, size: 0x8, addend: 0x0, symName: __ZNSt3__16__treeIN16BinarySearchTreeI4Duck14DuckWealthLessE16Tree_grid_squareENS_4lessIS5_EENS_9allocatorIS5_EEE5eraseENS_21__tree_const_iteratorIS5_PNS_11__tree_nodeIS5_PvEElEE, symObjAddr: 0x12178, symBinAddr: 0x100015974, symSize: 0x98 }
  - { offset: 0x1F17D, size: 0x8, addend: 0x0, symName: __ZNKSt3__121__tree_const_iteratorIN16BinarySearchTreeI4Duck14DuckWealthLessE16Tree_grid_squareEPNS_11__tree_nodeIS5_PvEElE8__get_npB8ne180100Ev, symObjAddr: 0x12210, symBinAddr: 0x100015A0C, symSize: 0x18 }
  - { offset: 0x1F1A3, size: 0x8, addend: 0x0, symName: __ZNSt3__16__treeIN16BinarySearchTreeI4Duck14DuckWealthLessE16Tree_grid_squareENS_4lessIS5_EENS_9allocatorIS5_EEE21__remove_node_pointerEPNS_11__tree_nodeIS5_PvEE, symObjAddr: 0x12228, symBinAddr: 0x100015A24, symSize: 0xB4 }
  - { offset: 0x1F1E9, size: 0x8, addend: 0x0, symName: __ZNKSt3__121__tree_const_iteratorIN16BinarySearchTreeI4Duck14DuckWealthLessE16Tree_grid_squareEPNS_11__tree_nodeIS5_PvEElEdeB8ne180100Ev, symObjAddr: 0x122DC, symBinAddr: 0x100015AD8, symSize: 0x28 }
  - { offset: 0x1F20F, size: 0x8, addend: 0x0, symName: __ZNSt3__115__tree_iteratorIN16BinarySearchTreeI4Duck14DuckWealthLessE16Tree_grid_squareEPNS_11__tree_nodeIS5_PvEElEppB8ne180100Ev, symObjAddr: 0x12304, symBinAddr: 0x100015B00, symSize: 0x38 }
  - { offset: 0x1F235, size: 0x8, addend: 0x0, symName: __ZNSt3__16__treeIN16BinarySearchTreeI4Duck14DuckWealthLessE16Tree_grid_squareENS_4lessIS5_EENS_9allocatorIS5_EEE15__insert_uniqueB8ne180100ERKS5_, symObjAddr: 0x1233C, symBinAddr: 0x100015B38, symSize: 0x50 }
  - { offset: 0x1F26A, size: 0x8, addend: 0x0, symName: __ZNSt3__16__treeIN16BinarySearchTreeI4Duck14DuckWealthLessE16Tree_grid_squareENS_4lessIS5_EENS_9allocatorIS5_EEE25__emplace_unique_key_argsIS5_JRKS5_EEENS_4pairINS_15__tree_iteratorIS5_PNS_11__tree_nodeIS5_PvEElEEbEERKT_DpOT0_, symObjAddr: 0x1238C, symBinAddr: 0x100015B88, symSize: 0xF0 }
  - { offset: 0x1F316, size: 0x8, addend: 0x0, symName: __ZNSt3__16__treeIN16BinarySearchTreeI4Duck14DuckWealthLessE16Tree_grid_squareENS_4lessIS5_EENS_9allocatorIS5_EEE16__construct_nodeIJRKS5_EEENS_10unique_ptrINS_11__tree_nodeIS5_PvEENS_22__tree_node_destructorINS8_ISH_EEEEEEDpOT_, symObjAddr: 0x1247C, symBinAddr: 0x100015C78, symSize: 0x108 }
  - { offset: 0x1F377, size: 0x8, addend: 0x0, symName: __ZNSt3__116allocator_traitsINS_9allocatorINS_11__tree_nodeIN16BinarySearchTreeI4Duck14DuckWealthLessE16Tree_grid_squareEPvEEEEE9constructB8ne180100IS7_JRKS7_EvEEvRSA_PT_DpOT0_, symObjAddr: 0x12584, symBinAddr: 0x100015D80, symSize: 0x34 }
  - { offset: 0x1F3CE, size: 0x8, addend: 0x0, symName: __ZNSt3__19allocatorINS_11__tree_nodeIN16BinarySearchTreeI4Duck14DuckWealthLessE16Tree_grid_squareEPvEEE9constructB8ne180100IS6_JRKS6_EEEvPT_DpOT0_, symObjAddr: 0x125B8, symBinAddr: 0x100015DB4, symSize: 0x30 }
  - { offset: 0x1F424, size: 0x8, addend: 0x0, symName: __ZN16BinarySearchTreeI4Duck14DuckWealthLessE16Tree_grid_squareC1ERKS3_, symObjAddr: 0x125E8, symBinAddr: 0x100015DE4, symSize: 0x34 }
  - { offset: 0x1F45A, size: 0x8, addend: 0x0, symName: __ZN16BinarySearchTreeI4Duck14DuckWealthLessE16Tree_grid_squareC2ERKS3_, symObjAddr: 0x1261C, symBinAddr: 0x100015E18, symSize: 0x48 }
  - { offset: 0x1F490, size: 0x8, addend: 0x0, symName: __ZNSt3__13setIN16BinarySearchTreeI4Duck14DuckWealthLessE16Tree_grid_squareENS_4lessIS5_EENS_9allocatorIS5_EEED2B8ne180100Ev, symObjAddr: 0x12664, symBinAddr: 0x100015E60, symSize: 0x2C }
  - { offset: 0x1F4BA, size: 0x8, addend: 0x0, symName: __ZNSt3__16__treeIN16BinarySearchTreeI4Duck14DuckWealthLessE16Tree_grid_squareENS_4lessIS5_EENS_9allocatorIS5_EEED1Ev, symObjAddr: 0x12690, symBinAddr: 0x100015E8C, symSize: 0x2C }
  - { offset: 0x1F4E6, size: 0x8, addend: 0x0, symName: __ZNSt3__16__treeIN16BinarySearchTreeI4Duck14DuckWealthLessE16Tree_grid_squareENS_4lessIS5_EENS_9allocatorIS5_EEED2Ev, symObjAddr: 0x126BC, symBinAddr: 0x100015EB8, symSize: 0x38 }
  - { offset: 0x1F512, size: 0x8, addend: 0x0, symName: __ZNSt3__16__treeIN16BinarySearchTreeI4Duck14DuckWealthLessE16Tree_grid_squareENS_4lessIS5_EENS_9allocatorIS5_EEE7destroyEPNS_11__tree_nodeIS5_PvEE, symObjAddr: 0x126F4, symBinAddr: 0x100015EF0, symSize: 0xA4 }
  - { offset: 0x1F55E, size: 0x8, addend: 0x0, symName: __ZNKSt3__13setIN16BinarySearchTreeI4Duck14DuckWealthLessE16Tree_grid_squareENS_4lessIS5_EENS_9allocatorIS5_EEE4findB8ne180100ERKS5_, symObjAddr: 0x12798, symBinAddr: 0x100015F94, symSize: 0x34 }
  - { offset: 0x1F593, size: 0x8, addend: 0x0, symName: __ZNKSt3__13setIN16BinarySearchTreeI4Duck14DuckWealthLessE16Tree_grid_squareENS_4lessIS5_EENS_9allocatorIS5_EEE3endB8ne180100Ev, symObjAddr: 0x127CC, symBinAddr: 0x100015FC8, symSize: 0x2C }
  - { offset: 0x1F5B9, size: 0x8, addend: 0x0, symName: __ZNKSt3__16__treeIN16BinarySearchTreeI4Duck14DuckWealthLessE16Tree_grid_squareENS_4lessIS5_EENS_9allocatorIS5_EEE4findIS5_EENS_21__tree_const_iteratorIS5_PNS_11__tree_nodeIS5_PvEElEERKT_, symObjAddr: 0x127F8, symBinAddr: 0x100015FF4, symSize: 0xF8 }
  - { offset: 0x1F608, size: 0x8, addend: 0x0, symName: __ZNKSt3__16__treeIN16BinarySearchTreeI4Duck14DuckWealthLessE16Tree_grid_squareENS_4lessIS5_EENS_9allocatorIS5_EEE13__lower_boundIS5_EENS_21__tree_const_iteratorIS5_PNS_11__tree_nodeIS5_PvEElEERKT_SG_PNS_15__tree_end_nodeIPNS_16__tree_node_baseISE_EEEE, symObjAddr: 0x128F0, symBinAddr: 0x1000160EC, symSize: 0xA4 }
  - { offset: 0x1F666, size: 0x8, addend: 0x0, symName: __ZNKSt3__16__treeIN16BinarySearchTreeI4Duck14DuckWealthLessE16Tree_grid_squareENS_4lessIS5_EENS_9allocatorIS5_EEE3endB8ne180100Ev, symObjAddr: 0x12994, symBinAddr: 0x100016190, symSize: 0x34 }
  - { offset: 0x1F68C, size: 0x8, addend: 0x0, symName: __ZNKSt3__16__treeIN16BinarySearchTreeI4Duck14DuckWealthLessE16Tree_grid_squareENS_4lessIS5_EENS_9allocatorIS5_EEE10value_compB8ne180100Ev, symObjAddr: 0x129C8, symBinAddr: 0x1000161C4, symSize: 0x28 }
  - { offset: 0x1F6B2, size: 0x8, addend: 0x0, symName: __ZNSt3__121__tree_const_iteratorIN16BinarySearchTreeI4Duck14DuckWealthLessE16Tree_grid_squareEPNS_11__tree_nodeIS5_PvEElEC1B8ne180100EPNS_15__tree_end_nodeIPNS_16__tree_node_baseIS7_EEEE, symObjAddr: 0x129F0, symBinAddr: 0x1000161EC, symSize: 0x34 }
  - { offset: 0x1F6EB, size: 0x8, addend: 0x0, symName: __ZNSt3__121__tree_const_iteratorIN16BinarySearchTreeI4Duck14DuckWealthLessE16Tree_grid_squareEPNS_11__tree_nodeIS5_PvEElEC2B8ne180100EPNS_15__tree_end_nodeIPNS_16__tree_node_baseIS7_EEEE, symObjAddr: 0x12A24, symBinAddr: 0x100016220, symSize: 0x20 }
  - { offset: 0x1F724, size: 0x8, addend: 0x0, symName: __ZNKSt3__117__compressed_pairImNS_4lessIN16BinarySearchTreeI4Duck14DuckWealthLessE16Tree_grid_squareEEEE6secondB8ne180100Ev, symObjAddr: 0x12A44, symBinAddr: 0x100016240, symSize: 0x24 }
  - { offset: 0x1F74A, size: 0x8, addend: 0x0, symName: __ZNKSt3__122__compressed_pair_elemINS_4lessIN16BinarySearchTreeI4Duck14DuckWealthLessE16Tree_grid_squareEEELi1ELb1EE5__getB8ne180100Ev, symObjAddr: 0x12A68, symBinAddr: 0x100016264, symSize: 0x14 }
  - { offset: 0x1F770, size: 0x8, addend: 0x0, symName: __ZN16BinarySearchTreeI4Duck14DuckWealthLessE16Tree_grid_squareC2Eii, symObjAddr: 0x12A7C, symBinAddr: 0x100016278, symSize: 0x48 }
  - { offset: 0x1F7B6, size: 0x8, addend: 0x0, symName: __ZN16BinarySearchTreeI4Duck14DuckWealthLessE16Tree_grid_squareD2Ev, symObjAddr: 0x12AC4, symBinAddr: 0x1000162C0, symSize: 0x30 }
  - { offset: 0x1F7E3, size: 0x8, addend: 0x0, symName: __ZN16BinarySearchTreeI4Duck14DuckWealthLessE9Tree_gridD2Ev, symObjAddr: 0x12AF4, symBinAddr: 0x1000162F0, symSize: 0x2C }
  - { offset: 0x1F810, size: 0x8, addend: 0x0, symName: __ZN16BinarySearchTreeIiNSt3__14lessIiEEE21min_greater_than_implEPNS3_4NodeERKiS2_, symObjAddr: 0x12B20, symBinAddr: 0x10001631C, symSize: 0xB0 }
  - { offset: 0x1F86F, size: 0x8, addend: 0x0, symName: __ZN16BinarySearchTreeI4Duck14DuckWealthLessE21min_greater_than_implEPNS2_4NodeERKS0_S1_, symObjAddr: 0x12BD0, symBinAddr: 0x1000163CC, symSize: 0xB0 }
  - { offset: 0x1F8CE, size: 0x8, addend: 0x0, symName: __ZNKSt3__112basic_stringIcNS_11char_traitsIcEENS_9allocatorIcEEE4dataB8ne180100Ev, symObjAddr: 0x12C80, symBinAddr: 0x10001647C, symSize: 0x28 }
  - { offset: 0x1F8F4, size: 0x8, addend: 0x0, symName: __ZNKSt3__112basic_stringIcNS_11char_traitsIcEENS_9allocatorIcEEE13__get_pointerB8ne180100Ev, symObjAddr: 0x12CBC, symBinAddr: 0x1000164B8, symSize: 0x54 }
  - { offset: 0x1F91A, size: 0x8, addend: 0x0, symName: __ZNKSt3__112basic_stringIcNS_11char_traitsIcEENS_9allocatorIcEEE18__get_long_pointerB8ne180100Ev, symObjAddr: 0x12D10, symBinAddr: 0x10001650C, symSize: 0x28 }
  - { offset: 0x1F940, size: 0x8, addend: 0x0, symName: __ZNKSt3__112basic_stringIcNS_11char_traitsIcEENS_9allocatorIcEEE19__get_short_pointerB8ne180100Ev, symObjAddr: 0x12D38, symBinAddr: 0x100016534, symSize: 0x28 }
  - { offset: 0x1F966, size: 0x8, addend: 0x0, symName: __ZNSt3__114pointer_traitsIPKcE10pointer_toB8ne180100ERS1_, symObjAddr: 0x12D60, symBinAddr: 0x10001655C, symSize: 0x14 }
...
