---
triple:          'arm64-apple-darwin'
binary-path:     classifier.exe
relocations:
  - { offset: 0x5C, size: 0x8, addend: 0x0, symName: __ZNSt3__119piecewise_constructE, symObjAddr: 0xCC95, symBinAddr: 0x10000F80D, symSize: 0x0 }
  - { offset: 0x1169F, size: 0x8, addend: 0x0, symName: __ZNSt3__124__put_character_sequenceB8ne180100IcNS_11char_traitsIcEEEERNS_13basic_ostreamIT_T0_EES7_PKS4_m, symObjAddr: 0x3EB8, symBinAddr: 0x100006670, symSize: 0x1EC }
  - { offset: 0x1721B, size: 0x8, addend: 0x0, symName: __ZNSt3__1lsB8ne180100INS_11char_traitsIcEEEERNS_13basic_ostreamIcT_EES6_PKc, symObjAddr: 0x2E4, symBinAddr: 0x100002A9C, symSize: 0x48 }
  - { offset: 0x17261, size: 0x8, addend: 0x0, symName: __ZNSt3__14endlB8ne180100IcNS_11char_traitsIcEEEERNS_13basic_ostreamIT_T0_EES7_, symObjAddr: 0x358, symBinAddr: 0x100002B10, symSize: 0x58 }
  - { offset: 0x18DE7, size: 0x8, addend: 0x0, symName: __ZNSt3__17getlineB8ne180100IcNS_11char_traitsIcEENS_9allocatorIcEEEERNS_13basic_istreamIT_T0_EES9_RNS_12basic_stringIS6_S7_T1_EE, symObjAddr: 0x10AC, symBinAddr: 0x100003864, symSize: 0x5C }
  - { offset: 0x18E3F, size: 0x8, addend: 0x0, symName: __ZNSt3__1neB8ne180100ERKNS_14__map_iteratorINS_15__tree_iteratorINS_12__value_typeINS_12basic_stringIcNS_11char_traitsIcEENS_9allocatorIcEEEENS_4pairIidEEEEPNS_11__tree_nodeISB_PvEElEEEESJ_, symObjAddr: 0x14D4, symBinAddr: 0x100003C8C, symSize: 0x30 }
  - { offset: 0x18E7C, size: 0x8, addend: 0x0, symName: __ZNSt3__13getB8ne180100ILm0EKNS_12basic_stringIcNS_11char_traitsIcEENS_9allocatorIcEEEENS_4pairIidEEEERNS_13tuple_elementIXT_ENS8_IT0_T1_EEE4typeERSD_, symObjAddr: 0x152C, symBinAddr: 0x100003CE4, symSize: 0x24 }
  - { offset: 0x18EC6, size: 0x8, addend: 0x0, symName: __ZNSt3__13getB8ne180100ILm1EKNS_12basic_stringIcNS_11char_traitsIcEENS_9allocatorIcEEEENS_4pairIidEEEERNS_13tuple_elementIXT_ENS8_IT0_T1_EEE4typeERSD_, symObjAddr: 0x1550, symBinAddr: 0x100003D08, symSize: 0x24 }
  - { offset: 0x18F10, size: 0x8, addend: 0x0, symName: __ZNSt3__1neB8ne180100ERKNS_14__map_iteratorINS_15__tree_iteratorINS_12__value_typeINS_4pairINS_12basic_stringIcNS_11char_traitsIcEENS_9allocatorIcEEEES9_EENS3_IidEEEEPNS_11__tree_nodeISC_PvEElEEEESK_, symObjAddr: 0x1670, symBinAddr: 0x100003E28, symSize: 0x30 }
  - { offset: 0x18F4D, size: 0x8, addend: 0x0, symName: __ZNSt3__13getB8ne180100ILm0EKNS_4pairINS_12basic_stringIcNS_11char_traitsIcEENS_9allocatorIcEEEES7_EENS1_IidEEEERNS_13tuple_elementIXT_ENS1_IT0_T1_EEE4typeERSE_, symObjAddr: 0x16C8, symBinAddr: 0x100003E80, symSize: 0x24 }
  - { offset: 0x18F97, size: 0x8, addend: 0x0, symName: __ZNSt3__13getB8ne180100ILm1EKNS_4pairINS_12basic_stringIcNS_11char_traitsIcEENS_9allocatorIcEEEES7_EENS1_IidEEEERNS_13tuple_elementIXT_ENS1_IT0_T1_EEE4typeERSE_, symObjAddr: 0x16EC, symBinAddr: 0x100003EA4, symSize: 0x24 }
  - { offset: 0x1940A, size: 0x8, addend: 0x0, symName: __ZNSt3__17getlineB8ne180100IcNS_11char_traitsIcEENS_9allocatorIcEEEERNS_13basic_istreamIT_T0_EES9_RNS_12basic_stringIS6_S7_T1_EES6_, symObjAddr: 0x1A08, symBinAddr: 0x1000041C0, symSize: 0x238 }
  - { offset: 0x194D3, size: 0x8, addend: 0x0, symName: __ZNSt3__1rsB8ne180100IcNS_11char_traitsIcEENS_9allocatorIcEEEERNS_13basic_istreamIT_T0_EES9_RNS_12basic_stringIS6_S7_T1_EE, symObjAddr: 0x1F5C, symBinAddr: 0x100004714, symSize: 0x308 }
  - { offset: 0x195A0, size: 0x8, addend: 0x0, symName: __ZNSt3__1neB8ne180100ERKNS_21__tree_const_iteratorINS_12basic_stringIcNS_11char_traitsIcEENS_9allocatorIcEEEEPNS_11__tree_nodeIS6_PvEElEESD_, symObjAddr: 0x2320, symBinAddr: 0x100004AD8, symSize: 0x34 }
  - { offset: 0x195DD, size: 0x8, addend: 0x0, symName: __ZNSt3__1neB8ne180100ERKNS_14__map_iteratorINS_15__tree_iteratorINS_12__value_typeIiNS_4pairINS_12basic_stringIcNS_11char_traitsIcEENS_9allocatorIcEEEES9_EEEEPNS_11__tree_nodeISB_PvEElEEEESJ_, symObjAddr: 0x273C, symBinAddr: 0x100004EF4, symSize: 0x30 }
  - { offset: 0x1961A, size: 0x8, addend: 0x0, symName: __ZNSt3__13getB8ne180100ILm0EKiNS_4pairINS_12basic_stringIcNS_11char_traitsIcEENS_9allocatorIcEEEES8_EEEERKNS_13tuple_elementIXT_ENS2_IT0_T1_EEE4typeERKSD_, symObjAddr: 0x2794, symBinAddr: 0x100004F4C, symSize: 0x24 }
  - { offset: 0x19664, size: 0x8, addend: 0x0, symName: __ZNSt3__13getB8ne180100ILm1EKiNS_4pairINS_12basic_stringIcNS_11char_traitsIcEENS_9allocatorIcEEEES8_EEEERKNS_13tuple_elementIXT_ENS2_IT0_T1_EEE4typeERKSD_, symObjAddr: 0x27B8, symBinAddr: 0x100004F70, symSize: 0x24 }
  - { offset: 0x196AE, size: 0x8, addend: 0x0, symName: __ZNSt3__1lsB8ne180100IcNS_11char_traitsIcEENS_9allocatorIcEEEERNS_13basic_ostreamIT_T0_EES9_RKNS_12basic_stringIS6_S7_T1_EE, symObjAddr: 0x27DC, symBinAddr: 0x100004F94, symSize: 0x4C }
  - { offset: 0x19706, size: 0x8, addend: 0x0, symName: __ZNSt3__13getB8ne180100ILm0EKNS_12basic_stringIcNS_11char_traitsIcEENS_9allocatorIcEEEENS_4pairIidEEEERKNS_13tuple_elementIXT_ENS8_IT0_T1_EEE4typeERKSD_, symObjAddr: 0x2854, symBinAddr: 0x10000500C, symSize: 0x24 }
  - { offset: 0x19750, size: 0x8, addend: 0x0, symName: __ZNSt3__13getB8ne180100ILm1EKNS_12basic_stringIcNS_11char_traitsIcEENS_9allocatorIcEEEENS_4pairIidEEEERKNS_13tuple_elementIXT_ENS8_IT0_T1_EEE4typeERKSD_, symObjAddr: 0x2878, symBinAddr: 0x100005030, symSize: 0x24 }
  - { offset: 0x1979A, size: 0x8, addend: 0x0, symName: __ZNSt3__13getB8ne180100ILm0EKNS_4pairINS_12basic_stringIcNS_11char_traitsIcEENS_9allocatorIcEEEES7_EENS1_IidEEEERKNS_13tuple_elementIXT_ENS1_IT0_T1_EEE4typeERKSE_, symObjAddr: 0x289C, symBinAddr: 0x100005054, symSize: 0x24 }
  - { offset: 0x197E4, size: 0x8, addend: 0x0, symName: __ZNSt3__13getB8ne180100ILm1EKNS_4pairINS_12basic_stringIcNS_11char_traitsIcEENS_9allocatorIcEEEES7_EENS1_IidEEEERKNS_13tuple_elementIXT_ENS1_IT0_T1_EEE4typeERKSE_, symObjAddr: 0x28C0, symBinAddr: 0x100005078, symSize: 0x24 }
  - { offset: 0x199E8, size: 0x8, addend: 0x0, symName: __ZNSt3__112__destroy_atB8ne180100INS_4pairIKNS1_INS_12basic_stringIcNS_11char_traitsIcEENS_9allocatorIcEEEES7_EENS1_IidEEEELi0EEEvPT_, symObjAddr: 0x2CCC, symBinAddr: 0x100005484, symSize: 0x24 }
  - { offset: 0x19A1F, size: 0x8, addend: 0x0, symName: __ZNSt3__17launderB8ne180100INS_4pairIKNS1_INS_12basic_stringIcNS_11char_traitsIcEENS_9allocatorIcEEEES7_EENS1_IidEEEEEEPT_SD_, symObjAddr: 0x2D6C, symBinAddr: 0x100005524, symSize: 0x24 }
  - { offset: 0x19A56, size: 0x8, addend: 0x0, symName: __ZNSt3__19__launderB8ne180100INS_4pairIKNS1_INS_12basic_stringIcNS_11char_traitsIcEENS_9allocatorIcEEEES7_EENS1_IidEEEEEEPT_SD_, symObjAddr: 0x2D90, symBinAddr: 0x100005548, symSize: 0x14 }
  - { offset: 0x19A8D, size: 0x8, addend: 0x0, symName: __ZNSt3__119__libcpp_deallocateB8ne180100EPvmm, symObjAddr: 0x2DE8, symBinAddr: 0x1000055A0, symSize: 0x60 }
  - { offset: 0x19AF2, size: 0x8, addend: 0x0, symName: __ZNSt3__124__is_overaligned_for_newB8ne180100Em, symObjAddr: 0x2E48, symBinAddr: 0x100005600, symSize: 0x20 }
  - { offset: 0x19B20, size: 0x8, addend: 0x0, symName: __ZNSt3__127__do_deallocate_handle_sizeB8ne180100IJSt11align_val_tEEEvPvmDpT_, symObjAddr: 0x2E68, symBinAddr: 0x100005620, symSize: 0x30 }
  - { offset: 0x19B73, size: 0x8, addend: 0x0, symName: __ZNSt3__127__do_deallocate_handle_sizeB8ne180100IJEEEvPvmDpT_, symObjAddr: 0x2E98, symBinAddr: 0x100005650, symSize: 0x28 }
  - { offset: 0x19BB1, size: 0x8, addend: 0x0, symName: __ZNSt3__124__libcpp_operator_deleteB8ne180100IJPvSt11align_val_tEEEvDpT_, symObjAddr: 0x2EC0, symBinAddr: 0x100005678, symSize: 0x2C }
  - { offset: 0x19BFA, size: 0x8, addend: 0x0, symName: __ZNSt3__124__libcpp_operator_deleteB8ne180100IJPvEEEvDpT_, symObjAddr: 0x2EEC, symBinAddr: 0x1000056A4, symSize: 0x24 }
  - { offset: 0x19C62, size: 0x8, addend: 0x0, symName: __ZNSt3__112__destroy_atB8ne180100INS_4pairIKNS_12basic_stringIcNS_11char_traitsIcEENS_9allocatorIcEEEENS1_IidEEEELi0EEEvPT_, symObjAddr: 0x31CC, symBinAddr: 0x100005984, symSize: 0x24 }
  - { offset: 0x19C99, size: 0x8, addend: 0x0, symName: __ZNSt3__17launderB8ne180100INS_4pairIKNS_12basic_stringIcNS_11char_traitsIcEENS_9allocatorIcEEEENS1_IidEEEEEEPT_SC_, symObjAddr: 0x326C, symBinAddr: 0x100005A24, symSize: 0x24 }
  - { offset: 0x19CD0, size: 0x8, addend: 0x0, symName: __ZNSt3__19__launderB8ne180100INS_4pairIKNS_12basic_stringIcNS_11char_traitsIcEENS_9allocatorIcEEEENS1_IidEEEEEEPT_SC_, symObjAddr: 0x3290, symBinAddr: 0x100005A48, symSize: 0x14 }
  - { offset: 0x19D07, size: 0x8, addend: 0x0, symName: __ZNSt3__112__destroy_atB8ne180100INS_4pairIKNS_12basic_stringIcNS_11char_traitsIcEENS_9allocatorIcEEEEiEELi0EEEvPT_, symObjAddr: 0x357C, symBinAddr: 0x100005D34, symSize: 0x24 }
  - { offset: 0x19D3E, size: 0x8, addend: 0x0, symName: __ZNSt3__17launderB8ne180100INS_4pairIKNS_12basic_stringIcNS_11char_traitsIcEENS_9allocatorIcEEEEiEEEEPT_SB_, symObjAddr: 0x361C, symBinAddr: 0x100005DD4, symSize: 0x24 }
  - { offset: 0x19D75, size: 0x8, addend: 0x0, symName: __ZNSt3__19__launderB8ne180100INS_4pairIKNS_12basic_stringIcNS_11char_traitsIcEENS_9allocatorIcEEEEiEEEEPT_SB_, symObjAddr: 0x3640, symBinAddr: 0x100005DF8, symSize: 0x14 }
  - { offset: 0x19DAC, size: 0x8, addend: 0x0, symName: __ZNSt3__112__destroy_atB8ne180100INS_4pairIKiNS1_INS_12basic_stringIcNS_11char_traitsIcEENS_9allocatorIcEEEES8_EEEELi0EEEvPT_, symObjAddr: 0x3928, symBinAddr: 0x1000060E0, symSize: 0x24 }
  - { offset: 0x19DE3, size: 0x8, addend: 0x0, symName: __ZNSt3__17launderB8ne180100INS_4pairIKiNS1_INS_12basic_stringIcNS_11char_traitsIcEENS_9allocatorIcEEEES8_EEEEEEPT_SC_, symObjAddr: 0x39CC, symBinAddr: 0x100006184, symSize: 0x24 }
  - { offset: 0x19E1A, size: 0x8, addend: 0x0, symName: __ZNSt3__19__launderB8ne180100INS_4pairIKiNS1_INS_12basic_stringIcNS_11char_traitsIcEENS_9allocatorIcEEEES8_EEEEEEPT_SC_, symObjAddr: 0x39F0, symBinAddr: 0x1000061A8, symSize: 0x14 }
  - { offset: 0x19E51, size: 0x8, addend: 0x0, symName: __ZNSt3__116__pad_and_outputB8ne180100IcNS_11char_traitsIcEEEENS_19ostreambuf_iteratorIT_T0_EES6_PKS4_S8_S8_RNS_8ios_baseES4_, symObjAddr: 0x40F4, symBinAddr: 0x1000068AC, symSize: 0x240 }
  - { offset: 0x19F20, size: 0x8, addend: 0x0, symName: __ZNSt3__112__to_addressB8ne180100IcEEPT_S2_, symObjAddr: 0x45F0, symBinAddr: 0x100006DA8, symSize: 0x14 }
  - { offset: 0x19F88, size: 0x8, addend: 0x0, symName: __ZNSt3__19use_facetB8ne180100INS_5ctypeIcEEEERKT_RKNS_6localeE, symObjAddr: 0x48A8, symBinAddr: 0x100007060, symSize: 0x2C }
  - { offset: 0x1A366, size: 0x8, addend: 0x0, symName: __ZNSt3__118__constexpr_strlenB8ne180100EPKc, symObjAddr: 0x4940, symBinAddr: 0x1000070F8, symSize: 0x24 }
  - { offset: 0x1A392, size: 0x8, addend: 0x0, symName: __ZNSt3__112__destroy_atB8ne180100INS_12basic_stringIcNS_11char_traitsIcEENS_9allocatorIcEEEELi0EEEvPT_, symObjAddr: 0x4CC4, symBinAddr: 0x10000747C, symSize: 0x24 }
  - { offset: 0x1A3C9, size: 0x8, addend: 0x0, symName: __ZNSt3__1neB8ne180100ERKNS_15__tree_iteratorINS_12__value_typeINS_12basic_stringIcNS_11char_traitsIcEENS_9allocatorIcEEEENS_4pairIidEEEEPNS_11__tree_nodeISA_PvEElEESH_, symObjAddr: 0x5E78, symBinAddr: 0x100008630, symSize: 0x34 }
  - { offset: 0x1A406, size: 0x8, addend: 0x0, symName: __ZNSt3__1eqB8ne180100ERKNS_15__tree_iteratorINS_12__value_typeINS_12basic_stringIcNS_11char_traitsIcEENS_9allocatorIcEEEENS_4pairIidEEEEPNS_11__tree_nodeISA_PvEElEESH_, symObjAddr: 0x5EAC, symBinAddr: 0x100008664, symSize: 0x30 }
  - { offset: 0x1A443, size: 0x8, addend: 0x0, symName: __ZNSt3__116__tree_next_iterB8ne180100IPNS_15__tree_end_nodeIPNS_16__tree_node_baseIPvEEEES5_EET_T0_, symObjAddr: 0x5F14, symBinAddr: 0x1000086CC, symSize: 0x90 }
  - { offset: 0x1A481, size: 0x8, addend: 0x0, symName: __ZNSt3__110__tree_minB8ne180100IPNS_16__tree_node_baseIPvEEEET_S5_, symObjAddr: 0x5FA4, symBinAddr: 0x10000875C, symSize: 0x40 }
  - { offset: 0x1A4B6, size: 0x8, addend: 0x0, symName: __ZNSt3__120__tree_is_left_childB8ne180100IPNS_16__tree_node_baseIPvEEEEbT_, symObjAddr: 0x5FE4, symBinAddr: 0x10000879C, symSize: 0x2C }
  - { offset: 0x1A51E, size: 0x8, addend: 0x0, symName: __ZNSt3__1neB8ne180100ERKNS_15__tree_iteratorINS_12__value_typeINS_4pairINS_12basic_stringIcNS_11char_traitsIcEENS_9allocatorIcEEEES8_EENS2_IidEEEEPNS_11__tree_nodeISB_PvEElEESI_, symObjAddr: 0x6190, symBinAddr: 0x100008948, symSize: 0x34 }
  - { offset: 0x1A55B, size: 0x8, addend: 0x0, symName: __ZNSt3__1eqB8ne180100ERKNS_15__tree_iteratorINS_12__value_typeINS_4pairINS_12basic_stringIcNS_11char_traitsIcEENS_9allocatorIcEEEES8_EENS2_IidEEEEPNS_11__tree_nodeISB_PvEElEESI_, symObjAddr: 0x61C4, symBinAddr: 0x10000897C, symSize: 0x30 }
  - { offset: 0x1A9A1, size: 0x8, addend: 0x0, symName: __ZNSt3__1ltB8ne180100IcNS_11char_traitsIcEENS_9allocatorIcEEEEbRKNS_12basic_stringIT_T0_T1_EESB_, symObjAddr: 0x71FC, symBinAddr: 0x1000099B4, symSize: 0x38 }
  - { offset: 0x1A9F9, size: 0x8, addend: 0x0, symName: __ZNSt3__13minB8ne180100ImEERKT_S3_S3_, symObjAddr: 0x7488, symBinAddr: 0x100009C40, symSize: 0x2C }
  - { offset: 0x1AA3C, size: 0x8, addend: 0x0, symName: __ZNSt3__112__to_addressB8ne180100IKcEEPT_S3_, symObjAddr: 0x74B4, symBinAddr: 0x100009C6C, symSize: 0x14 }
  - { offset: 0x1AAA4, size: 0x8, addend: 0x0, symName: __ZNSt3__13minB8ne180100ImNS_6__lessIvvEEEERKT_S5_S5_T0_, symObjAddr: 0x7580, symBinAddr: 0x100009D38, symSize: 0x54 }
  - { offset: 0x1AB61, size: 0x8, addend: 0x0, symName: __ZNSt3__117__libcpp_allocateB8ne180100Emm, symObjAddr: 0x7854, symBinAddr: 0x10000A00C, symSize: 0x60 }
  - { offset: 0x1ABBB, size: 0x8, addend: 0x0, symName: __ZNSt3__121__libcpp_operator_newB8ne180100IJmSt11align_val_tEEEPvDpT_, symObjAddr: 0x78D4, symBinAddr: 0x10000A08C, symSize: 0x2C }
  - { offset: 0x1AC08, size: 0x8, addend: 0x0, symName: __ZNSt3__121__libcpp_operator_newB8ne180100IJmEEEPvDpT_, symObjAddr: 0x7900, symBinAddr: 0x10000A0B8, symSize: 0x24 }
  - { offset: 0x1AC41, size: 0x8, addend: 0x0, symName: __ZNSt3__127__tree_balance_after_insertB8ne180100IPNS_16__tree_node_baseIPvEEEEvT_S5_, symObjAddr: 0x7B14, symBinAddr: 0x10000A2CC, symSize: 0x27C }
  - { offset: 0x1ACBD, size: 0x8, addend: 0x0, symName: __ZNSt3__118__tree_left_rotateB8ne180100IPNS_16__tree_node_baseIPvEEEEvT_, symObjAddr: 0x7DB8, symBinAddr: 0x10000A570, symSize: 0xD8 }
  - { offset: 0x1ACFC, size: 0x8, addend: 0x0, symName: __ZNSt3__119__tree_right_rotateB8ne180100IPNS_16__tree_node_baseIPvEEEEvT_, symObjAddr: 0x7E90, symBinAddr: 0x10000A648, symSize: 0xCC }
  - { offset: 0x1AD3E, size: 0x8, addend: 0x0, symName: __ZNSt3__1eqB8ne180100ERKNS_21__tree_const_iteratorINS_12basic_stringIcNS_11char_traitsIcEENS_9allocatorIcEEEEPNS_11__tree_nodeIS6_PvEElEESD_, symObjAddr: 0x82DC, symBinAddr: 0x10000AA94, symSize: 0x30 }
  - { offset: 0x1ADB2, size: 0x8, addend: 0x0, symName: __ZNSt3__116forward_as_tupleB8ne180100IJRKNS_12basic_stringIcNS_11char_traitsIcEENS_9allocatorIcEEEEEEENS_5tupleIJDpOT_EEESC_, symObjAddr: 0x8424, symBinAddr: 0x10000ABDC, symSize: 0x2C }
  - { offset: 0x1ADEB, size: 0x8, addend: 0x0, symName: __ZNSt3__116forward_as_tupleB8ne180100IJEEENS_5tupleIJDpOT_EEES4_, symObjAddr: 0x8450, symBinAddr: 0x10000AC08, symSize: 0x4 }
  - { offset: 0x1AE0F, size: 0x8, addend: 0x0, symName: __ZNSt3__17launderB8ne180100IKNS_4pairIKNS_12basic_stringIcNS_11char_traitsIcEENS_9allocatorIcEEEEiEEEEPT_SC_, symObjAddr: 0x8A38, symBinAddr: 0x10000B1F0, symSize: 0x24 }
  - { offset: 0x1AE46, size: 0x8, addend: 0x0, symName: __ZNSt3__19__launderB8ne180100IKNS_4pairIKNS_12basic_stringIcNS_11char_traitsIcEENS_9allocatorIcEEEEiEEEEPT_SC_, symObjAddr: 0x8A5C, symBinAddr: 0x10000B214, symSize: 0x14 }
  - { offset: 0x1AEA6, size: 0x8, addend: 0x0, symName: __ZNSt3__13getB8ne180100ILm0EJRKNS_12basic_stringIcNS_11char_traitsIcEENS_9allocatorIcEEEEEEERNS_13tuple_elementIXT_ENS_5tupleIJDpT0_EEEE4typeERSD_, symObjAddr: 0x8E90, symBinAddr: 0x10000B648, symSize: 0x24 }
  - { offset: 0x1AF40, size: 0x8, addend: 0x0, symName: __ZNSt3__116forward_as_tupleB8ne180100IJNS_4pairINS_12basic_stringIcNS_11char_traitsIcEENS_9allocatorIcEEEES7_EEEEENS_5tupleIJDpOT_EEESC_, symObjAddr: 0x9378, symBinAddr: 0x10000BB30, symSize: 0x2C }
  - { offset: 0x1AF79, size: 0x8, addend: 0x0, symName: __ZNSt3__1ltB8ne180100INS_12basic_stringIcNS_11char_traitsIcEENS_9allocatorIcEEEES6_S6_S6_EEbRKNS_4pairIT_T0_EERKNS7_IT1_T2_EE, symObjAddr: 0x9990, symBinAddr: 0x10000C148, symSize: 0x88 }
  - { offset: 0x1AFDA, size: 0x8, addend: 0x0, symName: __ZNSt3__17launderB8ne180100IKNS_4pairIKNS1_INS_12basic_stringIcNS_11char_traitsIcEENS_9allocatorIcEEEES7_EENS1_IidEEEEEEPT_SE_, symObjAddr: 0x9A18, symBinAddr: 0x10000C1D0, symSize: 0x24 }
  - { offset: 0x1B011, size: 0x8, addend: 0x0, symName: __ZNSt3__19__launderB8ne180100IKNS_4pairIKNS1_INS_12basic_stringIcNS_11char_traitsIcEENS_9allocatorIcEEEES7_EENS1_IidEEEEEEPT_SE_, symObjAddr: 0x9A3C, symBinAddr: 0x10000C1F4, symSize: 0x14 }
  - { offset: 0x1B066, size: 0x8, addend: 0x0, symName: __ZNSt3__13getB8ne180100ILm0EJONS_4pairINS_12basic_stringIcNS_11char_traitsIcEENS_9allocatorIcEEEES7_EEEEERNS_13tuple_elementIXT_ENS_5tupleIJDpT0_EEEE4typeERSE_, symObjAddr: 0x9E88, symBinAddr: 0x10000C640, symSize: 0x24 }
  - { offset: 0x1B0BE, size: 0x8, addend: 0x0, symName: __ZNSt3__116forward_as_tupleB8ne180100IJRKiEEENS_5tupleIJDpOT_EEES6_, symObjAddr: 0xA548, symBinAddr: 0x10000CD00, symSize: 0x2C }
  - { offset: 0x1B0F7, size: 0x8, addend: 0x0, symName: __ZNSt3__17launderB8ne180100IKNS_4pairIKiNS1_INS_12basic_stringIcNS_11char_traitsIcEENS_9allocatorIcEEEES8_EEEEEEPT_SD_, symObjAddr: 0xAB8C, symBinAddr: 0x10000D344, symSize: 0x24 }
  - { offset: 0x1B12E, size: 0x8, addend: 0x0, symName: __ZNSt3__19__launderB8ne180100IKNS_4pairIKiNS1_INS_12basic_stringIcNS_11char_traitsIcEENS_9allocatorIcEEEES8_EEEEEEPT_SD_, symObjAddr: 0xABB0, symBinAddr: 0x10000D368, symSize: 0x14 }
  - { offset: 0x1B183, size: 0x8, addend: 0x0, symName: __ZNSt3__13getB8ne180100ILm0EJRKiEEERNS_13tuple_elementIXT_ENS_5tupleIJDpT0_EEEE4typeERS7_, symObjAddr: 0xB000, symBinAddr: 0x10000D7B8, symSize: 0x24 }
  - { offset: 0x1B20E, size: 0x8, addend: 0x0, symName: __ZNSt3__17launderB8ne180100IKNS_4pairIKNS_12basic_stringIcNS_11char_traitsIcEENS_9allocatorIcEEEENS1_IidEEEEEEPT_SD_, symObjAddr: 0xBE18, symBinAddr: 0x10000E5D0, symSize: 0x24 }
  - { offset: 0x1B245, size: 0x8, addend: 0x0, symName: __ZNSt3__19__launderB8ne180100IKNS_4pairIKNS_12basic_stringIcNS_11char_traitsIcEENS_9allocatorIcEEEENS1_IidEEEEEEPT_SD_, symObjAddr: 0xBE3C, symBinAddr: 0x10000E5F4, symSize: 0x14 }
  - { offset: 0x1B29A, size: 0x8, addend: 0x0, symName: __ZNSt3__1neB8ne180100ERKNS_15__tree_iteratorINS_12__value_typeIiNS_4pairINS_12basic_stringIcNS_11char_traitsIcEENS_9allocatorIcEEEES8_EEEEPNS_11__tree_nodeISA_PvEElEESH_, symObjAddr: 0xC628, symBinAddr: 0x10000EDE0, symSize: 0x34 }
  - { offset: 0x1B2D7, size: 0x8, addend: 0x0, symName: __ZNSt3__1eqB8ne180100ERKNS_15__tree_iteratorINS_12__value_typeIiNS_4pairINS_12basic_stringIcNS_11char_traitsIcEENS_9allocatorIcEEEES8_EEEEPNS_11__tree_nodeISA_PvEElEESH_, symObjAddr: 0xC65C, symBinAddr: 0x10000EE14, symSize: 0x30 }
  - { offset: 0x1C184, size: 0x8, addend: 0x0, symName: __ZSt28__throw_bad_array_new_lengthB8ne180100v, symObjAddr: 0x7820, symBinAddr: 0x100009FD8, symSize: 0x34 }
  - { offset: 0x1DD34, size: 0x8, addend: 0x0, symName: _main, symObjAddr: 0x0, symBinAddr: 0x1000027B8, symSize: 0x2E4 }
  - { offset: 0x1DDA0, size: 0x8, addend: 0x0, symName: __ZNSt3__113basic_ostreamIcNS_11char_traitsIcEEElsB8ne180100EPFRS3_S4_E, symObjAddr: 0x32C, symBinAddr: 0x100002AE4, symSize: 0x2C }
  - { offset: 0x1E119, size: 0x8, addend: 0x0, symName: __ZNSt3__114basic_ifstreamIcNS_11char_traitsIcEEEC1EPKcj, symObjAddr: 0x3B0, symBinAddr: 0x100002B68, symSize: 0x164 }
  - { offset: 0x1E163, size: 0x8, addend: 0x0, symName: __ZNKSt3__114basic_ifstreamIcNS_11char_traitsIcEEE7is_openEv, symObjAddr: 0x514, symBinAddr: 0x100002CCC, symSize: 0x2C }
  - { offset: 0x1E190, size: 0x8, addend: 0x0, symName: __ZNSt3__114basic_ifstreamIcNS_11char_traitsIcEEED1Ev, symObjAddr: 0x540, symBinAddr: 0x100002CF8, symSize: 0x40 }
  - { offset: 0x1E1BD, size: 0x8, addend: 0x0, symName: __ZNSt3__18ios_base9precisionB8ne180100El, symObjAddr: 0x580, symBinAddr: 0x100002D38, symSize: 0x2C }
  - { offset: 0x1E471, size: 0x8, addend: 0x0, symName: __ZN10classifierC1ERNSt3__114basic_ifstreamIcNS0_11char_traitsIcEEEE, symObjAddr: 0x5AC, symBinAddr: 0x100002D64, symSize: 0x2F0 }
  - { offset: 0x1E58A, size: 0x8, addend: 0x0, symName: __ZN10classifier16print_train_infoEv, symObjAddr: 0x89C, symBinAddr: 0x100003054, symSize: 0x358 }
  - { offset: 0x1E6EF, size: 0x8, addend: 0x0, symName: __ZN10classifierD1Ev, symObjAddr: 0xBF4, symBinAddr: 0x1000033AC, symSize: 0x2C }
  - { offset: 0x1E71B, size: 0x8, addend: 0x0, symName: __ZN10classifierC2Ev, symObjAddr: 0xC20, symBinAddr: 0x1000033D8, symSize: 0x68 }
  - { offset: 0x1E746, size: 0x8, addend: 0x0, symName: __ZNSt3__13setINS_12basic_stringIcNS_11char_traitsIcEENS_9allocatorIcEEEENS_4lessIS6_EENS4_IS6_EEEC1B8ne180100Ev, symObjAddr: 0xC88, symBinAddr: 0x100003440, symSize: 0x2C }
  - { offset: 0x1E770, size: 0x8, addend: 0x0, symName: __ZNSt3__13mapIiNS_4pairINS_12basic_stringIcNS_11char_traitsIcEENS_9allocatorIcEEEES7_EENS_4lessIiEENS5_INS1_IKiS8_EEEEEC1B8ne180100Ev, symObjAddr: 0xCB4, symBinAddr: 0x10000346C, symSize: 0x2C }
  - { offset: 0x1E79A, size: 0x8, addend: 0x0, symName: __ZNSt3__13mapINS_12basic_stringIcNS_11char_traitsIcEENS_9allocatorIcEEEEiNS_4lessIS6_EENS4_INS_4pairIKS6_iEEEEEC1B8ne180100Ev, symObjAddr: 0xCE0, symBinAddr: 0x100003498, symSize: 0x2C }
  - { offset: 0x1E7C4, size: 0x8, addend: 0x0, symName: __ZNSt3__13mapINS_12basic_stringIcNS_11char_traitsIcEENS_9allocatorIcEEEENS_4pairIidEENS_4lessIS6_EENS4_INS7_IKS6_S8_EEEEEC1B8ne180100Ev, symObjAddr: 0xD0C, symBinAddr: 0x1000034C4, symSize: 0x2C }
  - { offset: 0x1E7EE, size: 0x8, addend: 0x0, symName: __ZNSt3__13mapINS_4pairINS_12basic_stringIcNS_11char_traitsIcEENS_9allocatorIcEEEES7_EENS1_IidEENS_4lessIS8_EENS5_INS1_IKS8_S9_EEEEEC1B8ne180100Ev, symObjAddr: 0xD38, symBinAddr: 0x1000034F0, symSize: 0x2C }
  - { offset: 0x1E818, size: 0x8, addend: 0x0, symName: __ZN10classifierC1Ev, symObjAddr: 0xD64, symBinAddr: 0x10000351C, symSize: 0x2C }
  - { offset: 0x1E843, size: 0x8, addend: 0x0, symName: __ZN10classifierC2ERNSt3__114basic_ifstreamIcNS0_11char_traitsIcEEEE, symObjAddr: 0xD90, symBinAddr: 0x100003548, symSize: 0x2F0 }
  - { offset: 0x1E95C, size: 0x8, addend: 0x0, symName: __ZNSt3__112basic_stringIcNS_11char_traitsIcEENS_9allocatorIcEEEC1B8ne180100Ev, symObjAddr: 0x1080, symBinAddr: 0x100003838, symSize: 0x2C }
  - { offset: 0x1E986, size: 0x8, addend: 0x0, symName: __ZNKSt3__112basic_stringIcNS_11char_traitsIcEENS_9allocatorIcEEE4sizeB8ne180100Ev, symObjAddr: 0x1108, symBinAddr: 0x1000038C0, symSize: 0x54 }
  - { offset: 0x1E9AC, size: 0x8, addend: 0x0, symName: __ZN10classifier21initialize_method_oneERNSt3__114basic_ifstreamIcNS0_11char_traitsIcEEEE, symObjAddr: 0x115C, symBinAddr: 0x100003914, symSize: 0x144 }
  - { offset: 0x1EA21, size: 0x8, addend: 0x0, symName: __ZN10classifier21initialize_method_twoERNSt3__114basic_ifstreamIcNS0_11char_traitsIcEEEE, symObjAddr: 0x12A0, symBinAddr: 0x100003A58, symSize: 0x19C }
  - { offset: 0x1EAB4, size: 0x8, addend: 0x0, symName: __ZNKSt3__13setINS_12basic_stringIcNS_11char_traitsIcEENS_9allocatorIcEEEENS_4lessIS6_EENS4_IS6_EEE4sizeB8ne180100Ev, symObjAddr: 0x143C, symBinAddr: 0x100003BF4, symSize: 0x28 }
  - { offset: 0x1EADA, size: 0x8, addend: 0x0, symName: __ZNSt3__13mapINS_12basic_stringIcNS_11char_traitsIcEENS_9allocatorIcEEEENS_4pairIidEENS_4lessIS6_EENS4_INS7_IKS6_S8_EEEEE5beginB8ne180100Ev, symObjAddr: 0x1464, symBinAddr: 0x100003C1C, symSize: 0x38 }
  - { offset: 0x1EB00, size: 0x8, addend: 0x0, symName: __ZNSt3__13mapINS_12basic_stringIcNS_11char_traitsIcEENS_9allocatorIcEEEENS_4pairIidEENS_4lessIS6_EENS4_INS7_IKS6_S8_EEEEE3endB8ne180100Ev, symObjAddr: 0x149C, symBinAddr: 0x100003C54, symSize: 0x38 }
  - { offset: 0x1EB26, size: 0x8, addend: 0x0, symName: __ZNKSt3__114__map_iteratorINS_15__tree_iteratorINS_12__value_typeINS_12basic_stringIcNS_11char_traitsIcEENS_9allocatorIcEEEENS_4pairIidEEEEPNS_11__tree_nodeISB_PvEElEEEdeB8ne180100Ev, symObjAddr: 0x1504, symBinAddr: 0x100003CBC, symSize: 0x28 }
  - { offset: 0x1EB4C, size: 0x8, addend: 0x0, symName: __ZN10classifier9log_priorENSt3__112basic_stringIcNS0_11char_traitsIcEENS0_9allocatorIcEEEE, symObjAddr: 0x1574, symBinAddr: 0x100003D2C, symSize: 0x60 }
  - { offset: 0x1EB82, size: 0x8, addend: 0x0, symName: __ZNSt3__114__map_iteratorINS_15__tree_iteratorINS_12__value_typeINS_12basic_stringIcNS_11char_traitsIcEENS_9allocatorIcEEEENS_4pairIidEEEEPNS_11__tree_nodeISB_PvEElEEEppB8ne180100Ev, symObjAddr: 0x15D4, symBinAddr: 0x100003D8C, symSize: 0x2C }
  - { offset: 0x1EBA8, size: 0x8, addend: 0x0, symName: __ZNSt3__13mapINS_4pairINS_12basic_stringIcNS_11char_traitsIcEENS_9allocatorIcEEEES7_EENS1_IidEENS_4lessIS8_EENS5_INS1_IKS8_S9_EEEEE5beginB8ne180100Ev, symObjAddr: 0x1600, symBinAddr: 0x100003DB8, symSize: 0x38 }
  - { offset: 0x1EBCE, size: 0x8, addend: 0x0, symName: __ZNSt3__13mapINS_4pairINS_12basic_stringIcNS_11char_traitsIcEENS_9allocatorIcEEEES7_EENS1_IidEENS_4lessIS8_EENS5_INS1_IKS8_S9_EEEEE3endB8ne180100Ev, symObjAddr: 0x1638, symBinAddr: 0x100003DF0, symSize: 0x38 }
  - { offset: 0x1EBF4, size: 0x8, addend: 0x0, symName: __ZNKSt3__114__map_iteratorINS_15__tree_iteratorINS_12__value_typeINS_4pairINS_12basic_stringIcNS_11char_traitsIcEENS_9allocatorIcEEEES9_EENS3_IidEEEEPNS_11__tree_nodeISC_PvEElEEEdeB8ne180100Ev, symObjAddr: 0x16A0, symBinAddr: 0x100003E58, symSize: 0x28 }
  - { offset: 0x1EC1A, size: 0x8, addend: 0x0, symName: __ZN10classifier14log_likelihoodENSt3__112basic_stringIcNS0_11char_traitsIcEENS0_9allocatorIcEEEES6_, symObjAddr: 0x1710, symBinAddr: 0x100003EC8, symSize: 0x140 }
  - { offset: 0x1EC8F, size: 0x8, addend: 0x0, symName: __ZNSt3__114__map_iteratorINS_15__tree_iteratorINS_12__value_typeINS_4pairINS_12basic_stringIcNS_11char_traitsIcEENS_9allocatorIcEEEES9_EENS3_IidEEEEPNS_11__tree_nodeISC_PvEElEEEppB8ne180100Ev, symObjAddr: 0x1850, symBinAddr: 0x100004008, symSize: 0x2C }
  - { offset: 0x1ECB5, size: 0x8, addend: 0x0, symName: __ZN10classifierD2Ev, symObjAddr: 0x187C, symBinAddr: 0x100004034, symSize: 0x60 }
  - { offset: 0x1ECE1, size: 0x8, addend: 0x0, symName: __ZNKSt3__19basic_iosIcNS_11char_traitsIcEEEcvbB8ne180100Ev, symObjAddr: 0x18DC, symBinAddr: 0x100004094, symSize: 0x2C }
  - { offset: 0x1ED6E, size: 0x8, addend: 0x0, symName: __ZNSt3__118basic_stringstreamIcNS_11char_traitsIcEENS_9allocatorIcEEEC1B8ne180100ERKNS_12basic_stringIcS2_S4_EEj, symObjAddr: 0x1908, symBinAddr: 0x1000040C0, symSize: 0x100 }
  - { offset: 0x1EDB6, size: 0x8, addend: 0x0, symName: __ZN10classifier10posts_readERNSt3__112basic_stringIcNS0_11char_traitsIcEENS0_9allocatorIcEEEES7_, symObjAddr: 0x1C40, symBinAddr: 0x1000043F8, symSize: 0x2DC }
  - { offset: 0x1EE77, size: 0x8, addend: 0x0, symName: __ZNSt3__118basic_stringstreamIcNS_11char_traitsIcEENS_9allocatorIcEEED1Ev, symObjAddr: 0x1F1C, symBinAddr: 0x1000046D4, symSize: 0x40 }
  - { offset: 0x1EEA4, size: 0x8, addend: 0x0, symName: __ZNSt3__13setINS_12basic_stringIcNS_11char_traitsIcEENS_9allocatorIcEEEENS_4lessIS6_EENS4_IS6_EEE6insertB8ne180100ERKS6_, symObjAddr: 0x2264, symBinAddr: 0x100004A1C, symSize: 0x4C }
  - { offset: 0x1EED9, size: 0x8, addend: 0x0, symName: __ZNSt3__13setINS_12basic_stringIcNS_11char_traitsIcEENS_9allocatorIcEEEENS_4lessIS6_EENS4_IS6_EEE5beginB8ne180100Ev, symObjAddr: 0x22B0, symBinAddr: 0x100004A68, symSize: 0x38 }
  - { offset: 0x1EEFF, size: 0x8, addend: 0x0, symName: __ZNSt3__13setINS_12basic_stringIcNS_11char_traitsIcEENS_9allocatorIcEEEENS_4lessIS6_EENS4_IS6_EEE3endB8ne180100Ev, symObjAddr: 0x22E8, symBinAddr: 0x100004AA0, symSize: 0x38 }
  - { offset: 0x1EF25, size: 0x8, addend: 0x0, symName: __ZNKSt3__121__tree_const_iteratorINS_12basic_stringIcNS_11char_traitsIcEENS_9allocatorIcEEEEPNS_11__tree_nodeIS6_PvEElEdeB8ne180100Ev, symObjAddr: 0x2354, symBinAddr: 0x100004B0C, symSize: 0x28 }
  - { offset: 0x1EF4B, size: 0x8, addend: 0x0, symName: __ZNSt3__13mapINS_12basic_stringIcNS_11char_traitsIcEENS_9allocatorIcEEEEiNS_4lessIS6_EENS4_INS_4pairIKS6_iEEEEEixERSA_, symObjAddr: 0x237C, symBinAddr: 0x100004B34, symSize: 0x80 }
  - { offset: 0x1EF82, size: 0x8, addend: 0x0, symName: __ZNSt3__13mapINS_4pairINS_12basic_stringIcNS_11char_traitsIcEENS_9allocatorIcEEEES7_EENS1_IidEENS_4lessIS8_EENS5_INS1_IKS8_S9_EEEEEixEOS8_, symObjAddr: 0x23FC, symBinAddr: 0x100004BB4, symSize: 0x80 }
  - { offset: 0x1EFB9, size: 0x8, addend: 0x0, symName: __ZNSt3__14pairINS_12basic_stringIcNS_11char_traitsIcEENS_9allocatorIcEEEES6_EC1B8ne180100IRS6_RKS6_Li0EEEOT_OT0_, symObjAddr: 0x247C, symBinAddr: 0x100004C34, symSize: 0x3C }
  - { offset: 0x1F017, size: 0x8, addend: 0x0, symName: __ZNSt3__14pairINS_12basic_stringIcNS_11char_traitsIcEENS_9allocatorIcEEEES6_ED1Ev, symObjAddr: 0x24B8, symBinAddr: 0x100004C70, symSize: 0x2C }
  - { offset: 0x1F043, size: 0x8, addend: 0x0, symName: __ZNSt3__121__tree_const_iteratorINS_12basic_stringIcNS_11char_traitsIcEENS_9allocatorIcEEEEPNS_11__tree_nodeIS6_PvEElEppB8ne180100Ev, symObjAddr: 0x24E4, symBinAddr: 0x100004C9C, symSize: 0x38 }
  - { offset: 0x1F069, size: 0x8, addend: 0x0, symName: __ZNSt3__14pairINS_12basic_stringIcNS_11char_traitsIcEENS_9allocatorIcEEEES6_EC1B8ne180100IRS6_S9_Li0EEEOT_OT0_, symObjAddr: 0x251C, symBinAddr: 0x100004CD4, symSize: 0x3C }
  - { offset: 0x1F0C7, size: 0x8, addend: 0x0, symName: __ZNSt3__13mapIiNS_4pairINS_12basic_stringIcNS_11char_traitsIcEENS_9allocatorIcEEEES7_EENS_4lessIiEENS5_INS1_IKiS8_EEEEEixERSB_, symObjAddr: 0x2558, symBinAddr: 0x100004D10, symSize: 0x80 }
  - { offset: 0x1F0FE, size: 0x8, addend: 0x0, symName: __ZNSt3__14pairINS_12basic_stringIcNS_11char_traitsIcEENS_9allocatorIcEEEES6_EaSB8ne180100EOS7_, symObjAddr: 0x25D8, symBinAddr: 0x100004D90, symSize: 0x48 }
  - { offset: 0x1F133, size: 0x8, addend: 0x0, symName: __ZNSt3__13mapINS_12basic_stringIcNS_11char_traitsIcEENS_9allocatorIcEEEENS_4pairIidEENS_4lessIS6_EENS4_INS7_IKS6_S8_EEEEEixERSB_, symObjAddr: 0x2620, symBinAddr: 0x100004DD8, symSize: 0x80 }
  - { offset: 0x1F16A, size: 0x8, addend: 0x0, symName: __ZNSt3__13setINS_12basic_stringIcNS_11char_traitsIcEENS_9allocatorIcEEEENS_4lessIS6_EENS4_IS6_EEED1B8ne180100Ev, symObjAddr: 0x26A0, symBinAddr: 0x100004E58, symSize: 0x2C }
  - { offset: 0x1F194, size: 0x8, addend: 0x0, symName: __ZNSt3__13mapIiNS_4pairINS_12basic_stringIcNS_11char_traitsIcEENS_9allocatorIcEEEES7_EENS_4lessIiEENS5_INS1_IKiS8_EEEEE5beginB8ne180100Ev, symObjAddr: 0x26CC, symBinAddr: 0x100004E84, symSize: 0x38 }
  - { offset: 0x1F1BA, size: 0x8, addend: 0x0, symName: __ZNSt3__13mapIiNS_4pairINS_12basic_stringIcNS_11char_traitsIcEENS_9allocatorIcEEEES7_EENS_4lessIiEENS5_INS1_IKiS8_EEEEE3endB8ne180100Ev, symObjAddr: 0x2704, symBinAddr: 0x100004EBC, symSize: 0x38 }
  - { offset: 0x1F1E0, size: 0x8, addend: 0x0, symName: __ZNKSt3__114__map_iteratorINS_15__tree_iteratorINS_12__value_typeIiNS_4pairINS_12basic_stringIcNS_11char_traitsIcEENS_9allocatorIcEEEES9_EEEEPNS_11__tree_nodeISB_PvEElEEEdeB8ne180100Ev, symObjAddr: 0x276C, symBinAddr: 0x100004F24, symSize: 0x28 }
  - { offset: 0x1F206, size: 0x8, addend: 0x0, symName: __ZNSt3__114__map_iteratorINS_15__tree_iteratorINS_12__value_typeIiNS_4pairINS_12basic_stringIcNS_11char_traitsIcEENS_9allocatorIcEEEES9_EEEEPNS_11__tree_nodeISB_PvEElEEEppB8ne180100Ev, symObjAddr: 0x2828, symBinAddr: 0x100004FE0, symSize: 0x2C }
  - { offset: 0x1F22C, size: 0x8, addend: 0x0, symName: __ZNSt3__114basic_ifstreamIcNS_11char_traitsIcEEED2Ev, symObjAddr: 0x28E4, symBinAddr: 0x10000509C, symSize: 0x64 }
  - { offset: 0x1F266, size: 0x8, addend: 0x0, symName: __ZTv0_n24_NSt3__114basic_ifstreamIcNS_11char_traitsIcEEED1Ev, symObjAddr: 0x2948, symBinAddr: 0x100005100, symSize: 0x28 }
  - { offset: 0x1F27D, size: 0x8, addend: 0x0, symName: __ZNSt3__110__get_pairILm0EE3getB8ne180100IKNS_12basic_stringIcNS_11char_traitsIcEENS_9allocatorIcEEEENS_4pairIidEEEERT_RNSA_ISC_T0_EE, symObjAddr: 0x2970, symBinAddr: 0x100005128, symSize: 0x14 }
  - { offset: 0x1F2B3, size: 0x8, addend: 0x0, symName: __ZNSt3__110__get_pairILm1EE3getB8ne180100IKNS_12basic_stringIcNS_11char_traitsIcEENS_9allocatorIcEEEENS_4pairIidEEEERT0_RNSA_IT_SC_EE, symObjAddr: 0x2984, symBinAddr: 0x10000513C, symSize: 0x18 }
  - { offset: 0x1F2E9, size: 0x8, addend: 0x0, symName: __ZNSt3__110__get_pairILm0EE3getB8ne180100IKNS_4pairINS_12basic_stringIcNS_11char_traitsIcEENS_9allocatorIcEEEES9_EENS3_IidEEEERT_RNS3_ISD_T0_EE, symObjAddr: 0x299C, symBinAddr: 0x100005154, symSize: 0x14 }
  - { offset: 0x1F31F, size: 0x8, addend: 0x0, symName: __ZNSt3__110__get_pairILm1EE3getB8ne180100IKNS_4pairINS_12basic_stringIcNS_11char_traitsIcEENS_9allocatorIcEEEES9_EENS3_IidEEEERT0_RNS3_IT_SD_EE, symObjAddr: 0x29B0, symBinAddr: 0x100005168, symSize: 0x18 }
  - { offset: 0x1F355, size: 0x8, addend: 0x0, symName: __ZNSt3__13mapINS_4pairINS_12basic_stringIcNS_11char_traitsIcEENS_9allocatorIcEEEES7_EENS1_IidEENS_4lessIS8_EENS5_INS1_IKS8_S9_EEEEED1B8ne180100Ev, symObjAddr: 0x29C8, symBinAddr: 0x100005180, symSize: 0x2C }
  - { offset: 0x1F37F, size: 0x8, addend: 0x0, symName: __ZNSt3__13mapINS_12basic_stringIcNS_11char_traitsIcEENS_9allocatorIcEEEENS_4pairIidEENS_4lessIS6_EENS4_INS7_IKS6_S8_EEEEED1B8ne180100Ev, symObjAddr: 0x29F4, symBinAddr: 0x1000051AC, symSize: 0x2C }
  - { offset: 0x1F3A9, size: 0x8, addend: 0x0, symName: __ZNSt3__13mapINS_12basic_stringIcNS_11char_traitsIcEENS_9allocatorIcEEEEiNS_4lessIS6_EENS4_INS_4pairIKS6_iEEEEED1B8ne180100Ev, symObjAddr: 0x2A20, symBinAddr: 0x1000051D8, symSize: 0x2C }
  - { offset: 0x1F3D3, size: 0x8, addend: 0x0, symName: __ZNSt3__13mapIiNS_4pairINS_12basic_stringIcNS_11char_traitsIcEENS_9allocatorIcEEEES7_EENS_4lessIiEENS5_INS1_IKiS8_EEEEED1B8ne180100Ev, symObjAddr: 0x2A4C, symBinAddr: 0x100005204, symSize: 0x2C }
  - { offset: 0x1F3FD, size: 0x8, addend: 0x0, symName: __ZNSt3__13mapINS_4pairINS_12basic_stringIcNS_11char_traitsIcEENS_9allocatorIcEEEES7_EENS1_IidEENS_4lessIS8_EENS5_INS1_IKS8_S9_EEEEED2B8ne180100Ev, symObjAddr: 0x2A78, symBinAddr: 0x100005230, symSize: 0x2C }
  - { offset: 0x1F427, size: 0x8, addend: 0x0, symName: __ZNSt3__16__treeINS_12__value_typeINS_4pairINS_12basic_stringIcNS_11char_traitsIcEENS_9allocatorIcEEEES8_EENS2_IidEEEENS_19__map_value_compareIS9_SB_NS_4lessIS9_EELb1EEENS6_ISB_EEED1Ev, symObjAddr: 0x2AA4, symBinAddr: 0x10000525C, symSize: 0x2C }
  - { offset: 0x1F453, size: 0x8, addend: 0x0, symName: __ZNSt3__16__treeINS_12__value_typeINS_4pairINS_12basic_stringIcNS_11char_traitsIcEENS_9allocatorIcEEEES8_EENS2_IidEEEENS_19__map_value_compareIS9_SB_NS_4lessIS9_EELb1EEENS6_ISB_EEED2Ev, symObjAddr: 0x2AD0, symBinAddr: 0x100005288, symSize: 0x38 }
  - { offset: 0x1F47F, size: 0x8, addend: 0x0, symName: __ZNSt3__16__treeINS_12__value_typeINS_4pairINS_12basic_stringIcNS_11char_traitsIcEENS_9allocatorIcEEEES8_EENS2_IidEEEENS_19__map_value_compareIS9_SB_NS_4lessIS9_EELb1EEENS6_ISB_EEE7destroyEPNS_11__tree_nodeISB_PvEE, symObjAddr: 0x2B08, symBinAddr: 0x1000052C0, symSize: 0xAC }
  - { offset: 0x1F4CB, size: 0x8, addend: 0x0, symName: __ZNKSt3__16__treeINS_12__value_typeINS_4pairINS_12basic_stringIcNS_11char_traitsIcEENS_9allocatorIcEEEES8_EENS2_IidEEEENS_19__map_value_compareIS9_SB_NS_4lessIS9_EELb1EEENS6_ISB_EEE6__rootB8ne180100Ev, symObjAddr: 0x2BB4, symBinAddr: 0x10000536C, symSize: 0x28 }
  - { offset: 0x1F4F1, size: 0x8, addend: 0x0, symName: __ZNSt3__16__treeINS_12__value_typeINS_4pairINS_12basic_stringIcNS_11char_traitsIcEENS_9allocatorIcEEEES8_EENS2_IidEEEENS_19__map_value_compareIS9_SB_NS_4lessIS9_EELb1EEENS6_ISB_EEE12__node_allocB8ne180100Ev, symObjAddr: 0x2BDC, symBinAddr: 0x100005394, symSize: 0x28 }
  - { offset: 0x1F517, size: 0x8, addend: 0x0, symName: __ZNSt3__116allocator_traitsINS_9allocatorINS_11__tree_nodeINS_12__value_typeINS_4pairINS_12basic_stringIcNS_11char_traitsIcEENS1_IcEEEES9_EENS4_IidEEEEPvEEEEE7destroyB8ne180100INS4_IKSA_SB_EEvvEEvRSF_PT_, symObjAddr: 0x2C04, symBinAddr: 0x1000053BC, symSize: 0x28 }
  - { offset: 0x1F552, size: 0x8, addend: 0x0, symName: __ZNSt3__122__tree_key_value_typesINS_12__value_typeINS_4pairINS_12basic_stringIcNS_11char_traitsIcEENS_9allocatorIcEEEES8_EENS2_IidEEEEE9__get_ptrB8ne180100ERSB_, symObjAddr: 0x2C2C, symBinAddr: 0x1000053E4, symSize: 0x24 }
  - { offset: 0x1F576, size: 0x8, addend: 0x0, symName: __ZNSt3__116allocator_traitsINS_9allocatorINS_11__tree_nodeINS_12__value_typeINS_4pairINS_12basic_stringIcNS_11char_traitsIcEENS1_IcEEEES9_EENS4_IidEEEEPvEEEEE10deallocateB8ne180100ERSF_PSE_m, symObjAddr: 0x2C60, symBinAddr: 0x100005418, symSize: 0x34 }
  - { offset: 0x1F5B8, size: 0x8, addend: 0x0, symName: __ZNSt3__117__compressed_pairINS_15__tree_end_nodeIPNS_16__tree_node_baseIPvEEEENS_9allocatorINS_11__tree_nodeINS_12__value_typeINS_4pairINS_12basic_stringIcNS_11char_traitsIcEENS7_IcEEEESF_EENSA_IidEEEES3_EEEEE6secondB8ne180100Ev, symObjAddr: 0x2C94, symBinAddr: 0x10000544C, symSize: 0x24 }
  - { offset: 0x1F5DE, size: 0x8, addend: 0x0, symName: __ZNSt3__122__compressed_pair_elemINS_9allocatorINS_11__tree_nodeINS_12__value_typeINS_4pairINS_12basic_stringIcNS_11char_traitsIcEENS1_IcEEEES9_EENS4_IidEEEEPvEEEELi1ELb1EE5__getB8ne180100Ev, symObjAddr: 0x2CB8, symBinAddr: 0x100005470, symSize: 0x14 }
  - { offset: 0x1F604, size: 0x8, addend: 0x0, symName: __ZNSt3__14pairIKNS0_INS_12basic_stringIcNS_11char_traitsIcEENS_9allocatorIcEEEES6_EENS0_IidEEED1Ev, symObjAddr: 0x2CF0, symBinAddr: 0x1000054A8, symSize: 0x2C }
  - { offset: 0x1F630, size: 0x8, addend: 0x0, symName: __ZNSt3__14pairIKNS0_INS_12basic_stringIcNS_11char_traitsIcEENS_9allocatorIcEEEES6_EENS0_IidEEED2Ev, symObjAddr: 0x2D1C, symBinAddr: 0x1000054D4, symSize: 0x2C }
  - { offset: 0x1F65C, size: 0x8, addend: 0x0, symName: __ZNSt3__112__value_typeINS_4pairINS_12basic_stringIcNS_11char_traitsIcEENS_9allocatorIcEEEES7_EENS1_IidEEE11__get_valueB8ne180100Ev, symObjAddr: 0x2D48, symBinAddr: 0x100005500, symSize: 0x24 }
  - { offset: 0x1F682, size: 0x8, addend: 0x0, symName: __ZNSt3__19allocatorINS_11__tree_nodeINS_12__value_typeINS_4pairINS_12basic_stringIcNS_11char_traitsIcEENS0_IcEEEES8_EENS3_IidEEEEPvEEE10deallocateB8ne180100EPSD_m, symObjAddr: 0x2DA4, symBinAddr: 0x10000555C, symSize: 0x44 }
  - { offset: 0x1F6C4, size: 0x8, addend: 0x0, symName: __ZNKSt3__16__treeINS_12__value_typeINS_4pairINS_12basic_stringIcNS_11char_traitsIcEENS_9allocatorIcEEEES8_EENS2_IidEEEENS_19__map_value_compareIS9_SB_NS_4lessIS9_EELb1EEENS6_ISB_EEE10__end_nodeB8ne180100Ev, symObjAddr: 0x2F10, symBinAddr: 0x1000056C8, symSize: 0x2C }
  - { offset: 0x1F6EA, size: 0x8, addend: 0x0, symName: __ZNSt3__114pointer_traitsIPNS_15__tree_end_nodeIPNS_16__tree_node_baseIPvEEEEE10pointer_toB8ne180100ERS6_, symObjAddr: 0x2F3C, symBinAddr: 0x1000056F4, symSize: 0x14 }
  - { offset: 0x1F70D, size: 0x8, addend: 0x0, symName: __ZNKSt3__117__compressed_pairINS_15__tree_end_nodeIPNS_16__tree_node_baseIPvEEEENS_9allocatorINS_11__tree_nodeINS_12__value_typeINS_4pairINS_12basic_stringIcNS_11char_traitsIcEENS7_IcEEEESF_EENSA_IidEEEES3_EEEEE5firstB8ne180100Ev, symObjAddr: 0x2F50, symBinAddr: 0x100005708, symSize: 0x24 }
  - { offset: 0x1F733, size: 0x8, addend: 0x0, symName: __ZNKSt3__122__compressed_pair_elemINS_15__tree_end_nodeIPNS_16__tree_node_baseIPvEEEELi0ELb0EE5__getB8ne180100Ev, symObjAddr: 0x2F74, symBinAddr: 0x10000572C, symSize: 0x14 }
  - { offset: 0x1F759, size: 0x8, addend: 0x0, symName: __ZNSt3__13mapINS_12basic_stringIcNS_11char_traitsIcEENS_9allocatorIcEEEENS_4pairIidEENS_4lessIS6_EENS4_INS7_IKS6_S8_EEEEED2B8ne180100Ev, symObjAddr: 0x2F88, symBinAddr: 0x100005740, symSize: 0x2C }
  - { offset: 0x1F783, size: 0x8, addend: 0x0, symName: __ZNSt3__16__treeINS_12__value_typeINS_12basic_stringIcNS_11char_traitsIcEENS_9allocatorIcEEEENS_4pairIidEEEENS_19__map_value_compareIS7_SA_NS_4lessIS7_EELb1EEENS5_ISA_EEED1Ev, symObjAddr: 0x2FB4, symBinAddr: 0x10000576C, symSize: 0x2C }
  - { offset: 0x1F7AF, size: 0x8, addend: 0x0, symName: __ZNSt3__16__treeINS_12__value_typeINS_12basic_stringIcNS_11char_traitsIcEENS_9allocatorIcEEEENS_4pairIidEEEENS_19__map_value_compareIS7_SA_NS_4lessIS7_EELb1EEENS5_ISA_EEED2Ev, symObjAddr: 0x2FE0, symBinAddr: 0x100005798, symSize: 0x38 }
  - { offset: 0x1F7DB, size: 0x8, addend: 0x0, symName: __ZNSt3__16__treeINS_12__value_typeINS_12basic_stringIcNS_11char_traitsIcEENS_9allocatorIcEEEENS_4pairIidEEEENS_19__map_value_compareIS7_SA_NS_4lessIS7_EELb1EEENS5_ISA_EEE7destroyEPNS_11__tree_nodeISA_PvEE, symObjAddr: 0x3018, symBinAddr: 0x1000057D0, symSize: 0xAC }
  - { offset: 0x1F827, size: 0x8, addend: 0x0, symName: __ZNKSt3__16__treeINS_12__value_typeINS_12basic_stringIcNS_11char_traitsIcEENS_9allocatorIcEEEENS_4pairIidEEEENS_19__map_value_compareIS7_SA_NS_4lessIS7_EELb1EEENS5_ISA_EEE6__rootB8ne180100Ev, symObjAddr: 0x30C4, symBinAddr: 0x10000587C, symSize: 0x28 }
  - { offset: 0x1F84D, size: 0x8, addend: 0x0, symName: __ZNSt3__16__treeINS_12__value_typeINS_12basic_stringIcNS_11char_traitsIcEENS_9allocatorIcEEEENS_4pairIidEEEENS_19__map_value_compareIS7_SA_NS_4lessIS7_EELb1EEENS5_ISA_EEE12__node_allocB8ne180100Ev, symObjAddr: 0x30EC, symBinAddr: 0x1000058A4, symSize: 0x28 }
  - { offset: 0x1F873, size: 0x8, addend: 0x0, symName: __ZNSt3__116allocator_traitsINS_9allocatorINS_11__tree_nodeINS_12__value_typeINS_12basic_stringIcNS_11char_traitsIcEENS1_IcEEEENS_4pairIidEEEEPvEEEEE7destroyB8ne180100INS9_IKS8_SA_EEvvEEvRSE_PT_, symObjAddr: 0x3114, symBinAddr: 0x1000058CC, symSize: 0x28 }
  - { offset: 0x1F8AE, size: 0x8, addend: 0x0, symName: __ZNSt3__122__tree_key_value_typesINS_12__value_typeINS_12basic_stringIcNS_11char_traitsIcEENS_9allocatorIcEEEENS_4pairIidEEEEE9__get_ptrB8ne180100ERSA_, symObjAddr: 0x313C, symBinAddr: 0x1000058F4, symSize: 0x24 }
  - { offset: 0x1F8D2, size: 0x8, addend: 0x0, symName: __ZNSt3__116allocator_traitsINS_9allocatorINS_11__tree_nodeINS_12__value_typeINS_12basic_stringIcNS_11char_traitsIcEENS1_IcEEEENS_4pairIidEEEEPvEEEEE10deallocateB8ne180100ERSE_PSD_m, symObjAddr: 0x3160, symBinAddr: 0x100005918, symSize: 0x34 }
  - { offset: 0x1F914, size: 0x8, addend: 0x0, symName: __ZNSt3__117__compressed_pairINS_15__tree_end_nodeIPNS_16__tree_node_baseIPvEEEENS_9allocatorINS_11__tree_nodeINS_12__value_typeINS_12basic_stringIcNS_11char_traitsIcEENS7_IcEEEENS_4pairIidEEEES3_EEEEE6secondB8ne180100Ev, symObjAddr: 0x3194, symBinAddr: 0x10000594C, symSize: 0x24 }
  - { offset: 0x1F93A, size: 0x8, addend: 0x0, symName: __ZNSt3__122__compressed_pair_elemINS_9allocatorINS_11__tree_nodeINS_12__value_typeINS_12basic_stringIcNS_11char_traitsIcEENS1_IcEEEENS_4pairIidEEEEPvEEEELi1ELb1EE5__getB8ne180100Ev, symObjAddr: 0x31B8, symBinAddr: 0x100005970, symSize: 0x14 }
  - { offset: 0x1F960, size: 0x8, addend: 0x0, symName: __ZNSt3__14pairIKNS_12basic_stringIcNS_11char_traitsIcEENS_9allocatorIcEEEENS0_IidEEED1Ev, symObjAddr: 0x31F0, symBinAddr: 0x1000059A8, symSize: 0x2C }
  - { offset: 0x1F98C, size: 0x8, addend: 0x0, symName: __ZNSt3__14pairIKNS_12basic_stringIcNS_11char_traitsIcEENS_9allocatorIcEEEENS0_IidEEED2Ev, symObjAddr: 0x321C, symBinAddr: 0x1000059D4, symSize: 0x2C }
  - { offset: 0x1F9B8, size: 0x8, addend: 0x0, symName: __ZNSt3__112__value_typeINS_12basic_stringIcNS_11char_traitsIcEENS_9allocatorIcEEEENS_4pairIidEEE11__get_valueB8ne180100Ev, symObjAddr: 0x3248, symBinAddr: 0x100005A00, symSize: 0x24 }
  - { offset: 0x1F9DE, size: 0x8, addend: 0x0, symName: __ZNSt3__19allocatorINS_11__tree_nodeINS_12__value_typeINS_12basic_stringIcNS_11char_traitsIcEENS0_IcEEEENS_4pairIidEEEEPvEEE10deallocateB8ne180100EPSC_m, symObjAddr: 0x32A4, symBinAddr: 0x100005A5C, symSize: 0x44 }
  - { offset: 0x1FA20, size: 0x8, addend: 0x0, symName: __ZNKSt3__16__treeINS_12__value_typeINS_12basic_stringIcNS_11char_traitsIcEENS_9allocatorIcEEEENS_4pairIidEEEENS_19__map_value_compareIS7_SA_NS_4lessIS7_EELb1EEENS5_ISA_EEE10__end_nodeB8ne180100Ev, symObjAddr: 0x32E8, symBinAddr: 0x100005AA0, symSize: 0x2C }
  - { offset: 0x1FA46, size: 0x8, addend: 0x0, symName: __ZNKSt3__117__compressed_pairINS_15__tree_end_nodeIPNS_16__tree_node_baseIPvEEEENS_9allocatorINS_11__tree_nodeINS_12__value_typeINS_12basic_stringIcNS_11char_traitsIcEENS7_IcEEEENS_4pairIidEEEES3_EEEEE5firstB8ne180100Ev, symObjAddr: 0x3314, symBinAddr: 0x100005ACC, symSize: 0x24 }
  - { offset: 0x1FA6C, size: 0x8, addend: 0x0, symName: __ZNSt3__13mapINS_12basic_stringIcNS_11char_traitsIcEENS_9allocatorIcEEEEiNS_4lessIS6_EENS4_INS_4pairIKS6_iEEEEED2B8ne180100Ev, symObjAddr: 0x3338, symBinAddr: 0x100005AF0, symSize: 0x2C }
  - { offset: 0x1FA96, size: 0x8, addend: 0x0, symName: __ZNSt3__16__treeINS_12__value_typeINS_12basic_stringIcNS_11char_traitsIcEENS_9allocatorIcEEEEiEENS_19__map_value_compareIS7_S8_NS_4lessIS7_EELb1EEENS5_IS8_EEED1Ev, symObjAddr: 0x3364, symBinAddr: 0x100005B1C, symSize: 0x2C }
  - { offset: 0x1FAC2, size: 0x8, addend: 0x0, symName: __ZNSt3__16__treeINS_12__value_typeINS_12basic_stringIcNS_11char_traitsIcEENS_9allocatorIcEEEEiEENS_19__map_value_compareIS7_S8_NS_4lessIS7_EELb1EEENS5_IS8_EEED2Ev, symObjAddr: 0x3390, symBinAddr: 0x100005B48, symSize: 0x38 }
  - { offset: 0x1FAEE, size: 0x8, addend: 0x0, symName: __ZNSt3__16__treeINS_12__value_typeINS_12basic_stringIcNS_11char_traitsIcEENS_9allocatorIcEEEEiEENS_19__map_value_compareIS7_S8_NS_4lessIS7_EELb1EEENS5_IS8_EEE7destroyEPNS_11__tree_nodeIS8_PvEE, symObjAddr: 0x33C8, symBinAddr: 0x100005B80, symSize: 0xAC }
  - { offset: 0x1FB3A, size: 0x8, addend: 0x0, symName: __ZNKSt3__16__treeINS_12__value_typeINS_12basic_stringIcNS_11char_traitsIcEENS_9allocatorIcEEEEiEENS_19__map_value_compareIS7_S8_NS_4lessIS7_EELb1EEENS5_IS8_EEE6__rootB8ne180100Ev, symObjAddr: 0x3474, symBinAddr: 0x100005C2C, symSize: 0x28 }
  - { offset: 0x1FB60, size: 0x8, addend: 0x0, symName: __ZNSt3__16__treeINS_12__value_typeINS_12basic_stringIcNS_11char_traitsIcEENS_9allocatorIcEEEEiEENS_19__map_value_compareIS7_S8_NS_4lessIS7_EELb1EEENS5_IS8_EEE12__node_allocB8ne180100Ev, symObjAddr: 0x349C, symBinAddr: 0x100005C54, symSize: 0x28 }
  - { offset: 0x1FB86, size: 0x8, addend: 0x0, symName: __ZNSt3__116allocator_traitsINS_9allocatorINS_11__tree_nodeINS_12__value_typeINS_12basic_stringIcNS_11char_traitsIcEENS1_IcEEEEiEEPvEEEEE7destroyB8ne180100INS_4pairIKS8_iEEvvEEvRSC_PT_, symObjAddr: 0x34C4, symBinAddr: 0x100005C7C, symSize: 0x28 }
  - { offset: 0x1FBC1, size: 0x8, addend: 0x0, symName: __ZNSt3__122__tree_key_value_typesINS_12__value_typeINS_12basic_stringIcNS_11char_traitsIcEENS_9allocatorIcEEEEiEEE9__get_ptrB8ne180100ERS8_, symObjAddr: 0x34EC, symBinAddr: 0x100005CA4, symSize: 0x24 }
  - { offset: 0x1FBE5, size: 0x8, addend: 0x0, symName: __ZNSt3__116allocator_traitsINS_9allocatorINS_11__tree_nodeINS_12__value_typeINS_12basic_stringIcNS_11char_traitsIcEENS1_IcEEEEiEEPvEEEEE10deallocateB8ne180100ERSC_PSB_m, symObjAddr: 0x3510, symBinAddr: 0x100005CC8, symSize: 0x34 }
  - { offset: 0x1FC27, size: 0x8, addend: 0x0, symName: __ZNSt3__117__compressed_pairINS_15__tree_end_nodeIPNS_16__tree_node_baseIPvEEEENS_9allocatorINS_11__tree_nodeINS_12__value_typeINS_12basic_stringIcNS_11char_traitsIcEENS7_IcEEEEiEES3_EEEEE6secondB8ne180100Ev, symObjAddr: 0x3544, symBinAddr: 0x100005CFC, symSize: 0x24 }
  - { offset: 0x1FC4D, size: 0x8, addend: 0x0, symName: __ZNSt3__122__compressed_pair_elemINS_9allocatorINS_11__tree_nodeINS_12__value_typeINS_12basic_stringIcNS_11char_traitsIcEENS1_IcEEEEiEEPvEEEELi1ELb1EE5__getB8ne180100Ev, symObjAddr: 0x3568, symBinAddr: 0x100005D20, symSize: 0x14 }
  - { offset: 0x1FC73, size: 0x8, addend: 0x0, symName: __ZNSt3__14pairIKNS_12basic_stringIcNS_11char_traitsIcEENS_9allocatorIcEEEEiED1Ev, symObjAddr: 0x35A0, symBinAddr: 0x100005D58, symSize: 0x2C }
  - { offset: 0x1FC9F, size: 0x8, addend: 0x0, symName: __ZNSt3__14pairIKNS_12basic_stringIcNS_11char_traitsIcEENS_9allocatorIcEEEEiED2Ev, symObjAddr: 0x35CC, symBinAddr: 0x100005D84, symSize: 0x2C }
  - { offset: 0x1FCCB, size: 0x8, addend: 0x0, symName: __ZNSt3__112__value_typeINS_12basic_stringIcNS_11char_traitsIcEENS_9allocatorIcEEEEiE11__get_valueB8ne180100Ev, symObjAddr: 0x35F8, symBinAddr: 0x100005DB0, symSize: 0x24 }
  - { offset: 0x1FCF1, size: 0x8, addend: 0x0, symName: __ZNSt3__19allocatorINS_11__tree_nodeINS_12__value_typeINS_12basic_stringIcNS_11char_traitsIcEENS0_IcEEEEiEEPvEEE10deallocateB8ne180100EPSA_m, symObjAddr: 0x3654, symBinAddr: 0x100005E0C, symSize: 0x40 }
  - { offset: 0x1FD33, size: 0x8, addend: 0x0, symName: __ZNKSt3__16__treeINS_12__value_typeINS_12basic_stringIcNS_11char_traitsIcEENS_9allocatorIcEEEEiEENS_19__map_value_compareIS7_S8_NS_4lessIS7_EELb1EEENS5_IS8_EEE10__end_nodeB8ne180100Ev, symObjAddr: 0x3694, symBinAddr: 0x100005E4C, symSize: 0x2C }
  - { offset: 0x1FD59, size: 0x8, addend: 0x0, symName: __ZNKSt3__117__compressed_pairINS_15__tree_end_nodeIPNS_16__tree_node_baseIPvEEEENS_9allocatorINS_11__tree_nodeINS_12__value_typeINS_12basic_stringIcNS_11char_traitsIcEENS7_IcEEEEiEES3_EEEEE5firstB8ne180100Ev, symObjAddr: 0x36C0, symBinAddr: 0x100005E78, symSize: 0x24 }
  - { offset: 0x1FD7F, size: 0x8, addend: 0x0, symName: __ZNSt3__13mapIiNS_4pairINS_12basic_stringIcNS_11char_traitsIcEENS_9allocatorIcEEEES7_EENS_4lessIiEENS5_INS1_IKiS8_EEEEED2B8ne180100Ev, symObjAddr: 0x36E4, symBinAddr: 0x100005E9C, symSize: 0x2C }
  - { offset: 0x1FDA9, size: 0x8, addend: 0x0, symName: __ZNSt3__16__treeINS_12__value_typeIiNS_4pairINS_12basic_stringIcNS_11char_traitsIcEENS_9allocatorIcEEEES8_EEEENS_19__map_value_compareIiSA_NS_4lessIiEELb1EEENS6_ISA_EEED1Ev, symObjAddr: 0x3710, symBinAddr: 0x100005EC8, symSize: 0x2C }
  - { offset: 0x1FDD5, size: 0x8, addend: 0x0, symName: __ZNSt3__16__treeINS_12__value_typeIiNS_4pairINS_12basic_stringIcNS_11char_traitsIcEENS_9allocatorIcEEEES8_EEEENS_19__map_value_compareIiSA_NS_4lessIiEELb1EEENS6_ISA_EEED2Ev, symObjAddr: 0x373C, symBinAddr: 0x100005EF4, symSize: 0x38 }
  - { offset: 0x1FE01, size: 0x8, addend: 0x0, symName: __ZNSt3__16__treeINS_12__value_typeIiNS_4pairINS_12basic_stringIcNS_11char_traitsIcEENS_9allocatorIcEEEES8_EEEENS_19__map_value_compareIiSA_NS_4lessIiEELb1EEENS6_ISA_EEE7destroyEPNS_11__tree_nodeISA_PvEE, symObjAddr: 0x3774, symBinAddr: 0x100005F2C, symSize: 0xAC }
  - { offset: 0x1FE4D, size: 0x8, addend: 0x0, symName: __ZNKSt3__16__treeINS_12__value_typeIiNS_4pairINS_12basic_stringIcNS_11char_traitsIcEENS_9allocatorIcEEEES8_EEEENS_19__map_value_compareIiSA_NS_4lessIiEELb1EEENS6_ISA_EEE6__rootB8ne180100Ev, symObjAddr: 0x3820, symBinAddr: 0x100005FD8, symSize: 0x28 }
  - { offset: 0x1FE73, size: 0x8, addend: 0x0, symName: __ZNSt3__16__treeINS_12__value_typeIiNS_4pairINS_12basic_stringIcNS_11char_traitsIcEENS_9allocatorIcEEEES8_EEEENS_19__map_value_compareIiSA_NS_4lessIiEELb1EEENS6_ISA_EEE12__node_allocB8ne180100Ev, symObjAddr: 0x3848, symBinAddr: 0x100006000, symSize: 0x28 }
  - { offset: 0x1FE99, size: 0x8, addend: 0x0, symName: __ZNSt3__116allocator_traitsINS_9allocatorINS_11__tree_nodeINS_12__value_typeIiNS_4pairINS_12basic_stringIcNS_11char_traitsIcEENS1_IcEEEES9_EEEEPvEEEEE7destroyB8ne180100INS4_IKiSA_EEvvEEvRSE_PT_, symObjAddr: 0x3870, symBinAddr: 0x100006028, symSize: 0x28 }
  - { offset: 0x1FED4, size: 0x8, addend: 0x0, symName: __ZNSt3__122__tree_key_value_typesINS_12__value_typeIiNS_4pairINS_12basic_stringIcNS_11char_traitsIcEENS_9allocatorIcEEEES8_EEEEE9__get_ptrB8ne180100ERSA_, symObjAddr: 0x3898, symBinAddr: 0x100006050, symSize: 0x24 }
  - { offset: 0x1FEF8, size: 0x8, addend: 0x0, symName: __ZNSt3__116allocator_traitsINS_9allocatorINS_11__tree_nodeINS_12__value_typeIiNS_4pairINS_12basic_stringIcNS_11char_traitsIcEENS1_IcEEEES9_EEEEPvEEEEE10deallocateB8ne180100ERSE_PSD_m, symObjAddr: 0x38BC, symBinAddr: 0x100006074, symSize: 0x34 }
  - { offset: 0x1FF3A, size: 0x8, addend: 0x0, symName: __ZNSt3__117__compressed_pairINS_15__tree_end_nodeIPNS_16__tree_node_baseIPvEEEENS_9allocatorINS_11__tree_nodeINS_12__value_typeIiNS_4pairINS_12basic_stringIcNS_11char_traitsIcEENS7_IcEEEESF_EEEES3_EEEEE6secondB8ne180100Ev, symObjAddr: 0x38F0, symBinAddr: 0x1000060A8, symSize: 0x24 }
  - { offset: 0x1FF60, size: 0x8, addend: 0x0, symName: __ZNSt3__122__compressed_pair_elemINS_9allocatorINS_11__tree_nodeINS_12__value_typeIiNS_4pairINS_12basic_stringIcNS_11char_traitsIcEENS1_IcEEEES9_EEEEPvEEEELi1ELb1EE5__getB8ne180100Ev, symObjAddr: 0x3914, symBinAddr: 0x1000060CC, symSize: 0x14 }
  - { offset: 0x1FF86, size: 0x8, addend: 0x0, symName: __ZNSt3__14pairIKiNS0_INS_12basic_stringIcNS_11char_traitsIcEENS_9allocatorIcEEEES7_EEED1Ev, symObjAddr: 0x394C, symBinAddr: 0x100006104, symSize: 0x2C }
  - { offset: 0x1FFB2, size: 0x8, addend: 0x0, symName: __ZNSt3__14pairIKiNS0_INS_12basic_stringIcNS_11char_traitsIcEENS_9allocatorIcEEEES7_EEED2Ev, symObjAddr: 0x3978, symBinAddr: 0x100006130, symSize: 0x30 }
  - { offset: 0x1FFDE, size: 0x8, addend: 0x0, symName: __ZNSt3__112__value_typeIiNS_4pairINS_12basic_stringIcNS_11char_traitsIcEENS_9allocatorIcEEEES7_EEE11__get_valueB8ne180100Ev, symObjAddr: 0x39A8, symBinAddr: 0x100006160, symSize: 0x24 }
  - { offset: 0x20004, size: 0x8, addend: 0x0, symName: __ZNSt3__19allocatorINS_11__tree_nodeINS_12__value_typeIiNS_4pairINS_12basic_stringIcNS_11char_traitsIcEENS0_IcEEEES8_EEEEPvEEE10deallocateB8ne180100EPSC_m, symObjAddr: 0x3A04, symBinAddr: 0x1000061BC, symSize: 0x44 }
  - { offset: 0x20046, size: 0x8, addend: 0x0, symName: __ZNKSt3__16__treeINS_12__value_typeIiNS_4pairINS_12basic_stringIcNS_11char_traitsIcEENS_9allocatorIcEEEES8_EEEENS_19__map_value_compareIiSA_NS_4lessIiEELb1EEENS6_ISA_EEE10__end_nodeB8ne180100Ev, symObjAddr: 0x3A48, symBinAddr: 0x100006200, symSize: 0x2C }
  - { offset: 0x2006C, size: 0x8, addend: 0x0, symName: __ZNKSt3__117__compressed_pairINS_15__tree_end_nodeIPNS_16__tree_node_baseIPvEEEENS_9allocatorINS_11__tree_nodeINS_12__value_typeIiNS_4pairINS_12basic_stringIcNS_11char_traitsIcEENS7_IcEEEESF_EEEES3_EEEEE5firstB8ne180100Ev, symObjAddr: 0x3A74, symBinAddr: 0x10000622C, symSize: 0x24 }
  - { offset: 0x20092, size: 0x8, addend: 0x0, symName: __ZNSt3__118basic_stringstreamIcNS_11char_traitsIcEENS_9allocatorIcEEED2Ev, symObjAddr: 0x3A98, symBinAddr: 0x100006250, symSize: 0x6C }
  - { offset: 0x200CC, size: 0x8, addend: 0x0, symName: __ZThn16_NSt3__118basic_stringstreamIcNS_11char_traitsIcEENS_9allocatorIcEEED1Ev, symObjAddr: 0x3B04, symBinAddr: 0x1000062BC, symSize: 0x1C }
  - { offset: 0x200E3, size: 0x8, addend: 0x0, symName: __ZTv0_n24_NSt3__118basic_stringstreamIcNS_11char_traitsIcEENS_9allocatorIcEEED1Ev, symObjAddr: 0x3B20, symBinAddr: 0x1000062D8, symSize: 0x28 }
  - { offset: 0x200FF, size: 0x8, addend: 0x0, symName: __ZNSt3__115basic_stringbufIcNS_11char_traitsIcEENS_9allocatorIcEEED1Ev, symObjAddr: 0x3B48, symBinAddr: 0x100006300, symSize: 0x2C }
  - { offset: 0x2012C, size: 0x8, addend: 0x0, symName: __ZNSt3__115basic_stringbufIcNS_11char_traitsIcEENS_9allocatorIcEEED2Ev, symObjAddr: 0x3B74, symBinAddr: 0x10000632C, symSize: 0x48 }
  - { offset: 0x20159, size: 0x8, addend: 0x0, symName: __ZNSt3__14pairINS_12basic_stringIcNS_11char_traitsIcEENS_9allocatorIcEEEES6_EC2B8ne180100IRS6_RKS6_Li0EEEOT_OT0_, symObjAddr: 0x3BBC, symBinAddr: 0x100006374, symSize: 0x70 }
  - { offset: 0x201B7, size: 0x8, addend: 0x0, symName: __ZNSt3__14pairINS_12basic_stringIcNS_11char_traitsIcEENS_9allocatorIcEEEES6_ED2Ev, symObjAddr: 0x3C2C, symBinAddr: 0x1000063E4, symSize: 0x38 }
  - { offset: 0x201E3, size: 0x8, addend: 0x0, symName: __ZNSt3__14pairINS_12basic_stringIcNS_11char_traitsIcEENS_9allocatorIcEEEES6_EC2B8ne180100IRS6_S9_Li0EEEOT_OT0_, symObjAddr: 0x3C64, symBinAddr: 0x10000641C, symSize: 0x70 }
  - { offset: 0x20241, size: 0x8, addend: 0x0, symName: __ZNSt3__110__get_pairILm0EE3getB8ne180100IKiNS_4pairINS_12basic_stringIcNS_11char_traitsIcEENS_9allocatorIcEEEESA_EEEERKT_RKNS4_ISC_T0_EE, symObjAddr: 0x3CD4, symBinAddr: 0x10000648C, symSize: 0x14 }
  - { offset: 0x20277, size: 0x8, addend: 0x0, symName: __ZNSt3__110__get_pairILm1EE3getB8ne180100IKiNS_4pairINS_12basic_stringIcNS_11char_traitsIcEENS_9allocatorIcEEEESA_EEEERKT0_RKNS4_IT_SC_EE, symObjAddr: 0x3CE8, symBinAddr: 0x1000064A0, symSize: 0x18 }
  - { offset: 0x202AD, size: 0x8, addend: 0x0, symName: __ZNSt3__110__get_pairILm0EE3getB8ne180100IKNS_12basic_stringIcNS_11char_traitsIcEENS_9allocatorIcEEEENS_4pairIidEEEERKT_RKNSA_ISC_T0_EE, symObjAddr: 0x3D00, symBinAddr: 0x1000064B8, symSize: 0x14 }
  - { offset: 0x202E3, size: 0x8, addend: 0x0, symName: __ZNSt3__110__get_pairILm1EE3getB8ne180100IKNS_12basic_stringIcNS_11char_traitsIcEENS_9allocatorIcEEEENS_4pairIidEEEERKT0_RKNSA_IT_SC_EE, symObjAddr: 0x3D14, symBinAddr: 0x1000064CC, symSize: 0x18 }
  - { offset: 0x20319, size: 0x8, addend: 0x0, symName: __ZNSt3__110__get_pairILm0EE3getB8ne180100IKNS_4pairINS_12basic_stringIcNS_11char_traitsIcEENS_9allocatorIcEEEES9_EENS3_IidEEEERKT_RKNS3_ISD_T0_EE, symObjAddr: 0x3D2C, symBinAddr: 0x1000064E4, symSize: 0x14 }
  - { offset: 0x2034F, size: 0x8, addend: 0x0, symName: __ZNSt3__110__get_pairILm1EE3getB8ne180100IKNS_4pairINS_12basic_stringIcNS_11char_traitsIcEENS_9allocatorIcEEEES9_EENS3_IidEEEERKT0_RKNS3_IT_SD_EE, symObjAddr: 0x3D40, symBinAddr: 0x1000064F8, symSize: 0x18 }
  - { offset: 0x20385, size: 0x8, addend: 0x0, symName: __ZNSt3__112basic_stringIcNS_11char_traitsIcEENS_9allocatorIcEEEC2B8ne180100Ev, symObjAddr: 0x3D58, symBinAddr: 0x100006510, symSize: 0x48 }
  - { offset: 0x203BB, size: 0x8, addend: 0x0, symName: __ZNSt3__117__compressed_pairINS_12basic_stringIcNS_11char_traitsIcEENS_9allocatorIcEEE5__repES5_EC1B8ne180100INS_16__value_init_tagENS_18__default_init_tagEEEOT_OT0_, symObjAddr: 0x3DA0, symBinAddr: 0x100006558, symSize: 0x3C }
  - { offset: 0x20413, size: 0x8, addend: 0x0, symName: __ZNKSt3__112basic_stringIcNS_11char_traitsIcEENS_9allocatorIcEEE14__annotate_newB8ne180100Em, symObjAddr: 0x3DDC, symBinAddr: 0x100006594, symSize: 0x14 }
  - { offset: 0x20448, size: 0x8, addend: 0x0, symName: __ZNSt3__117__compressed_pairINS_12basic_stringIcNS_11char_traitsIcEENS_9allocatorIcEEE5__repES5_EC2B8ne180100INS_16__value_init_tagENS_18__default_init_tagEEEOT_OT0_, symObjAddr: 0x3DF0, symBinAddr: 0x1000065A8, symSize: 0x3C }
  - { offset: 0x204A0, size: 0x8, addend: 0x0, symName: __ZNSt3__122__compressed_pair_elemINS_12basic_stringIcNS_11char_traitsIcEENS_9allocatorIcEEE5__repELi0ELb0EEC2B8ne180100ENS_16__value_init_tagE, symObjAddr: 0x3E2C, symBinAddr: 0x1000065E4, symSize: 0x20 }
  - { offset: 0x204D5, size: 0x8, addend: 0x0, symName: __ZNSt3__122__compressed_pair_elemINS_9allocatorIcEELi1ELb1EEC2B8ne180100ENS_18__default_init_tagE, symObjAddr: 0x3E4C, symBinAddr: 0x100006604, symSize: 0x2C }
  - { offset: 0x2050A, size: 0x8, addend: 0x0, symName: __ZNSt3__19allocatorIcEC2B8ne180100Ev, symObjAddr: 0x3E78, symBinAddr: 0x100006630, symSize: 0x2C }
  - { offset: 0x20534, size: 0x8, addend: 0x0, symName: __ZNSt3__116__non_trivial_ifILb1ENS_9allocatorIcEEEC2B8ne180100Ev, symObjAddr: 0x3EA4, symBinAddr: 0x10000665C, symSize: 0x14 }
  - { offset: 0x2055E, size: 0x8, addend: 0x0, symName: __ZNSt3__111char_traitsIcE6lengthB8ne180100EPKc, symObjAddr: 0x40A4, symBinAddr: 0x10000685C, symSize: 0x34 }
  - { offset: 0x205A2, size: 0x8, addend: 0x0, symName: __ZNKSt3__113basic_ostreamIcNS_11char_traitsIcEEE6sentrycvbB8ne180100Ev, symObjAddr: 0x40D8, symBinAddr: 0x100006890, symSize: 0x1C }
  - { offset: 0x205C8, size: 0x8, addend: 0x0, symName: __ZNSt3__119ostreambuf_iteratorIcNS_11char_traitsIcEEEC1B8ne180100ERNS_13basic_ostreamIcS2_EE, symObjAddr: 0x4334, symBinAddr: 0x100006AEC, symSize: 0x34 }
  - { offset: 0x20600, size: 0x8, addend: 0x0, symName: __ZNKSt3__18ios_base5flagsB8ne180100Ev, symObjAddr: 0x4368, symBinAddr: 0x100006B20, symSize: 0x18 }
  - { offset: 0x20628, size: 0x8, addend: 0x0, symName: __ZNKSt3__19basic_iosIcNS_11char_traitsIcEEE4fillB8ne180100Ev, symObjAddr: 0x4380, symBinAddr: 0x100006B38, symSize: 0x64 }
  - { offset: 0x20650, size: 0x8, addend: 0x0, symName: __ZNKSt3__119ostreambuf_iteratorIcNS_11char_traitsIcEEE6failedB8ne180100Ev, symObjAddr: 0x43E4, symBinAddr: 0x100006B9C, symSize: 0x24 }
  - { offset: 0x20676, size: 0x8, addend: 0x0, symName: __ZNSt3__19basic_iosIcNS_11char_traitsIcEEE8setstateB8ne180100Ej, symObjAddr: 0x4408, symBinAddr: 0x100006BC0, symSize: 0x2C }
  - { offset: 0x206AB, size: 0x8, addend: 0x0, symName: __ZNKSt3__18ios_base5widthB8ne180100Ev, symObjAddr: 0x4434, symBinAddr: 0x100006BEC, symSize: 0x18 }
  - { offset: 0x206D3, size: 0x8, addend: 0x0, symName: __ZNSt3__115basic_streambufIcNS_11char_traitsIcEEE5sputnB8ne180100EPKcl, symObjAddr: 0x444C, symBinAddr: 0x100006C04, symSize: 0x3C }
  - { offset: 0x20715, size: 0x8, addend: 0x0, symName: __ZNSt3__112basic_stringIcNS_11char_traitsIcEENS_9allocatorIcEEEC1B8ne180100Emc, symObjAddr: 0x4488, symBinAddr: 0x100006C40, symSize: 0x3C }
  - { offset: 0x2075D, size: 0x8, addend: 0x0, symName: __ZNSt3__112basic_stringIcNS_11char_traitsIcEENS_9allocatorIcEEE4dataB8ne180100Ev, symObjAddr: 0x44C4, symBinAddr: 0x100006C7C, symSize: 0x28 }
  - { offset: 0x20783, size: 0x8, addend: 0x0, symName: __ZNSt3__18ios_base5widthB8ne180100El, symObjAddr: 0x44EC, symBinAddr: 0x100006CA4, symSize: 0x2C }
  - { offset: 0x207C9, size: 0x8, addend: 0x0, symName: __ZNSt3__112basic_stringIcNS_11char_traitsIcEENS_9allocatorIcEEEC2B8ne180100Emc, symObjAddr: 0x4518, symBinAddr: 0x100006CD0, symSize: 0x4C }
  - { offset: 0x20811, size: 0x8, addend: 0x0, symName: __ZNSt3__117__compressed_pairINS_12basic_stringIcNS_11char_traitsIcEENS_9allocatorIcEEE5__repES5_EC1B8ne180100INS_18__default_init_tagESA_EEOT_OT0_, symObjAddr: 0x4564, symBinAddr: 0x100006D1C, symSize: 0x3C }
  - { offset: 0x20869, size: 0x8, addend: 0x0, symName: __ZNSt3__117__compressed_pairINS_12basic_stringIcNS_11char_traitsIcEENS_9allocatorIcEEE5__repES5_EC2B8ne180100INS_18__default_init_tagESA_EEOT_OT0_, symObjAddr: 0x45A0, symBinAddr: 0x100006D58, symSize: 0x3C }
  - { offset: 0x208C1, size: 0x8, addend: 0x0, symName: __ZNSt3__122__compressed_pair_elemINS_12basic_stringIcNS_11char_traitsIcEENS_9allocatorIcEEE5__repELi0ELb0EEC2B8ne180100ENS_18__default_init_tagE, symObjAddr: 0x45DC, symBinAddr: 0x100006D94, symSize: 0x14 }
  - { offset: 0x208F6, size: 0x8, addend: 0x0, symName: __ZNSt3__112basic_stringIcNS_11char_traitsIcEENS_9allocatorIcEEE13__get_pointerB8ne180100Ev, symObjAddr: 0x4604, symBinAddr: 0x100006DBC, symSize: 0x54 }
  - { offset: 0x2091C, size: 0x8, addend: 0x0, symName: __ZNKSt3__112basic_stringIcNS_11char_traitsIcEENS_9allocatorIcEEE9__is_longB8ne180100Ev, symObjAddr: 0x4658, symBinAddr: 0x100006E10, symSize: 0x38 }
  - { offset: 0x20942, size: 0x8, addend: 0x0, symName: __ZNSt3__112basic_stringIcNS_11char_traitsIcEENS_9allocatorIcEEE18__get_long_pointerB8ne180100Ev, symObjAddr: 0x4690, symBinAddr: 0x100006E48, symSize: 0x28 }
  - { offset: 0x20968, size: 0x8, addend: 0x0, symName: __ZNSt3__112basic_stringIcNS_11char_traitsIcEENS_9allocatorIcEEE19__get_short_pointerB8ne180100Ev, symObjAddr: 0x46B8, symBinAddr: 0x100006E70, symSize: 0x28 }
  - { offset: 0x2098E, size: 0x8, addend: 0x0, symName: __ZNKSt3__117__compressed_pairINS_12basic_stringIcNS_11char_traitsIcEENS_9allocatorIcEEE5__repES5_E5firstB8ne180100Ev, symObjAddr: 0x46E0, symBinAddr: 0x100006E98, symSize: 0x24 }
  - { offset: 0x209B4, size: 0x8, addend: 0x0, symName: __ZNKSt3__122__compressed_pair_elemINS_12basic_stringIcNS_11char_traitsIcEENS_9allocatorIcEEE5__repELi0ELb0EE5__getB8ne180100Ev, symObjAddr: 0x4704, symBinAddr: 0x100006EBC, symSize: 0x14 }
  - { offset: 0x209DA, size: 0x8, addend: 0x0, symName: __ZNSt3__117__compressed_pairINS_12basic_stringIcNS_11char_traitsIcEENS_9allocatorIcEEE5__repES5_E5firstB8ne180100Ev, symObjAddr: 0x4718, symBinAddr: 0x100006ED0, symSize: 0x24 }
  - { offset: 0x20A00, size: 0x8, addend: 0x0, symName: __ZNSt3__122__compressed_pair_elemINS_12basic_stringIcNS_11char_traitsIcEENS_9allocatorIcEEE5__repELi0ELb0EE5__getB8ne180100Ev, symObjAddr: 0x473C, symBinAddr: 0x100006EF4, symSize: 0x14 }
  - { offset: 0x20A26, size: 0x8, addend: 0x0, symName: __ZNSt3__114pointer_traitsIPcE10pointer_toB8ne180100ERc, symObjAddr: 0x4750, symBinAddr: 0x100006F08, symSize: 0x14 }
  - { offset: 0x20A49, size: 0x8, addend: 0x0, symName: __ZNSt3__119ostreambuf_iteratorIcNS_11char_traitsIcEEEC2B8ne180100ERNS_13basic_ostreamIcS2_EE, symObjAddr: 0x4764, symBinAddr: 0x100006F1C, symSize: 0x54 }
  - { offset: 0x20A81, size: 0x8, addend: 0x0, symName: __ZNKSt3__19basic_iosIcNS_11char_traitsIcEEE5rdbufB8ne180100Ev, symObjAddr: 0x47B8, symBinAddr: 0x100006F70, symSize: 0x24 }
  - { offset: 0x20AA9, size: 0x8, addend: 0x0, symName: __ZNKSt3__18ios_base5rdbufB8ne180100Ev, symObjAddr: 0x47DC, symBinAddr: 0x100006F94, symSize: 0x18 }
  - { offset: 0x20ACF, size: 0x8, addend: 0x0, symName: __ZNSt3__111char_traitsIcE11eq_int_typeB8ne180100Eii, symObjAddr: 0x47F4, symBinAddr: 0x100006FAC, symSize: 0x28 }
  - { offset: 0x20B02, size: 0x8, addend: 0x0, symName: __ZNSt3__111char_traitsIcE3eofB8ne180100Ev, symObjAddr: 0x481C, symBinAddr: 0x100006FD4, symSize: 0x8 }
  - { offset: 0x20B16, size: 0x8, addend: 0x0, symName: __ZNKSt3__19basic_iosIcNS_11char_traitsIcEEE5widenB8ne180100Ec, symObjAddr: 0x4824, symBinAddr: 0x100006FDC, symSize: 0x84 }
  - { offset: 0x20B7A, size: 0x8, addend: 0x0, symName: __ZNKSt3__15ctypeIcE5widenB8ne180100Ec, symObjAddr: 0x48D4, symBinAddr: 0x10000708C, symSize: 0x38 }
  - { offset: 0x20BAF, size: 0x8, addend: 0x0, symName: __ZNSt3__18ios_base8setstateB8ne180100Ej, symObjAddr: 0x490C, symBinAddr: 0x1000070C4, symSize: 0x34 }
  - { offset: 0x20BE6, size: 0x8, addend: 0x0, symName: __ZNSt3__19basic_iosIcNS_11char_traitsIcEEEC2B8ne180100Ev, symObjAddr: 0x4964, symBinAddr: 0x10000711C, symSize: 0x3C }
  - { offset: 0x20C10, size: 0x8, addend: 0x0, symName: __ZNSt3__113basic_istreamIcNS_11char_traitsIcEEEC2B8ne180100EPNS_15basic_streambufIcS2_EE, symObjAddr: 0x49A0, symBinAddr: 0x100007158, symSize: 0x64 }
  - { offset: 0x20C55, size: 0x8, addend: 0x0, symName: __ZNSt3__18ios_baseC2B8ne180100Ev, symObjAddr: 0x4A04, symBinAddr: 0x1000071BC, symSize: 0x24 }
  - { offset: 0x20C7F, size: 0x8, addend: 0x0, symName: __ZNSt3__19basic_iosIcNS_11char_traitsIcEEE4initB8ne180100EPNS_15basic_streambufIcS2_EE, symObjAddr: 0x4A28, symBinAddr: 0x1000071E0, symSize: 0x44 }
  - { offset: 0x20CB6, size: 0x8, addend: 0x0, symName: __ZNKSt3__113basic_filebufIcNS_11char_traitsIcEEE7is_openEv, symObjAddr: 0x4A6C, symBinAddr: 0x100007224, symSize: 0x24 }
  - { offset: 0x20CDE, size: 0x8, addend: 0x0, symName: __ZNSt3__13setINS_12basic_stringIcNS_11char_traitsIcEENS_9allocatorIcEEEENS_4lessIS6_EENS4_IS6_EEED2B8ne180100Ev, symObjAddr: 0x4A90, symBinAddr: 0x100007248, symSize: 0x2C }
  - { offset: 0x20D08, size: 0x8, addend: 0x0, symName: __ZNSt3__16__treeINS_12basic_stringIcNS_11char_traitsIcEENS_9allocatorIcEEEENS_4lessIS6_EENS4_IS6_EEED1Ev, symObjAddr: 0x4ABC, symBinAddr: 0x100007274, symSize: 0x2C }
  - { offset: 0x20D34, size: 0x8, addend: 0x0, symName: __ZNSt3__16__treeINS_12basic_stringIcNS_11char_traitsIcEENS_9allocatorIcEEEENS_4lessIS6_EENS4_IS6_EEED2Ev, symObjAddr: 0x4AE8, symBinAddr: 0x1000072A0, symSize: 0x38 }
  - { offset: 0x20D60, size: 0x8, addend: 0x0, symName: __ZNSt3__16__treeINS_12basic_stringIcNS_11char_traitsIcEENS_9allocatorIcEEEENS_4lessIS6_EENS4_IS6_EEE7destroyEPNS_11__tree_nodeIS6_PvEE, symObjAddr: 0x4B20, symBinAddr: 0x1000072D8, symSize: 0xAC }
  - { offset: 0x20DAC, size: 0x8, addend: 0x0, symName: __ZNKSt3__16__treeINS_12basic_stringIcNS_11char_traitsIcEENS_9allocatorIcEEEENS_4lessIS6_EENS4_IS6_EEE6__rootB8ne180100Ev, symObjAddr: 0x4BCC, symBinAddr: 0x100007384, symSize: 0x28 }
  - { offset: 0x20DD2, size: 0x8, addend: 0x0, symName: __ZNSt3__16__treeINS_12basic_stringIcNS_11char_traitsIcEENS_9allocatorIcEEEENS_4lessIS6_EENS4_IS6_EEE12__node_allocB8ne180100Ev, symObjAddr: 0x4BF4, symBinAddr: 0x1000073AC, symSize: 0x28 }
  - { offset: 0x20DF8, size: 0x8, addend: 0x0, symName: __ZNSt3__116allocator_traitsINS_9allocatorINS_11__tree_nodeINS_12basic_stringIcNS_11char_traitsIcEENS1_IcEEEEPvEEEEE7destroyB8ne180100IS7_vvEEvRSA_PT_, symObjAddr: 0x4C1C, symBinAddr: 0x1000073D4, symSize: 0x28 }
  - { offset: 0x20E33, size: 0x8, addend: 0x0, symName: __ZNSt3__122__tree_key_value_typesINS_12basic_stringIcNS_11char_traitsIcEENS_9allocatorIcEEEEE9__get_ptrB8ne180100ERS6_, symObjAddr: 0x4C44, symBinAddr: 0x1000073FC, symSize: 0x14 }
  - { offset: 0x20E57, size: 0x8, addend: 0x0, symName: __ZNSt3__116allocator_traitsINS_9allocatorINS_11__tree_nodeINS_12basic_stringIcNS_11char_traitsIcEENS1_IcEEEEPvEEEEE10deallocateB8ne180100ERSA_PS9_m, symObjAddr: 0x4C58, symBinAddr: 0x100007410, symSize: 0x34 }
  - { offset: 0x20E99, size: 0x8, addend: 0x0, symName: __ZNSt3__117__compressed_pairINS_15__tree_end_nodeIPNS_16__tree_node_baseIPvEEEENS_9allocatorINS_11__tree_nodeINS_12basic_stringIcNS_11char_traitsIcEENS7_IcEEEES3_EEEEE6secondB8ne180100Ev, symObjAddr: 0x4C8C, symBinAddr: 0x100007444, symSize: 0x24 }
  - { offset: 0x20EBF, size: 0x8, addend: 0x0, symName: __ZNSt3__122__compressed_pair_elemINS_9allocatorINS_11__tree_nodeINS_12basic_stringIcNS_11char_traitsIcEENS1_IcEEEEPvEEEELi1ELb1EE5__getB8ne180100Ev, symObjAddr: 0x4CB0, symBinAddr: 0x100007468, symSize: 0x14 }
  - { offset: 0x20EE5, size: 0x8, addend: 0x0, symName: __ZNSt3__19allocatorINS_11__tree_nodeINS_12basic_stringIcNS_11char_traitsIcEENS0_IcEEEEPvEEE10deallocateB8ne180100EPS8_m, symObjAddr: 0x4CE8, symBinAddr: 0x1000074A0, symSize: 0x44 }
  - { offset: 0x20F27, size: 0x8, addend: 0x0, symName: __ZNKSt3__16__treeINS_12basic_stringIcNS_11char_traitsIcEENS_9allocatorIcEEEENS_4lessIS6_EENS4_IS6_EEE10__end_nodeB8ne180100Ev, symObjAddr: 0x4D2C, symBinAddr: 0x1000074E4, symSize: 0x2C }
  - { offset: 0x20F4D, size: 0x8, addend: 0x0, symName: __ZNKSt3__117__compressed_pairINS_15__tree_end_nodeIPNS_16__tree_node_baseIPvEEEENS_9allocatorINS_11__tree_nodeINS_12basic_stringIcNS_11char_traitsIcEENS7_IcEEEES3_EEEEE5firstB8ne180100Ev, symObjAddr: 0x4D58, symBinAddr: 0x100007510, symSize: 0x24 }
  - { offset: 0x20F73, size: 0x8, addend: 0x0, symName: __ZNSt3__13setINS_12basic_stringIcNS_11char_traitsIcEENS_9allocatorIcEEEENS_4lessIS6_EENS4_IS6_EEEC2B8ne180100Ev, symObjAddr: 0x4D7C, symBinAddr: 0x100007534, symSize: 0x30 }
  - { offset: 0x20F9D, size: 0x8, addend: 0x0, symName: __ZNSt3__16__treeINS_12basic_stringIcNS_11char_traitsIcEENS_9allocatorIcEEEENS_4lessIS6_EENS4_IS6_EEEC1ERKS8_, symObjAddr: 0x4DAC, symBinAddr: 0x100007564, symSize: 0x34 }
  - { offset: 0x20FD8, size: 0x8, addend: 0x0, symName: __ZNSt3__16__treeINS_12basic_stringIcNS_11char_traitsIcEENS_9allocatorIcEEEENS_4lessIS6_EENS4_IS6_EEEC2ERKS8_, symObjAddr: 0x4DE0, symBinAddr: 0x100007598, symSize: 0x7C }
  - { offset: 0x21013, size: 0x8, addend: 0x0, symName: __ZNSt3__117__compressed_pairINS_15__tree_end_nodeIPNS_16__tree_node_baseIPvEEEENS_9allocatorINS_11__tree_nodeINS_12basic_stringIcNS_11char_traitsIcEENS7_IcEEEES3_EEEEEC1B8ne180100ILb1EvEEv, symObjAddr: 0x4E5C, symBinAddr: 0x100007614, symSize: 0x2C }
  - { offset: 0x2104E, size: 0x8, addend: 0x0, symName: __ZNSt3__117__compressed_pairImNS_4lessINS_12basic_stringIcNS_11char_traitsIcEENS_9allocatorIcEEEEEEEC1B8ne180100IiRKS8_EEOT_OT0_, symObjAddr: 0x4E88, symBinAddr: 0x100007640, symSize: 0x3C }
  - { offset: 0x210A6, size: 0x8, addend: 0x0, symName: __ZNSt3__16__treeINS_12basic_stringIcNS_11char_traitsIcEENS_9allocatorIcEEEENS_4lessIS6_EENS4_IS6_EEE10__end_nodeB8ne180100Ev, symObjAddr: 0x4EC4, symBinAddr: 0x10000767C, symSize: 0x2C }
  - { offset: 0x210CC, size: 0x8, addend: 0x0, symName: __ZNSt3__16__treeINS_12basic_stringIcNS_11char_traitsIcEENS_9allocatorIcEEEENS_4lessIS6_EENS4_IS6_EEE12__begin_nodeB8ne180100Ev, symObjAddr: 0x4EF0, symBinAddr: 0x1000076A8, symSize: 0x14 }
  - { offset: 0x210F2, size: 0x8, addend: 0x0, symName: __ZNSt3__117__compressed_pairINS_15__tree_end_nodeIPNS_16__tree_node_baseIPvEEEENS_9allocatorINS_11__tree_nodeINS_12basic_stringIcNS_11char_traitsIcEENS7_IcEEEES3_EEEEEC2B8ne180100ILb1EvEEv, symObjAddr: 0x4F04, symBinAddr: 0x1000076BC, symSize: 0x34 }
  - { offset: 0x21127, size: 0x8, addend: 0x0, symName: __ZNSt3__122__compressed_pair_elemINS_15__tree_end_nodeIPNS_16__tree_node_baseIPvEEEELi0ELb0EEC2B8ne180100ENS_16__value_init_tagE, symObjAddr: 0x4F38, symBinAddr: 0x1000076F0, symSize: 0x2C }
  - { offset: 0x2115C, size: 0x8, addend: 0x0, symName: __ZNSt3__122__compressed_pair_elemINS_9allocatorINS_11__tree_nodeINS_12basic_stringIcNS_11char_traitsIcEENS1_IcEEEEPvEEEELi1ELb1EEC2B8ne180100ENS_16__value_init_tagE, symObjAddr: 0x4F64, symBinAddr: 0x10000771C, symSize: 0x2C }
  - { offset: 0x21191, size: 0x8, addend: 0x0, symName: __ZNSt3__115__tree_end_nodeIPNS_16__tree_node_baseIPvEEEC1B8ne180100Ev, symObjAddr: 0x4F90, symBinAddr: 0x100007748, symSize: 0x2C }
  - { offset: 0x211BB, size: 0x8, addend: 0x0, symName: __ZNSt3__115__tree_end_nodeIPNS_16__tree_node_baseIPvEEEC2B8ne180100Ev, symObjAddr: 0x4FBC, symBinAddr: 0x100007774, symSize: 0x18 }
  - { offset: 0x211E5, size: 0x8, addend: 0x0, symName: __ZNSt3__19allocatorINS_11__tree_nodeINS_12basic_stringIcNS_11char_traitsIcEENS0_IcEEEEPvEEEC2B8ne180100Ev, symObjAddr: 0x4FD4, symBinAddr: 0x10000778C, symSize: 0x2C }
  - { offset: 0x2120F, size: 0x8, addend: 0x0, symName: __ZNSt3__116__non_trivial_ifILb1ENS_9allocatorINS_11__tree_nodeINS_12basic_stringIcNS_11char_traitsIcEENS1_IcEEEEPvEEEEEC2B8ne180100Ev, symObjAddr: 0x5000, symBinAddr: 0x1000077B8, symSize: 0x14 }
  - { offset: 0x21239, size: 0x8, addend: 0x0, symName: __ZNSt3__117__compressed_pairImNS_4lessINS_12basic_stringIcNS_11char_traitsIcEENS_9allocatorIcEEEEEEEC2B8ne180100IiRKS8_EEOT_OT0_, symObjAddr: 0x5014, symBinAddr: 0x1000077CC, symSize: 0x44 }
  - { offset: 0x21291, size: 0x8, addend: 0x0, symName: __ZNSt3__122__compressed_pair_elemImLi0ELb0EEC2B8ne180100IivEEOT_, symObjAddr: 0x5058, symBinAddr: 0x100007810, symSize: 0x24 }
  - { offset: 0x212D3, size: 0x8, addend: 0x0, symName: __ZNSt3__122__compressed_pair_elemINS_4lessINS_12basic_stringIcNS_11char_traitsIcEENS_9allocatorIcEEEEEELi1ELb1EEC2B8ne180100IRKS8_vEEOT_, symObjAddr: 0x507C, symBinAddr: 0x100007834, symSize: 0x18 }
  - { offset: 0x21315, size: 0x8, addend: 0x0, symName: __ZNSt3__117__compressed_pairINS_15__tree_end_nodeIPNS_16__tree_node_baseIPvEEEENS_9allocatorINS_11__tree_nodeINS_12basic_stringIcNS_11char_traitsIcEENS7_IcEEEES3_EEEEE5firstB8ne180100Ev, symObjAddr: 0x5094, symBinAddr: 0x10000784C, symSize: 0x24 }
  - { offset: 0x2133B, size: 0x8, addend: 0x0, symName: __ZNSt3__122__compressed_pair_elemINS_15__tree_end_nodeIPNS_16__tree_node_baseIPvEEEELi0ELb0EE5__getB8ne180100Ev, symObjAddr: 0x50B8, symBinAddr: 0x100007870, symSize: 0x14 }
  - { offset: 0x21361, size: 0x8, addend: 0x0, symName: __ZNSt3__13mapIiNS_4pairINS_12basic_stringIcNS_11char_traitsIcEENS_9allocatorIcEEEES7_EENS_4lessIiEENS5_INS1_IKiS8_EEEEEC2B8ne180100Ev, symObjAddr: 0x50CC, symBinAddr: 0x100007884, symSize: 0x40 }
  - { offset: 0x2138B, size: 0x8, addend: 0x0, symName: __ZNSt3__119__map_value_compareIiNS_12__value_typeIiNS_4pairINS_12basic_stringIcNS_11char_traitsIcEENS_9allocatorIcEEEES8_EEEENS_4lessIiEELb1EEC1B8ne180100ESC_, symObjAddr: 0x510C, symBinAddr: 0x1000078C4, symSize: 0x2C }
  - { offset: 0x213C4, size: 0x8, addend: 0x0, symName: __ZNSt3__16__treeINS_12__value_typeIiNS_4pairINS_12basic_stringIcNS_11char_traitsIcEENS_9allocatorIcEEEES8_EEEENS_19__map_value_compareIiSA_NS_4lessIiEELb1EEENS6_ISA_EEEC1ERKSE_, symObjAddr: 0x5138, symBinAddr: 0x1000078F0, symSize: 0x34 }
  - { offset: 0x213FF, size: 0x8, addend: 0x0, symName: __ZNSt3__119__map_value_compareIiNS_12__value_typeIiNS_4pairINS_12basic_stringIcNS_11char_traitsIcEENS_9allocatorIcEEEES8_EEEENS_4lessIiEELb1EEC2B8ne180100ESC_, symObjAddr: 0x516C, symBinAddr: 0x100007924, symSize: 0x14 }
  - { offset: 0x21438, size: 0x8, addend: 0x0, symName: __ZNSt3__16__treeINS_12__value_typeIiNS_4pairINS_12basic_stringIcNS_11char_traitsIcEENS_9allocatorIcEEEES8_EEEENS_19__map_value_compareIiSA_NS_4lessIiEELb1EEENS6_ISA_EEEC2ERKSE_, symObjAddr: 0x5180, symBinAddr: 0x100007938, symSize: 0x7C }
  - { offset: 0x21473, size: 0x8, addend: 0x0, symName: __ZNSt3__117__compressed_pairINS_15__tree_end_nodeIPNS_16__tree_node_baseIPvEEEENS_9allocatorINS_11__tree_nodeINS_12__value_typeIiNS_4pairINS_12basic_stringIcNS_11char_traitsIcEENS7_IcEEEESF_EEEES3_EEEEEC1B8ne180100ILb1EvEEv, symObjAddr: 0x51FC, symBinAddr: 0x1000079B4, symSize: 0x2C }
  - { offset: 0x214A8, size: 0x8, addend: 0x0, symName: __ZNSt3__117__compressed_pairImNS_19__map_value_compareIiNS_12__value_typeIiNS_4pairINS_12basic_stringIcNS_11char_traitsIcEENS_9allocatorIcEEEES9_EEEENS_4lessIiEELb1EEEEC1B8ne180100IiRKSE_EEOT_OT0_, symObjAddr: 0x5228, symBinAddr: 0x1000079E0, symSize: 0x3C }
  - { offset: 0x21500, size: 0x8, addend: 0x0, symName: __ZNSt3__16__treeINS_12__value_typeIiNS_4pairINS_12basic_stringIcNS_11char_traitsIcEENS_9allocatorIcEEEES8_EEEENS_19__map_value_compareIiSA_NS_4lessIiEELb1EEENS6_ISA_EEE10__end_nodeB8ne180100Ev, symObjAddr: 0x5264, symBinAddr: 0x100007A1C, symSize: 0x2C }
  - { offset: 0x21526, size: 0x8, addend: 0x0, symName: __ZNSt3__16__treeINS_12__value_typeIiNS_4pairINS_12basic_stringIcNS_11char_traitsIcEENS_9allocatorIcEEEES8_EEEENS_19__map_value_compareIiSA_NS_4lessIiEELb1EEENS6_ISA_EEE12__begin_nodeB8ne180100Ev, symObjAddr: 0x5290, symBinAddr: 0x100007A48, symSize: 0x14 }
  - { offset: 0x2154C, size: 0x8, addend: 0x0, symName: __ZNSt3__117__compressed_pairINS_15__tree_end_nodeIPNS_16__tree_node_baseIPvEEEENS_9allocatorINS_11__tree_nodeINS_12__value_typeIiNS_4pairINS_12basic_stringIcNS_11char_traitsIcEENS7_IcEEEESF_EEEES3_EEEEEC2B8ne180100ILb1EvEEv, symObjAddr: 0x52A4, symBinAddr: 0x100007A5C, symSize: 0x34 }
  - { offset: 0x21581, size: 0x8, addend: 0x0, symName: __ZNSt3__122__compressed_pair_elemINS_9allocatorINS_11__tree_nodeINS_12__value_typeIiNS_4pairINS_12basic_stringIcNS_11char_traitsIcEENS1_IcEEEES9_EEEEPvEEEELi1ELb1EEC2B8ne180100ENS_16__value_init_tagE, symObjAddr: 0x52D8, symBinAddr: 0x100007A90, symSize: 0x2C }
  - { offset: 0x215B6, size: 0x8, addend: 0x0, symName: __ZNSt3__19allocatorINS_11__tree_nodeINS_12__value_typeIiNS_4pairINS_12basic_stringIcNS_11char_traitsIcEENS0_IcEEEES8_EEEEPvEEEC2B8ne180100Ev, symObjAddr: 0x5304, symBinAddr: 0x100007ABC, symSize: 0x2C }
  - { offset: 0x215E0, size: 0x8, addend: 0x0, symName: __ZNSt3__116__non_trivial_ifILb1ENS_9allocatorINS_11__tree_nodeINS_12__value_typeIiNS_4pairINS_12basic_stringIcNS_11char_traitsIcEENS1_IcEEEES9_EEEEPvEEEEEC2B8ne180100Ev, symObjAddr: 0x5330, symBinAddr: 0x100007AE8, symSize: 0x14 }
  - { offset: 0x2160A, size: 0x8, addend: 0x0, symName: __ZNSt3__117__compressed_pairImNS_19__map_value_compareIiNS_12__value_typeIiNS_4pairINS_12basic_stringIcNS_11char_traitsIcEENS_9allocatorIcEEEES9_EEEENS_4lessIiEELb1EEEEC2B8ne180100IiRKSE_EEOT_OT0_, symObjAddr: 0x5344, symBinAddr: 0x100007AFC, symSize: 0x44 }
  - { offset: 0x21662, size: 0x8, addend: 0x0, symName: __ZNSt3__122__compressed_pair_elemINS_19__map_value_compareIiNS_12__value_typeIiNS_4pairINS_12basic_stringIcNS_11char_traitsIcEENS_9allocatorIcEEEES9_EEEENS_4lessIiEELb1EEELi1ELb1EEC2B8ne180100IRKSE_vEEOT_, symObjAddr: 0x5388, symBinAddr: 0x100007B40, symSize: 0x18 }
  - { offset: 0x216A4, size: 0x8, addend: 0x0, symName: __ZNSt3__117__compressed_pairINS_15__tree_end_nodeIPNS_16__tree_node_baseIPvEEEENS_9allocatorINS_11__tree_nodeINS_12__value_typeIiNS_4pairINS_12basic_stringIcNS_11char_traitsIcEENS7_IcEEEESF_EEEES3_EEEEE5firstB8ne180100Ev, symObjAddr: 0x53A0, symBinAddr: 0x100007B58, symSize: 0x24 }
  - { offset: 0x216CA, size: 0x8, addend: 0x0, symName: __ZNSt3__13mapINS_12basic_stringIcNS_11char_traitsIcEENS_9allocatorIcEEEEiNS_4lessIS6_EENS4_INS_4pairIKS6_iEEEEEC2B8ne180100Ev, symObjAddr: 0x53C4, symBinAddr: 0x100007B7C, symSize: 0x40 }
  - { offset: 0x216F4, size: 0x8, addend: 0x0, symName: __ZNSt3__119__map_value_compareINS_12basic_stringIcNS_11char_traitsIcEENS_9allocatorIcEEEENS_12__value_typeIS6_iEENS_4lessIS6_EELb1EEC1B8ne180100ESA_, symObjAddr: 0x5404, symBinAddr: 0x100007BBC, symSize: 0x2C }
  - { offset: 0x2172D, size: 0x8, addend: 0x0, symName: __ZNSt3__16__treeINS_12__value_typeINS_12basic_stringIcNS_11char_traitsIcEENS_9allocatorIcEEEEiEENS_19__map_value_compareIS7_S8_NS_4lessIS7_EELb1EEENS5_IS8_EEEC1ERKSC_, symObjAddr: 0x5430, symBinAddr: 0x100007BE8, symSize: 0x34 }
  - { offset: 0x21768, size: 0x8, addend: 0x0, symName: __ZNSt3__119__map_value_compareINS_12basic_stringIcNS_11char_traitsIcEENS_9allocatorIcEEEENS_12__value_typeIS6_iEENS_4lessIS6_EELb1EEC2B8ne180100ESA_, symObjAddr: 0x5464, symBinAddr: 0x100007C1C, symSize: 0x14 }
  - { offset: 0x217A1, size: 0x8, addend: 0x0, symName: __ZNSt3__16__treeINS_12__value_typeINS_12basic_stringIcNS_11char_traitsIcEENS_9allocatorIcEEEEiEENS_19__map_value_compareIS7_S8_NS_4lessIS7_EELb1EEENS5_IS8_EEEC2ERKSC_, symObjAddr: 0x5478, symBinAddr: 0x100007C30, symSize: 0x7C }
  - { offset: 0x217DC, size: 0x8, addend: 0x0, symName: __ZNSt3__117__compressed_pairINS_15__tree_end_nodeIPNS_16__tree_node_baseIPvEEEENS_9allocatorINS_11__tree_nodeINS_12__value_typeINS_12basic_stringIcNS_11char_traitsIcEENS7_IcEEEEiEES3_EEEEEC1B8ne180100ILb1EvEEv, symObjAddr: 0x54F4, symBinAddr: 0x100007CAC, symSize: 0x2C }
  - { offset: 0x21811, size: 0x8, addend: 0x0, symName: __ZNSt3__117__compressed_pairImNS_19__map_value_compareINS_12basic_stringIcNS_11char_traitsIcEENS_9allocatorIcEEEENS_12__value_typeIS7_iEENS_4lessIS7_EELb1EEEEC1B8ne180100IiRKSC_EEOT_OT0_, symObjAddr: 0x5520, symBinAddr: 0x100007CD8, symSize: 0x3C }
  - { offset: 0x21869, size: 0x8, addend: 0x0, symName: __ZNSt3__16__treeINS_12__value_typeINS_12basic_stringIcNS_11char_traitsIcEENS_9allocatorIcEEEEiEENS_19__map_value_compareIS7_S8_NS_4lessIS7_EELb1EEENS5_IS8_EEE10__end_nodeB8ne180100Ev, symObjAddr: 0x555C, symBinAddr: 0x100007D14, symSize: 0x2C }
  - { offset: 0x2188F, size: 0x8, addend: 0x0, symName: __ZNSt3__16__treeINS_12__value_typeINS_12basic_stringIcNS_11char_traitsIcEENS_9allocatorIcEEEEiEENS_19__map_value_compareIS7_S8_NS_4lessIS7_EELb1EEENS5_IS8_EEE12__begin_nodeB8ne180100Ev, symObjAddr: 0x5588, symBinAddr: 0x100007D40, symSize: 0x14 }
  - { offset: 0x218B5, size: 0x8, addend: 0x0, symName: __ZNSt3__117__compressed_pairINS_15__tree_end_nodeIPNS_16__tree_node_baseIPvEEEENS_9allocatorINS_11__tree_nodeINS_12__value_typeINS_12basic_stringIcNS_11char_traitsIcEENS7_IcEEEEiEES3_EEEEEC2B8ne180100ILb1EvEEv, symObjAddr: 0x559C, symBinAddr: 0x100007D54, symSize: 0x34 }
  - { offset: 0x218EA, size: 0x8, addend: 0x0, symName: __ZNSt3__122__compressed_pair_elemINS_9allocatorINS_11__tree_nodeINS_12__value_typeINS_12basic_stringIcNS_11char_traitsIcEENS1_IcEEEEiEEPvEEEELi1ELb1EEC2B8ne180100ENS_16__value_init_tagE, symObjAddr: 0x55D0, symBinAddr: 0x100007D88, symSize: 0x2C }
  - { offset: 0x2191F, size: 0x8, addend: 0x0, symName: __ZNSt3__19allocatorINS_11__tree_nodeINS_12__value_typeINS_12basic_stringIcNS_11char_traitsIcEENS0_IcEEEEiEEPvEEEC2B8ne180100Ev, symObjAddr: 0x55FC, symBinAddr: 0x100007DB4, symSize: 0x2C }
  - { offset: 0x21949, size: 0x8, addend: 0x0, symName: __ZNSt3__116__non_trivial_ifILb1ENS_9allocatorINS_11__tree_nodeINS_12__value_typeINS_12basic_stringIcNS_11char_traitsIcEENS1_IcEEEEiEEPvEEEEEC2B8ne180100Ev, symObjAddr: 0x5628, symBinAddr: 0x100007DE0, symSize: 0x14 }
  - { offset: 0x21973, size: 0x8, addend: 0x0, symName: __ZNSt3__117__compressed_pairImNS_19__map_value_compareINS_12basic_stringIcNS_11char_traitsIcEENS_9allocatorIcEEEENS_12__value_typeIS7_iEENS_4lessIS7_EELb1EEEEC2B8ne180100IiRKSC_EEOT_OT0_, symObjAddr: 0x563C, symBinAddr: 0x100007DF4, symSize: 0x44 }
  - { offset: 0x219CB, size: 0x8, addend: 0x0, symName: __ZNSt3__122__compressed_pair_elemINS_19__map_value_compareINS_12basic_stringIcNS_11char_traitsIcEENS_9allocatorIcEEEENS_12__value_typeIS7_iEENS_4lessIS7_EELb1EEELi1ELb1EEC2B8ne180100IRKSC_vEEOT_, symObjAddr: 0x5680, symBinAddr: 0x100007E38, symSize: 0x18 }
  - { offset: 0x21A0D, size: 0x8, addend: 0x0, symName: __ZNSt3__117__compressed_pairINS_15__tree_end_nodeIPNS_16__tree_node_baseIPvEEEENS_9allocatorINS_11__tree_nodeINS_12__value_typeINS_12basic_stringIcNS_11char_traitsIcEENS7_IcEEEEiEES3_EEEEE5firstB8ne180100Ev, symObjAddr: 0x5698, symBinAddr: 0x100007E50, symSize: 0x24 }
  - { offset: 0x21A33, size: 0x8, addend: 0x0, symName: __ZNSt3__13mapINS_12basic_stringIcNS_11char_traitsIcEENS_9allocatorIcEEEENS_4pairIidEENS_4lessIS6_EENS4_INS7_IKS6_S8_EEEEEC2B8ne180100Ev, symObjAddr: 0x56BC, symBinAddr: 0x100007E74, symSize: 0x40 }
  - { offset: 0x21A5D, size: 0x8, addend: 0x0, symName: __ZNSt3__119__map_value_compareINS_12basic_stringIcNS_11char_traitsIcEENS_9allocatorIcEEEENS_12__value_typeIS6_NS_4pairIidEEEENS_4lessIS6_EELb1EEC1B8ne180100ESC_, symObjAddr: 0x56FC, symBinAddr: 0x100007EB4, symSize: 0x2C }
  - { offset: 0x21A96, size: 0x8, addend: 0x0, symName: __ZNSt3__16__treeINS_12__value_typeINS_12basic_stringIcNS_11char_traitsIcEENS_9allocatorIcEEEENS_4pairIidEEEENS_19__map_value_compareIS7_SA_NS_4lessIS7_EELb1EEENS5_ISA_EEEC1ERKSE_, symObjAddr: 0x5728, symBinAddr: 0x100007EE0, symSize: 0x34 }
  - { offset: 0x21AD1, size: 0x8, addend: 0x0, symName: __ZNSt3__119__map_value_compareINS_12basic_stringIcNS_11char_traitsIcEENS_9allocatorIcEEEENS_12__value_typeIS6_NS_4pairIidEEEENS_4lessIS6_EELb1EEC2B8ne180100ESC_, symObjAddr: 0x575C, symBinAddr: 0x100007F14, symSize: 0x14 }
  - { offset: 0x21B0A, size: 0x8, addend: 0x0, symName: __ZNSt3__16__treeINS_12__value_typeINS_12basic_stringIcNS_11char_traitsIcEENS_9allocatorIcEEEENS_4pairIidEEEENS_19__map_value_compareIS7_SA_NS_4lessIS7_EELb1EEENS5_ISA_EEEC2ERKSE_, symObjAddr: 0x5770, symBinAddr: 0x100007F28, symSize: 0x7C }
  - { offset: 0x21B45, size: 0x8, addend: 0x0, symName: __ZNSt3__117__compressed_pairINS_15__tree_end_nodeIPNS_16__tree_node_baseIPvEEEENS_9allocatorINS_11__tree_nodeINS_12__value_typeINS_12basic_stringIcNS_11char_traitsIcEENS7_IcEEEENS_4pairIidEEEES3_EEEEEC1B8ne180100ILb1EvEEv, symObjAddr: 0x57EC, symBinAddr: 0x100007FA4, symSize: 0x2C }
  - { offset: 0x21B7A, size: 0x8, addend: 0x0, symName: __ZNSt3__117__compressed_pairImNS_19__map_value_compareINS_12basic_stringIcNS_11char_traitsIcEENS_9allocatorIcEEEENS_12__value_typeIS7_NS_4pairIidEEEENS_4lessIS7_EELb1EEEEC1B8ne180100IiRKSE_EEOT_OT0_, symObjAddr: 0x5818, symBinAddr: 0x100007FD0, symSize: 0x3C }
  - { offset: 0x21BD2, size: 0x8, addend: 0x0, symName: __ZNSt3__16__treeINS_12__value_typeINS_12basic_stringIcNS_11char_traitsIcEENS_9allocatorIcEEEENS_4pairIidEEEENS_19__map_value_compareIS7_SA_NS_4lessIS7_EELb1EEENS5_ISA_EEE10__end_nodeB8ne180100Ev, symObjAddr: 0x5854, symBinAddr: 0x10000800C, symSize: 0x2C }
  - { offset: 0x21BF8, size: 0x8, addend: 0x0, symName: __ZNSt3__16__treeINS_12__value_typeINS_12basic_stringIcNS_11char_traitsIcEENS_9allocatorIcEEEENS_4pairIidEEEENS_19__map_value_compareIS7_SA_NS_4lessIS7_EELb1EEENS5_ISA_EEE12__begin_nodeB8ne180100Ev, symObjAddr: 0x5880, symBinAddr: 0x100008038, symSize: 0x14 }
  - { offset: 0x21C1E, size: 0x8, addend: 0x0, symName: __ZNSt3__117__compressed_pairINS_15__tree_end_nodeIPNS_16__tree_node_baseIPvEEEENS_9allocatorINS_11__tree_nodeINS_12__value_typeINS_12basic_stringIcNS_11char_traitsIcEENS7_IcEEEENS_4pairIidEEEES3_EEEEEC2B8ne180100ILb1EvEEv, symObjAddr: 0x5894, symBinAddr: 0x10000804C, symSize: 0x34 }
  - { offset: 0x21C53, size: 0x8, addend: 0x0, symName: __ZNSt3__122__compressed_pair_elemINS_9allocatorINS_11__tree_nodeINS_12__value_typeINS_12basic_stringIcNS_11char_traitsIcEENS1_IcEEEENS_4pairIidEEEEPvEEEELi1ELb1EEC2B8ne180100ENS_16__value_init_tagE, symObjAddr: 0x58C8, symBinAddr: 0x100008080, symSize: 0x2C }
  - { offset: 0x21C88, size: 0x8, addend: 0x0, symName: __ZNSt3__19allocatorINS_11__tree_nodeINS_12__value_typeINS_12basic_stringIcNS_11char_traitsIcEENS0_IcEEEENS_4pairIidEEEEPvEEEC2B8ne180100Ev, symObjAddr: 0x58F4, symBinAddr: 0x1000080AC, symSize: 0x2C }
  - { offset: 0x21CB2, size: 0x8, addend: 0x0, symName: __ZNSt3__116__non_trivial_ifILb1ENS_9allocatorINS_11__tree_nodeINS_12__value_typeINS_12basic_stringIcNS_11char_traitsIcEENS1_IcEEEENS_4pairIidEEEEPvEEEEEC2B8ne180100Ev, symObjAddr: 0x5920, symBinAddr: 0x1000080D8, symSize: 0x14 }
  - { offset: 0x21CDC, size: 0x8, addend: 0x0, symName: __ZNSt3__117__compressed_pairImNS_19__map_value_compareINS_12basic_stringIcNS_11char_traitsIcEENS_9allocatorIcEEEENS_12__value_typeIS7_NS_4pairIidEEEENS_4lessIS7_EELb1EEEEC2B8ne180100IiRKSE_EEOT_OT0_, symObjAddr: 0x5934, symBinAddr: 0x1000080EC, symSize: 0x44 }
  - { offset: 0x21D34, size: 0x8, addend: 0x0, symName: __ZNSt3__122__compressed_pair_elemINS_19__map_value_compareINS_12basic_stringIcNS_11char_traitsIcEENS_9allocatorIcEEEENS_12__value_typeIS7_NS_4pairIidEEEENS_4lessIS7_EELb1EEELi1ELb1EEC2B8ne180100IRKSE_vEEOT_, symObjAddr: 0x5978, symBinAddr: 0x100008130, symSize: 0x18 }
  - { offset: 0x21D76, size: 0x8, addend: 0x0, symName: __ZNSt3__117__compressed_pairINS_15__tree_end_nodeIPNS_16__tree_node_baseIPvEEEENS_9allocatorINS_11__tree_nodeINS_12__value_typeINS_12basic_stringIcNS_11char_traitsIcEENS7_IcEEEENS_4pairIidEEEES3_EEEEE5firstB8ne180100Ev, symObjAddr: 0x5990, symBinAddr: 0x100008148, symSize: 0x24 }
  - { offset: 0x21D9C, size: 0x8, addend: 0x0, symName: __ZNSt3__13mapINS_4pairINS_12basic_stringIcNS_11char_traitsIcEENS_9allocatorIcEEEES7_EENS1_IidEENS_4lessIS8_EENS5_INS1_IKS8_S9_EEEEEC2B8ne180100Ev, symObjAddr: 0x59B4, symBinAddr: 0x10000816C, symSize: 0x40 }
  - { offset: 0x21DC6, size: 0x8, addend: 0x0, symName: __ZNSt3__119__map_value_compareINS_4pairINS_12basic_stringIcNS_11char_traitsIcEENS_9allocatorIcEEEES7_EENS_12__value_typeIS8_NS1_IidEEEENS_4lessIS8_EELb1EEC1B8ne180100ESD_, symObjAddr: 0x59F4, symBinAddr: 0x1000081AC, symSize: 0x2C }
  - { offset: 0x21DFF, size: 0x8, addend: 0x0, symName: __ZNSt3__16__treeINS_12__value_typeINS_4pairINS_12basic_stringIcNS_11char_traitsIcEENS_9allocatorIcEEEES8_EENS2_IidEEEENS_19__map_value_compareIS9_SB_NS_4lessIS9_EELb1EEENS6_ISB_EEEC1ERKSF_, symObjAddr: 0x5A20, symBinAddr: 0x1000081D8, symSize: 0x34 }
  - { offset: 0x21E3A, size: 0x8, addend: 0x0, symName: __ZNSt3__119__map_value_compareINS_4pairINS_12basic_stringIcNS_11char_traitsIcEENS_9allocatorIcEEEES7_EENS_12__value_typeIS8_NS1_IidEEEENS_4lessIS8_EELb1EEC2B8ne180100ESD_, symObjAddr: 0x5A54, symBinAddr: 0x10000820C, symSize: 0x14 }
  - { offset: 0x21E73, size: 0x8, addend: 0x0, symName: __ZNSt3__16__treeINS_12__value_typeINS_4pairINS_12basic_stringIcNS_11char_traitsIcEENS_9allocatorIcEEEES8_EENS2_IidEEEENS_19__map_value_compareIS9_SB_NS_4lessIS9_EELb1EEENS6_ISB_EEEC2ERKSF_, symObjAddr: 0x5A68, symBinAddr: 0x100008220, symSize: 0x7C }
  - { offset: 0x21EAE, size: 0x8, addend: 0x0, symName: __ZNSt3__117__compressed_pairINS_15__tree_end_nodeIPNS_16__tree_node_baseIPvEEEENS_9allocatorINS_11__tree_nodeINS_12__value_typeINS_4pairINS_12basic_stringIcNS_11char_traitsIcEENS7_IcEEEESF_EENSA_IidEEEES3_EEEEEC1B8ne180100ILb1EvEEv, symObjAddr: 0x5AE4, symBinAddr: 0x10000829C, symSize: 0x2C }
  - { offset: 0x21EE3, size: 0x8, addend: 0x0, symName: __ZNSt3__117__compressed_pairImNS_19__map_value_compareINS_4pairINS_12basic_stringIcNS_11char_traitsIcEENS_9allocatorIcEEEES8_EENS_12__value_typeIS9_NS2_IidEEEENS_4lessIS9_EELb1EEEEC1B8ne180100IiRKSF_EEOT_OT0_, symObjAddr: 0x5B10, symBinAddr: 0x1000082C8, symSize: 0x3C }
  - { offset: 0x21F3B, size: 0x8, addend: 0x0, symName: __ZNSt3__16__treeINS_12__value_typeINS_4pairINS_12basic_stringIcNS_11char_traitsIcEENS_9allocatorIcEEEES8_EENS2_IidEEEENS_19__map_value_compareIS9_SB_NS_4lessIS9_EELb1EEENS6_ISB_EEE10__end_nodeB8ne180100Ev, symObjAddr: 0x5B4C, symBinAddr: 0x100008304, symSize: 0x2C }
  - { offset: 0x21F61, size: 0x8, addend: 0x0, symName: __ZNSt3__16__treeINS_12__value_typeINS_4pairINS_12basic_stringIcNS_11char_traitsIcEENS_9allocatorIcEEEES8_EENS2_IidEEEENS_19__map_value_compareIS9_SB_NS_4lessIS9_EELb1EEENS6_ISB_EEE12__begin_nodeB8ne180100Ev, symObjAddr: 0x5B78, symBinAddr: 0x100008330, symSize: 0x14 }
  - { offset: 0x21F87, size: 0x8, addend: 0x0, symName: __ZNSt3__117__compressed_pairINS_15__tree_end_nodeIPNS_16__tree_node_baseIPvEEEENS_9allocatorINS_11__tree_nodeINS_12__value_typeINS_4pairINS_12basic_stringIcNS_11char_traitsIcEENS7_IcEEEESF_EENSA_IidEEEES3_EEEEEC2B8ne180100ILb1EvEEv, symObjAddr: 0x5B8C, symBinAddr: 0x100008344, symSize: 0x34 }
  - { offset: 0x21FBC, size: 0x8, addend: 0x0, symName: __ZNSt3__122__compressed_pair_elemINS_9allocatorINS_11__tree_nodeINS_12__value_typeINS_4pairINS_12basic_stringIcNS_11char_traitsIcEENS1_IcEEEES9_EENS4_IidEEEEPvEEEELi1ELb1EEC2B8ne180100ENS_16__value_init_tagE, symObjAddr: 0x5BC0, symBinAddr: 0x100008378, symSize: 0x2C }
  - { offset: 0x21FF1, size: 0x8, addend: 0x0, symName: __ZNSt3__19allocatorINS_11__tree_nodeINS_12__value_typeINS_4pairINS_12basic_stringIcNS_11char_traitsIcEENS0_IcEEEES8_EENS3_IidEEEEPvEEEC2B8ne180100Ev, symObjAddr: 0x5BEC, symBinAddr: 0x1000083A4, symSize: 0x2C }
  - { offset: 0x2201B, size: 0x8, addend: 0x0, symName: __ZNSt3__116__non_trivial_ifILb1ENS_9allocatorINS_11__tree_nodeINS_12__value_typeINS_4pairINS_12basic_stringIcNS_11char_traitsIcEENS1_IcEEEES9_EENS4_IidEEEEPvEEEEEC2B8ne180100Ev, symObjAddr: 0x5C18, symBinAddr: 0x1000083D0, symSize: 0x14 }
  - { offset: 0x22045, size: 0x8, addend: 0x0, symName: __ZNSt3__117__compressed_pairImNS_19__map_value_compareINS_4pairINS_12basic_stringIcNS_11char_traitsIcEENS_9allocatorIcEEEES8_EENS_12__value_typeIS9_NS2_IidEEEENS_4lessIS9_EELb1EEEEC2B8ne180100IiRKSF_EEOT_OT0_, symObjAddr: 0x5C2C, symBinAddr: 0x1000083E4, symSize: 0x44 }
  - { offset: 0x2209D, size: 0x8, addend: 0x0, symName: __ZNSt3__122__compressed_pair_elemINS_19__map_value_compareINS_4pairINS_12basic_stringIcNS_11char_traitsIcEENS_9allocatorIcEEEES8_EENS_12__value_typeIS9_NS2_IidEEEENS_4lessIS9_EELb1EEELi1ELb1EEC2B8ne180100IRKSF_vEEOT_, symObjAddr: 0x5C70, symBinAddr: 0x100008428, symSize: 0x18 }
  - { offset: 0x220DF, size: 0x8, addend: 0x0, symName: __ZNSt3__117__compressed_pairINS_15__tree_end_nodeIPNS_16__tree_node_baseIPvEEEENS_9allocatorINS_11__tree_nodeINS_12__value_typeINS_4pairINS_12basic_stringIcNS_11char_traitsIcEENS7_IcEEEESF_EENSA_IidEEEES3_EEEEE5firstB8ne180100Ev, symObjAddr: 0x5C88, symBinAddr: 0x100008440, symSize: 0x24 }
  - { offset: 0x22105, size: 0x8, addend: 0x0, symName: __ZNKSt3__112basic_stringIcNS_11char_traitsIcEENS_9allocatorIcEEE15__get_long_sizeB8ne180100Ev, symObjAddr: 0x5CAC, symBinAddr: 0x100008464, symSize: 0x28 }
  - { offset: 0x2212B, size: 0x8, addend: 0x0, symName: __ZNKSt3__112basic_stringIcNS_11char_traitsIcEENS_9allocatorIcEEE16__get_short_sizeB8ne180100Ev, symObjAddr: 0x5CD4, symBinAddr: 0x10000848C, symSize: 0x34 }
  - { offset: 0x22151, size: 0x8, addend: 0x0, symName: __ZNKSt3__16__treeINS_12basic_stringIcNS_11char_traitsIcEENS_9allocatorIcEEEENS_4lessIS6_EENS4_IS6_EEE4sizeB8ne180100Ev, symObjAddr: 0x5D08, symBinAddr: 0x1000084C0, symSize: 0x28 }
  - { offset: 0x22177, size: 0x8, addend: 0x0, symName: __ZNKSt3__117__compressed_pairImNS_4lessINS_12basic_stringIcNS_11char_traitsIcEENS_9allocatorIcEEEEEEE5firstB8ne180100Ev, symObjAddr: 0x5D30, symBinAddr: 0x1000084E8, symSize: 0x24 }
  - { offset: 0x2219D, size: 0x8, addend: 0x0, symName: __ZNKSt3__122__compressed_pair_elemImLi0ELb0EE5__getB8ne180100Ev, symObjAddr: 0x5D54, symBinAddr: 0x10000850C, symSize: 0x14 }
  - { offset: 0x221C3, size: 0x8, addend: 0x0, symName: __ZNSt3__16__treeINS_12__value_typeINS_12basic_stringIcNS_11char_traitsIcEENS_9allocatorIcEEEENS_4pairIidEEEENS_19__map_value_compareIS7_SA_NS_4lessIS7_EELb1EEENS5_ISA_EEE5beginB8ne180100Ev, symObjAddr: 0x5D68, symBinAddr: 0x100008520, symSize: 0x34 }
  - { offset: 0x221E9, size: 0x8, addend: 0x0, symName: __ZNSt3__114__map_iteratorINS_15__tree_iteratorINS_12__value_typeINS_12basic_stringIcNS_11char_traitsIcEENS_9allocatorIcEEEENS_4pairIidEEEEPNS_11__tree_nodeISB_PvEElEEEC1B8ne180100ESG_, symObjAddr: 0x5D9C, symBinAddr: 0x100008554, symSize: 0x34 }
  - { offset: 0x22222, size: 0x8, addend: 0x0, symName: __ZNSt3__115__tree_iteratorINS_12__value_typeINS_12basic_stringIcNS_11char_traitsIcEENS_9allocatorIcEEEENS_4pairIidEEEEPNS_11__tree_nodeISA_PvEElEC1B8ne180100EPNS_15__tree_end_nodeIPNS_16__tree_node_baseISC_EEEE, symObjAddr: 0x5DD0, symBinAddr: 0x100008588, symSize: 0x34 }
  - { offset: 0x2225B, size: 0x8, addend: 0x0, symName: __ZNSt3__115__tree_iteratorINS_12__value_typeINS_12basic_stringIcNS_11char_traitsIcEENS_9allocatorIcEEEENS_4pairIidEEEEPNS_11__tree_nodeISA_PvEElEC2B8ne180100EPNS_15__tree_end_nodeIPNS_16__tree_node_baseISC_EEEE, symObjAddr: 0x5E04, symBinAddr: 0x1000085BC, symSize: 0x20 }
  - { offset: 0x22294, size: 0x8, addend: 0x0, symName: __ZNSt3__114__map_iteratorINS_15__tree_iteratorINS_12__value_typeINS_12basic_stringIcNS_11char_traitsIcEENS_9allocatorIcEEEENS_4pairIidEEEEPNS_11__tree_nodeISB_PvEElEEEC2B8ne180100ESG_, symObjAddr: 0x5E24, symBinAddr: 0x1000085DC, symSize: 0x20 }
  - { offset: 0x222CD, size: 0x8, addend: 0x0, symName: __ZNSt3__16__treeINS_12__value_typeINS_12basic_stringIcNS_11char_traitsIcEENS_9allocatorIcEEEENS_4pairIidEEEENS_19__map_value_compareIS7_SA_NS_4lessIS7_EELb1EEENS5_ISA_EEE3endB8ne180100Ev, symObjAddr: 0x5E44, symBinAddr: 0x1000085FC, symSize: 0x34 }
  - { offset: 0x222F3, size: 0x8, addend: 0x0, symName: __ZNSt3__115__tree_iteratorINS_12__value_typeINS_12basic_stringIcNS_11char_traitsIcEENS_9allocatorIcEEEENS_4pairIidEEEEPNS_11__tree_nodeISA_PvEElEppB8ne180100Ev, symObjAddr: 0x5EDC, symBinAddr: 0x100008694, symSize: 0x38 }
  - { offset: 0x22319, size: 0x8, addend: 0x0, symName: __ZNKSt3__116__tree_node_baseIPvE15__parent_unsafeB8ne180100Ev, symObjAddr: 0x6010, symBinAddr: 0x1000087C8, symSize: 0x18 }
  - { offset: 0x2233F, size: 0x8, addend: 0x0, symName: __ZNKSt3__115__tree_iteratorINS_12__value_typeINS_12basic_stringIcNS_11char_traitsIcEENS_9allocatorIcEEEENS_4pairIidEEEEPNS_11__tree_nodeISA_PvEElEptB8ne180100Ev, symObjAddr: 0x6028, symBinAddr: 0x1000087E0, symSize: 0x2C }
  - { offset: 0x22365, size: 0x8, addend: 0x0, symName: __ZNSt3__114pointer_traitsIPNS_12__value_typeINS_12basic_stringIcNS_11char_traitsIcEENS_9allocatorIcEEEENS_4pairIidEEEEE10pointer_toB8ne180100ERSA_, symObjAddr: 0x6054, symBinAddr: 0x10000880C, symSize: 0x14 }
  - { offset: 0x22388, size: 0x8, addend: 0x0, symName: __ZNKSt3__115__tree_iteratorINS_12__value_typeINS_12basic_stringIcNS_11char_traitsIcEENS_9allocatorIcEEEENS_4pairIidEEEEPNS_11__tree_nodeISA_PvEElE8__get_npB8ne180100Ev, symObjAddr: 0x6068, symBinAddr: 0x100008820, symSize: 0x18 }
  - { offset: 0x223AE, size: 0x8, addend: 0x0, symName: __ZNSt3__16__treeINS_12__value_typeINS_4pairINS_12basic_stringIcNS_11char_traitsIcEENS_9allocatorIcEEEES8_EENS2_IidEEEENS_19__map_value_compareIS9_SB_NS_4lessIS9_EELb1EEENS6_ISB_EEE5beginB8ne180100Ev, symObjAddr: 0x6080, symBinAddr: 0x100008838, symSize: 0x34 }
  - { offset: 0x223D4, size: 0x8, addend: 0x0, symName: __ZNSt3__114__map_iteratorINS_15__tree_iteratorINS_12__value_typeINS_4pairINS_12basic_stringIcNS_11char_traitsIcEENS_9allocatorIcEEEES9_EENS3_IidEEEEPNS_11__tree_nodeISC_PvEElEEEC1B8ne180100ESH_, symObjAddr: 0x60B4, symBinAddr: 0x10000886C, symSize: 0x34 }
  - { offset: 0x2240D, size: 0x8, addend: 0x0, symName: __ZNSt3__115__tree_iteratorINS_12__value_typeINS_4pairINS_12basic_stringIcNS_11char_traitsIcEENS_9allocatorIcEEEES8_EENS2_IidEEEEPNS_11__tree_nodeISB_PvEElEC1B8ne180100EPNS_15__tree_end_nodeIPNS_16__tree_node_baseISD_EEEE, symObjAddr: 0x60E8, symBinAddr: 0x1000088A0, symSize: 0x34 }
  - { offset: 0x22446, size: 0x8, addend: 0x0, symName: __ZNSt3__115__tree_iteratorINS_12__value_typeINS_4pairINS_12basic_stringIcNS_11char_traitsIcEENS_9allocatorIcEEEES8_EENS2_IidEEEEPNS_11__tree_nodeISB_PvEElEC2B8ne180100EPNS_15__tree_end_nodeIPNS_16__tree_node_baseISD_EEEE, symObjAddr: 0x611C, symBinAddr: 0x1000088D4, symSize: 0x20 }
  - { offset: 0x2247F, size: 0x8, addend: 0x0, symName: __ZNSt3__114__map_iteratorINS_15__tree_iteratorINS_12__value_typeINS_4pairINS_12basic_stringIcNS_11char_traitsIcEENS_9allocatorIcEEEES9_EENS3_IidEEEEPNS_11__tree_nodeISC_PvEElEEEC2B8ne180100ESH_, symObjAddr: 0x613C, symBinAddr: 0x1000088F4, symSize: 0x20 }
  - { offset: 0x224B8, size: 0x8, addend: 0x0, symName: __ZNSt3__16__treeINS_12__value_typeINS_4pairINS_12basic_stringIcNS_11char_traitsIcEENS_9allocatorIcEEEES8_EENS2_IidEEEENS_19__map_value_compareIS9_SB_NS_4lessIS9_EELb1EEENS6_ISB_EEE3endB8ne180100Ev, symObjAddr: 0x615C, symBinAddr: 0x100008914, symSize: 0x34 }
  - { offset: 0x224DE, size: 0x8, addend: 0x0, symName: __ZNSt3__115__tree_iteratorINS_12__value_typeINS_4pairINS_12basic_stringIcNS_11char_traitsIcEENS_9allocatorIcEEEES8_EENS2_IidEEEEPNS_11__tree_nodeISB_PvEElEppB8ne180100Ev, symObjAddr: 0x61F4, symBinAddr: 0x1000089AC, symSize: 0x38 }
  - { offset: 0x22504, size: 0x8, addend: 0x0, symName: __ZNKSt3__115__tree_iteratorINS_12__value_typeINS_4pairINS_12basic_stringIcNS_11char_traitsIcEENS_9allocatorIcEEEES8_EENS2_IidEEEEPNS_11__tree_nodeISB_PvEElEptB8ne180100Ev, symObjAddr: 0x622C, symBinAddr: 0x1000089E4, symSize: 0x2C }
  - { offset: 0x2252A, size: 0x8, addend: 0x0, symName: __ZNSt3__114pointer_traitsIPNS_12__value_typeINS_4pairINS_12basic_stringIcNS_11char_traitsIcEENS_9allocatorIcEEEES8_EENS2_IidEEEEE10pointer_toB8ne180100ERSB_, symObjAddr: 0x6258, symBinAddr: 0x100008A10, symSize: 0x14 }
  - { offset: 0x2254D, size: 0x8, addend: 0x0, symName: __ZNKSt3__115__tree_iteratorINS_12__value_typeINS_4pairINS_12basic_stringIcNS_11char_traitsIcEENS_9allocatorIcEEEES8_EENS2_IidEEEEPNS_11__tree_nodeISB_PvEElE8__get_npB8ne180100Ev, symObjAddr: 0x626C, symBinAddr: 0x100008A24, symSize: 0x18 }
  - { offset: 0x22573, size: 0x8, addend: 0x0, symName: __ZNKSt3__19basic_iosIcNS_11char_traitsIcEEE4failB8ne180100Ev, symObjAddr: 0x6284, symBinAddr: 0x100008A3C, symSize: 0x28 }
  - { offset: 0x22599, size: 0x8, addend: 0x0, symName: __ZNKSt3__18ios_base4failB8ne180100Ev, symObjAddr: 0x62AC, symBinAddr: 0x100008A64, symSize: 0x28 }
  - { offset: 0x225C1, size: 0x8, addend: 0x0, symName: __ZNSt3__114basic_iostreamIcNS_11char_traitsIcEEEC2B8ne180100EPNS_15basic_streambufIcS2_EE, symObjAddr: 0x62D4, symBinAddr: 0x100008A8C, symSize: 0xAC }
  - { offset: 0x22607, size: 0x8, addend: 0x0, symName: __ZNSt3__115basic_stringbufIcNS_11char_traitsIcEENS_9allocatorIcEEEC1B8ne180100ERKNS_12basic_stringIcS2_S4_EEj, symObjAddr: 0x6380, symBinAddr: 0x100008B38, symSize: 0x3C }
  - { offset: 0x2264F, size: 0x8, addend: 0x0, symName: __ZNSt3__113basic_ostreamIcNS_11char_traitsIcEEEC2B8ne180100Ev, symObjAddr: 0x63BC, symBinAddr: 0x100008B74, symSize: 0x34 }
  - { offset: 0x22686, size: 0x8, addend: 0x0, symName: __ZNSt3__115basic_stringbufIcNS_11char_traitsIcEENS_9allocatorIcEEEC2B8ne180100ERKNS_12basic_stringIcS2_S4_EEj, symObjAddr: 0x63F0, symBinAddr: 0x100008BA8, symSize: 0xA8 }
  - { offset: 0x226CE, size: 0x8, addend: 0x0, symName: __ZNKSt3__112basic_stringIcNS_11char_traitsIcEENS_9allocatorIcEEE13get_allocatorB8ne180100Ev, symObjAddr: 0x6498, symBinAddr: 0x100008C50, symSize: 0x24 }
  - { offset: 0x226F4, size: 0x8, addend: 0x0, symName: __ZNSt3__112basic_stringIcNS_11char_traitsIcEENS_9allocatorIcEEEC1B8ne180100ERKS4_, symObjAddr: 0x64BC, symBinAddr: 0x100008C74, symSize: 0x34 }
  - { offset: 0x2272D, size: 0x8, addend: 0x0, symName: __ZNKSt3__112basic_stringIcNS_11char_traitsIcEENS_9allocatorIcEEE7__allocB8ne180100Ev, symObjAddr: 0x64F0, symBinAddr: 0x100008CA8, symSize: 0x24 }
  - { offset: 0x22753, size: 0x8, addend: 0x0, symName: __ZNKSt3__117__compressed_pairINS_12basic_stringIcNS_11char_traitsIcEENS_9allocatorIcEEE5__repES5_E6secondB8ne180100Ev, symObjAddr: 0x6514, symBinAddr: 0x100008CCC, symSize: 0x24 }
  - { offset: 0x22779, size: 0x8, addend: 0x0, symName: __ZNKSt3__122__compressed_pair_elemINS_9allocatorIcEELi1ELb1EE5__getB8ne180100Ev, symObjAddr: 0x6538, symBinAddr: 0x100008CF0, symSize: 0x14 }
  - { offset: 0x2279F, size: 0x8, addend: 0x0, symName: __ZNSt3__112basic_stringIcNS_11char_traitsIcEENS_9allocatorIcEEEC2B8ne180100ERKS4_, symObjAddr: 0x654C, symBinAddr: 0x100008D04, symSize: 0x4C }
  - { offset: 0x227D8, size: 0x8, addend: 0x0, symName: __ZNSt3__117__compressed_pairINS_12basic_stringIcNS_11char_traitsIcEENS_9allocatorIcEEE5__repES5_EC1B8ne180100INS_16__value_init_tagERKS5_EEOT_OT0_, symObjAddr: 0x6598, symBinAddr: 0x100008D50, symSize: 0x3C }
  - { offset: 0x22830, size: 0x8, addend: 0x0, symName: __ZNSt3__117__compressed_pairINS_12basic_stringIcNS_11char_traitsIcEENS_9allocatorIcEEE5__repES5_EC2B8ne180100INS_16__value_init_tagERKS5_EEOT_OT0_, symObjAddr: 0x65D4, symBinAddr: 0x100008D8C, symSize: 0x40 }
  - { offset: 0x22888, size: 0x8, addend: 0x0, symName: __ZNSt3__122__compressed_pair_elemINS_9allocatorIcEELi1ELb1EEC2B8ne180100IRKS2_vEEOT_, symObjAddr: 0x6614, symBinAddr: 0x100008DCC, symSize: 0x18 }
  - { offset: 0x228EB, size: 0x8, addend: 0x0, symName: __ZNKSt3__113basic_istreamIcNS_11char_traitsIcEEE6sentrycvbB8ne180100Ev, symObjAddr: 0x662C, symBinAddr: 0x100008DE4, symSize: 0x1C }
  - { offset: 0x22911, size: 0x8, addend: 0x0, symName: __ZNSt3__112basic_stringIcNS_11char_traitsIcEENS_9allocatorIcEEE5clearB8ne180100Ev, symObjAddr: 0x6648, symBinAddr: 0x100008E00, symSize: 0x94 }
  - { offset: 0x22948, size: 0x8, addend: 0x0, symName: __ZNSt3__115basic_streambufIcNS_11char_traitsIcEEE6sbumpcB8ne180100Ev, symObjAddr: 0x66DC, symBinAddr: 0x100008E94, symSize: 0x78 }
  - { offset: 0x2296E, size: 0x8, addend: 0x0, symName: __ZNSt3__111char_traitsIcE12to_char_typeB8ne180100Ei, symObjAddr: 0x6754, symBinAddr: 0x100008F0C, symSize: 0x18 }
  - { offset: 0x22992, size: 0x8, addend: 0x0, symName: __ZNSt3__111char_traitsIcE2eqEcc, symObjAddr: 0x676C, symBinAddr: 0x100008F24, symSize: 0x28 }
  - { offset: 0x229C3, size: 0x8, addend: 0x0, symName: __ZNKSt3__112basic_stringIcNS_11char_traitsIcEENS_9allocatorIcEEE8max_sizeB8ne180100Ev, symObjAddr: 0x6794, symBinAddr: 0x100008F4C, symSize: 0xAC }
  - { offset: 0x22A15, size: 0x8, addend: 0x0, symName: __ZNSt3__18ios_base18__setstate_nothrowB8ne180100Ej, symObjAddr: 0x6840, symBinAddr: 0x100008FF8, symSize: 0x64 }
  - { offset: 0x22A4A, size: 0x8, addend: 0x0, symName: __ZNKSt3__19basic_iosIcNS_11char_traitsIcEEE10exceptionsB8ne180100Ev, symObjAddr: 0x68A4, symBinAddr: 0x10000905C, symSize: 0x24 }
  - { offset: 0x22A70, size: 0x8, addend: 0x0, symName: __ZNSt3__111char_traitsIcE6assignB8ne180100ERcRKc, symObjAddr: 0x68C8, symBinAddr: 0x100009080, symSize: 0x24 }
  - { offset: 0x22AA1, size: 0x8, addend: 0x0, symName: __ZNSt3__112basic_stringIcNS_11char_traitsIcEENS_9allocatorIcEEE15__set_long_sizeB8ne180100Em, symObjAddr: 0x68EC, symBinAddr: 0x1000090A4, symSize: 0x38 }
  - { offset: 0x22AD6, size: 0x8, addend: 0x0, symName: __ZNSt3__112basic_stringIcNS_11char_traitsIcEENS_9allocatorIcEEE16__set_short_sizeB8ne180100Em, symObjAddr: 0x6924, symBinAddr: 0x1000090DC, symSize: 0x78 }
  - { offset: 0x22B0B, size: 0x8, addend: 0x0, symName: __ZNKSt3__112basic_stringIcNS_11char_traitsIcEENS_9allocatorIcEEE17__annotate_shrinkB8ne180100Em, symObjAddr: 0x699C, symBinAddr: 0x100009154, symSize: 0x14 }
  - { offset: 0x22B40, size: 0x8, addend: 0x0, symName: __ZNSt3__111char_traitsIcE11to_int_typeB8ne180100Ec, symObjAddr: 0x69B0, symBinAddr: 0x100009168, symSize: 0x14 }
  - { offset: 0x22B6F, size: 0x8, addend: 0x0, symName: __ZNSt3__116allocator_traitsINS_9allocatorIcEEE8max_sizeB8ne180100IS2_vEEmRKS2_, symObjAddr: 0x69C4, symBinAddr: 0x10000917C, symSize: 0x24 }
  - { offset: 0x22B9D, size: 0x8, addend: 0x0, symName: __ZNSt3__114numeric_limitsImE3maxB8ne180100Ev, symObjAddr: 0x69E8, symBinAddr: 0x1000091A0, symSize: 0x14 }
  - { offset: 0x22BB1, size: 0x8, addend: 0x0, symName: __ZNKSt3__19allocatorIcE8max_sizeB8ne180100Ev, symObjAddr: 0x69FC, symBinAddr: 0x1000091B4, symSize: 0x14 }
  - { offset: 0x22BD7, size: 0x8, addend: 0x0, symName: __ZNSt3__123__libcpp_numeric_limitsImLb1EE3maxB8ne180100Ev, symObjAddr: 0x6A10, symBinAddr: 0x1000091C8, symSize: 0x8 }
  - { offset: 0x22BEB, size: 0x8, addend: 0x0, symName: __ZNKSt3__18ios_base10exceptionsB8ne180100Ev, symObjAddr: 0x6A18, symBinAddr: 0x1000091D0, symSize: 0x18 }
  - { offset: 0x22C13, size: 0x8, addend: 0x0, symName: __ZNSt3__114numeric_limitsIlE3maxB8ne180100Ev, symObjAddr: 0x6A30, symBinAddr: 0x1000091E8, symSize: 0x14 }
  - { offset: 0x22C27, size: 0x8, addend: 0x0, symName: __ZNSt3__115basic_streambufIcNS_11char_traitsIcEEE5sgetcB8ne180100Ev, symObjAddr: 0x6A44, symBinAddr: 0x1000091FC, symSize: 0x70 }
  - { offset: 0x22C4D, size: 0x8, addend: 0x0, symName: __ZNKSt3__15ctypeIcE2isB8ne180100Ejc, symObjAddr: 0x6AB4, symBinAddr: 0x10000926C, symSize: 0x7C }
  - { offset: 0x22C91, size: 0x8, addend: 0x0, symName: __ZNSt3__123__libcpp_numeric_limitsIlLb1EE3maxB8ne180100Ev, symObjAddr: 0x6B30, symBinAddr: 0x1000092E8, symSize: 0x8 }
  - { offset: 0x22CA4, size: 0x8, addend: 0x0, symName: __Z7isasciii, symObjAddr: 0x6B38, symBinAddr: 0x1000092F0, symSize: 0x24 }
  - { offset: 0x22CD1, size: 0x8, addend: 0x0, symName: __ZNSt3__16__treeINS_12basic_stringIcNS_11char_traitsIcEENS_9allocatorIcEEEENS_4lessIS6_EENS4_IS6_EEE15__insert_uniqueB8ne180100ERKS6_, symObjAddr: 0x6B5C, symBinAddr: 0x100009314, symSize: 0x50 }
  - { offset: 0x22D06, size: 0x8, addend: 0x0, symName: __ZNSt3__14pairINS_21__tree_const_iteratorINS_12basic_stringIcNS_11char_traitsIcEENS_9allocatorIcEEEEPNS_11__tree_nodeIS7_PvEElEEbEC1B8ne180100INS_15__tree_iteratorIS7_SB_lEEbLi0EEEONS0_IT_T0_EE, symObjAddr: 0x6BAC, symBinAddr: 0x100009364, symSize: 0x34 }
  - { offset: 0x22D56, size: 0x8, addend: 0x0, symName: __ZNSt3__16__treeINS_12basic_stringIcNS_11char_traitsIcEENS_9allocatorIcEEEENS_4lessIS6_EENS4_IS6_EEE25__emplace_unique_key_argsIS6_JRKS6_EEENS_4pairINS_15__tree_iteratorIS6_PNS_11__tree_nodeIS6_PvEElEEbEERKT_DpOT0_, symObjAddr: 0x6BE0, symBinAddr: 0x100009398, symSize: 0xF0 }
  - { offset: 0x22E02, size: 0x8, addend: 0x0, symName: __ZNSt3__122__tree_key_value_typesINS_12basic_stringIcNS_11char_traitsIcEENS_9allocatorIcEEEEE9__get_keyB8ne180100ERKS6_, symObjAddr: 0x6CD0, symBinAddr: 0x100009488, symSize: 0x14 }
  - { offset: 0x22E26, size: 0x8, addend: 0x0, symName: __ZNSt3__16__treeINS_12basic_stringIcNS_11char_traitsIcEENS_9allocatorIcEEEENS_4lessIS6_EENS4_IS6_EEE12__find_equalIS6_EERPNS_16__tree_node_baseIPvEERPNS_15__tree_end_nodeISF_EERKT_, symObjAddr: 0x6CE4, symBinAddr: 0x10000949C, symSize: 0x184 }
  - { offset: 0x22E93, size: 0x8, addend: 0x0, symName: __ZNSt3__16__treeINS_12basic_stringIcNS_11char_traitsIcEENS_9allocatorIcEEEENS_4lessIS6_EENS4_IS6_EEE16__construct_nodeIJRKS6_EEENS_10unique_ptrINS_11__tree_nodeIS6_PvEENS_22__tree_node_destructorINS4_ISH_EEEEEEDpOT_, symObjAddr: 0x6E68, symBinAddr: 0x100009620, symSize: 0x108 }
  - { offset: 0x22EF4, size: 0x8, addend: 0x0, symName: __ZNSt3__16__treeINS_12basic_stringIcNS_11char_traitsIcEENS_9allocatorIcEEEENS_4lessIS6_EENS4_IS6_EEE16__insert_node_atEPNS_15__tree_end_nodeIPNS_16__tree_node_baseIPvEEEERSF_SF_, symObjAddr: 0x6F70, symBinAddr: 0x100009728, symSize: 0xCC }
  - { offset: 0x22F49, size: 0x8, addend: 0x0, symName: __ZNKSt3__110unique_ptrINS_11__tree_nodeINS_12basic_stringIcNS_11char_traitsIcEENS_9allocatorIcEEEEPvEENS_22__tree_node_destructorINS5_IS9_EEEEE3getB8ne180100Ev, symObjAddr: 0x703C, symBinAddr: 0x1000097F4, symSize: 0x28 }
  - { offset: 0x22F6F, size: 0x8, addend: 0x0, symName: __ZNSt3__110unique_ptrINS_11__tree_nodeINS_12basic_stringIcNS_11char_traitsIcEENS_9allocatorIcEEEEPvEENS_22__tree_node_destructorINS5_IS9_EEEEE7releaseB8ne180100Ev, symObjAddr: 0x7064, symBinAddr: 0x10000981C, symSize: 0x44 }
  - { offset: 0x22FA4, size: 0x8, addend: 0x0, symName: __ZNSt3__110unique_ptrINS_11__tree_nodeINS_12basic_stringIcNS_11char_traitsIcEENS_9allocatorIcEEEEPvEENS_22__tree_node_destructorINS5_IS9_EEEEED1B8ne180100Ev, symObjAddr: 0x70A8, symBinAddr: 0x100009860, symSize: 0x2C }
  - { offset: 0x22FCE, size: 0x8, addend: 0x0, symName: __ZNSt3__115__tree_iteratorINS_12basic_stringIcNS_11char_traitsIcEENS_9allocatorIcEEEEPNS_11__tree_nodeIS6_PvEElEC1B8ne180100ESA_, symObjAddr: 0x70D4, symBinAddr: 0x10000988C, symSize: 0x34 }
  - { offset: 0x2300D, size: 0x8, addend: 0x0, symName: __ZNSt3__14pairINS_15__tree_iteratorINS_12basic_stringIcNS_11char_traitsIcEENS_9allocatorIcEEEEPNS_11__tree_nodeIS7_PvEElEEbEC1B8ne180100ISC_RbLi0EEEOT_OT0_, symObjAddr: 0x7108, symBinAddr: 0x1000098C0, symSize: 0x3C }
  - { offset: 0x2306B, size: 0x8, addend: 0x0, symName: __ZNKSt3__16__treeINS_12basic_stringIcNS_11char_traitsIcEENS_9allocatorIcEEEENS_4lessIS6_EENS4_IS6_EEE10__root_ptrB8ne180100Ev, symObjAddr: 0x7144, symBinAddr: 0x1000098FC, symSize: 0x24 }
  - { offset: 0x23091, size: 0x8, addend: 0x0, symName: __ZNSt3__16__treeINS_12basic_stringIcNS_11char_traitsIcEENS_9allocatorIcEEEENS_4lessIS6_EENS4_IS6_EEE10value_compB8ne180100Ev, symObjAddr: 0x7168, symBinAddr: 0x100009920, symSize: 0x28 }
  - { offset: 0x230B7, size: 0x8, addend: 0x0, symName: __ZNKSt3__14lessINS_12basic_stringIcNS_11char_traitsIcEENS_9allocatorIcEEEEEclB8ne180100ERKS6_S9_, symObjAddr: 0x7190, symBinAddr: 0x100009948, symSize: 0x34 }
  - { offset: 0x230FB, size: 0x8, addend: 0x0, symName: __ZNSt3__117__compressed_pairImNS_4lessINS_12basic_stringIcNS_11char_traitsIcEENS_9allocatorIcEEEEEEE6secondB8ne180100Ev, symObjAddr: 0x71C4, symBinAddr: 0x10000997C, symSize: 0x24 }
  - { offset: 0x23121, size: 0x8, addend: 0x0, symName: __ZNSt3__122__compressed_pair_elemINS_4lessINS_12basic_stringIcNS_11char_traitsIcEENS_9allocatorIcEEEEEELi1ELb1EE5__getB8ne180100Ev, symObjAddr: 0x71E8, symBinAddr: 0x1000099A0, symSize: 0x14 }
  - { offset: 0x23147, size: 0x8, addend: 0x0, symName: __ZNKSt3__112basic_stringIcNS_11char_traitsIcEENS_9allocatorIcEEE7compareB8ne180100ERKS5_, symObjAddr: 0x7234, symBinAddr: 0x1000099EC, symSize: 0x4C }
  - { offset: 0x2317E, size: 0x8, addend: 0x0, symName: __ZNKSt3__112basic_stringIcNS_11char_traitsIcEENS_9allocatorIcEEE7compareINS_17basic_string_viewIcS2_EELi0EEEiRKT_, symObjAddr: 0x7280, symBinAddr: 0x100009A38, symSize: 0x12C }
  - { offset: 0x23201, size: 0x8, addend: 0x0, symName: __ZNKSt3__112basic_stringIcNS_11char_traitsIcEENS_9allocatorIcEEEcvNS_17basic_string_viewIcS2_EEB8ne180100Ev, symObjAddr: 0x73AC, symBinAddr: 0x100009B64, symSize: 0x50 }
  - { offset: 0x23227, size: 0x8, addend: 0x0, symName: __ZNKSt3__117basic_string_viewIcNS_11char_traitsIcEEE4sizeB8ne180100Ev, symObjAddr: 0x73FC, symBinAddr: 0x100009BB4, symSize: 0x18 }
  - { offset: 0x2324D, size: 0x8, addend: 0x0, symName: __ZNSt3__111char_traitsIcE7compareB8ne180100EPKcS3_m, symObjAddr: 0x7414, symBinAddr: 0x100009BCC, symSize: 0x34 }
  - { offset: 0x2328C, size: 0x8, addend: 0x0, symName: __ZNKSt3__112basic_stringIcNS_11char_traitsIcEENS_9allocatorIcEEE4dataB8ne180100Ev, symObjAddr: 0x7448, symBinAddr: 0x100009C00, symSize: 0x28 }
  - { offset: 0x232B2, size: 0x8, addend: 0x0, symName: __ZNKSt3__117basic_string_viewIcNS_11char_traitsIcEEE4dataB8ne180100Ev, symObjAddr: 0x7470, symBinAddr: 0x100009C28, symSize: 0x18 }
  - { offset: 0x232D8, size: 0x8, addend: 0x0, symName: __ZNKSt3__112basic_stringIcNS_11char_traitsIcEENS_9allocatorIcEEE13__get_pointerB8ne180100Ev, symObjAddr: 0x74C8, symBinAddr: 0x100009C80, symSize: 0x54 }
  - { offset: 0x232FE, size: 0x8, addend: 0x0, symName: __ZNKSt3__112basic_stringIcNS_11char_traitsIcEENS_9allocatorIcEEE18__get_long_pointerB8ne180100Ev, symObjAddr: 0x751C, symBinAddr: 0x100009CD4, symSize: 0x28 }
  - { offset: 0x23324, size: 0x8, addend: 0x0, symName: __ZNKSt3__112basic_stringIcNS_11char_traitsIcEENS_9allocatorIcEEE19__get_short_pointerB8ne180100Ev, symObjAddr: 0x7544, symBinAddr: 0x100009CFC, symSize: 0x28 }
  - { offset: 0x2334A, size: 0x8, addend: 0x0, symName: __ZNSt3__114pointer_traitsIPKcE10pointer_toB8ne180100ERS1_, symObjAddr: 0x756C, symBinAddr: 0x100009D24, symSize: 0x14 }
  - { offset: 0x23377, size: 0x8, addend: 0x0, symName: __ZNKSt3__16__lessIvvEclB8ne180100ImmEEbRKT_RKT0_, symObjAddr: 0x75D4, symBinAddr: 0x100009D8C, symSize: 0x34 }
  - { offset: 0x233CB, size: 0x8, addend: 0x0, symName: __ZNSt3__117basic_string_viewIcNS_11char_traitsIcEEEC1B8ne180100EPKcm, symObjAddr: 0x7608, symBinAddr: 0x100009DC0, symSize: 0x3C }
  - { offset: 0x23413, size: 0x8, addend: 0x0, symName: __ZNSt3__117basic_string_viewIcNS_11char_traitsIcEEEC2B8ne180100EPKcm, symObjAddr: 0x7644, symBinAddr: 0x100009DFC, symSize: 0x2C }
  - { offset: 0x2345B, size: 0x8, addend: 0x0, symName: __ZNSt3__116allocator_traitsINS_9allocatorINS_11__tree_nodeINS_12basic_stringIcNS_11char_traitsIcEENS1_IcEEEEPvEEEEE8allocateB8ne180100ERSA_m, symObjAddr: 0x7670, symBinAddr: 0x100009E28, symSize: 0x2C }
  - { offset: 0x2348E, size: 0x8, addend: 0x0, symName: __ZNSt3__122__tree_node_destructorINS_9allocatorINS_11__tree_nodeINS_12basic_stringIcNS_11char_traitsIcEENS1_IcEEEEPvEEEEEC1B8ne180100ERSA_b, symObjAddr: 0x769C, symBinAddr: 0x100009E54, symSize: 0x48 }
  - { offset: 0x234DC, size: 0x8, addend: 0x0, symName: __ZNSt3__110unique_ptrINS_11__tree_nodeINS_12basic_stringIcNS_11char_traitsIcEENS_9allocatorIcEEEEPvEENS_22__tree_node_destructorINS5_IS9_EEEEEC1B8ne180100ILb1EvEEPS9_NS_16__dependent_typeINS_27__unique_ptr_deleter_sfinaeISC_EEXT_EE20__good_rval_ref_typeE, symObjAddr: 0x76E4, symBinAddr: 0x100009E9C, symSize: 0x3C }
  - { offset: 0x2352D, size: 0x8, addend: 0x0, symName: __ZNSt3__116allocator_traitsINS_9allocatorINS_11__tree_nodeINS_12basic_stringIcNS_11char_traitsIcEENS1_IcEEEEPvEEEEE9constructB8ne180100IS7_JRKS7_EvEEvRSA_PT_DpOT0_, symObjAddr: 0x7720, symBinAddr: 0x100009ED8, symSize: 0x34 }
  - { offset: 0x23584, size: 0x8, addend: 0x0, symName: __ZNKSt3__110unique_ptrINS_11__tree_nodeINS_12basic_stringIcNS_11char_traitsIcEENS_9allocatorIcEEEEPvEENS_22__tree_node_destructorINS5_IS9_EEEEEptB8ne180100Ev, symObjAddr: 0x7754, symBinAddr: 0x100009F0C, symSize: 0x28 }
  - { offset: 0x235AA, size: 0x8, addend: 0x0, symName: __ZNSt3__110unique_ptrINS_11__tree_nodeINS_12basic_stringIcNS_11char_traitsIcEENS_9allocatorIcEEEEPvEENS_22__tree_node_destructorINS5_IS9_EEEEE11get_deleterB8ne180100Ev, symObjAddr: 0x777C, symBinAddr: 0x100009F34, symSize: 0x24 }
  - { offset: 0x235D0, size: 0x8, addend: 0x0, symName: __ZNSt3__19allocatorINS_11__tree_nodeINS_12basic_stringIcNS_11char_traitsIcEENS0_IcEEEEPvEEE8allocateB8ne180100Em, symObjAddr: 0x77A0, symBinAddr: 0x100009F58, symSize: 0x5C }
  - { offset: 0x2360F, size: 0x8, addend: 0x0, symName: __ZNSt3__116allocator_traitsINS_9allocatorINS_11__tree_nodeINS_12basic_stringIcNS_11char_traitsIcEENS1_IcEEEEPvEEEEE8max_sizeB8ne180100ISA_vEEmRKSA_, symObjAddr: 0x77FC, symBinAddr: 0x100009FB4, symSize: 0x24 }
  - { offset: 0x2363D, size: 0x8, addend: 0x0, symName: __ZNKSt3__19allocatorINS_11__tree_nodeINS_12basic_stringIcNS_11char_traitsIcEENS0_IcEEEEPvEEE8max_sizeB8ne180100Ev, symObjAddr: 0x78B4, symBinAddr: 0x10000A06C, symSize: 0x20 }
  - { offset: 0x23663, size: 0x8, addend: 0x0, symName: __ZNSt3__122__tree_node_destructorINS_9allocatorINS_11__tree_nodeINS_12basic_stringIcNS_11char_traitsIcEENS1_IcEEEEPvEEEEEC2B8ne180100ERSA_b, symObjAddr: 0x7924, symBinAddr: 0x10000A0DC, symSize: 0x38 }
  - { offset: 0x236AB, size: 0x8, addend: 0x0, symName: __ZNSt3__110unique_ptrINS_11__tree_nodeINS_12basic_stringIcNS_11char_traitsIcEENS_9allocatorIcEEEEPvEENS_22__tree_node_destructorINS5_IS9_EEEEEC2B8ne180100ILb1EvEEPS9_NS_16__dependent_typeINS_27__unique_ptr_deleter_sfinaeISC_EEXT_EE20__good_rval_ref_typeE, symObjAddr: 0x795C, symBinAddr: 0x10000A114, symSize: 0x48 }
  - { offset: 0x236FC, size: 0x8, addend: 0x0, symName: __ZNSt3__117__compressed_pairIPNS_11__tree_nodeINS_12basic_stringIcNS_11char_traitsIcEENS_9allocatorIcEEEEPvEENS_22__tree_node_destructorINS5_IS9_EEEEEC1B8ne180100IRSA_SD_EEOT_OT0_, symObjAddr: 0x79A4, symBinAddr: 0x10000A15C, symSize: 0x3C }
  - { offset: 0x23754, size: 0x8, addend: 0x0, symName: __ZNSt3__117__compressed_pairIPNS_11__tree_nodeINS_12basic_stringIcNS_11char_traitsIcEENS_9allocatorIcEEEEPvEENS_22__tree_node_destructorINS5_IS9_EEEEEC2B8ne180100IRSA_SD_EEOT_OT0_, symObjAddr: 0x79E0, symBinAddr: 0x10000A198, symSize: 0x48 }
  - { offset: 0x237AC, size: 0x8, addend: 0x0, symName: __ZNSt3__122__compressed_pair_elemIPNS_11__tree_nodeINS_12basic_stringIcNS_11char_traitsIcEENS_9allocatorIcEEEEPvEELi0ELb0EEC2B8ne180100IRSA_vEEOT_, symObjAddr: 0x7A28, symBinAddr: 0x10000A1E0, symSize: 0x24 }
  - { offset: 0x237EE, size: 0x8, addend: 0x0, symName: __ZNSt3__122__compressed_pair_elemINS_22__tree_node_destructorINS_9allocatorINS_11__tree_nodeINS_12basic_stringIcNS_11char_traitsIcEENS2_IcEEEEPvEEEEEELi1ELb0EEC2B8ne180100ISC_vEEOT_, symObjAddr: 0x7A4C, symBinAddr: 0x10000A204, symSize: 0x24 }
  - { offset: 0x23830, size: 0x8, addend: 0x0, symName: __ZNSt3__19allocatorINS_11__tree_nodeINS_12basic_stringIcNS_11char_traitsIcEENS0_IcEEEEPvEEE9constructB8ne180100IS6_JRKS6_EEEvPT_DpOT0_, symObjAddr: 0x7A70, symBinAddr: 0x10000A228, symSize: 0x30 }
  - { offset: 0x23886, size: 0x8, addend: 0x0, symName: __ZNKSt3__117__compressed_pairIPNS_11__tree_nodeINS_12basic_stringIcNS_11char_traitsIcEENS_9allocatorIcEEEEPvEENS_22__tree_node_destructorINS5_IS9_EEEEE5firstB8ne180100Ev, symObjAddr: 0x7AA0, symBinAddr: 0x10000A258, symSize: 0x24 }
  - { offset: 0x238AC, size: 0x8, addend: 0x0, symName: __ZNKSt3__122__compressed_pair_elemIPNS_11__tree_nodeINS_12basic_stringIcNS_11char_traitsIcEENS_9allocatorIcEEEEPvEELi0ELb0EE5__getB8ne180100Ev, symObjAddr: 0x7AC4, symBinAddr: 0x10000A27C, symSize: 0x14 }
  - { offset: 0x238D2, size: 0x8, addend: 0x0, symName: __ZNSt3__117__compressed_pairIPNS_11__tree_nodeINS_12basic_stringIcNS_11char_traitsIcEENS_9allocatorIcEEEEPvEENS_22__tree_node_destructorINS5_IS9_EEEEE6secondB8ne180100Ev, symObjAddr: 0x7AD8, symBinAddr: 0x10000A290, symSize: 0x28 }
  - { offset: 0x238F8, size: 0x8, addend: 0x0, symName: __ZNSt3__122__compressed_pair_elemINS_22__tree_node_destructorINS_9allocatorINS_11__tree_nodeINS_12basic_stringIcNS_11char_traitsIcEENS2_IcEEEEPvEEEEEELi1ELb0EE5__getB8ne180100Ev, symObjAddr: 0x7B00, symBinAddr: 0x10000A2B8, symSize: 0x14 }
  - { offset: 0x2391E, size: 0x8, addend: 0x0, symName: __ZNSt3__16__treeINS_12basic_stringIcNS_11char_traitsIcEENS_9allocatorIcEEEENS_4lessIS6_EENS4_IS6_EEE4sizeB8ne180100Ev, symObjAddr: 0x7D90, symBinAddr: 0x10000A548, symSize: 0x28 }
  - { offset: 0x23944, size: 0x8, addend: 0x0, symName: __ZNSt3__116__tree_node_baseIPvE12__set_parentB8ne180100EPS2_, symObjAddr: 0x7F5C, symBinAddr: 0x10000A714, symSize: 0x20 }
  - { offset: 0x23979, size: 0x8, addend: 0x0, symName: __ZNSt3__117__compressed_pairImNS_4lessINS_12basic_stringIcNS_11char_traitsIcEENS_9allocatorIcEEEEEEE5firstB8ne180100Ev, symObjAddr: 0x7F7C, symBinAddr: 0x10000A734, symSize: 0x24 }
  - { offset: 0x2399F, size: 0x8, addend: 0x0, symName: __ZNSt3__122__compressed_pair_elemImLi0ELb0EE5__getB8ne180100Ev, symObjAddr: 0x7FA0, symBinAddr: 0x10000A758, symSize: 0x14 }
  - { offset: 0x239C5, size: 0x8, addend: 0x0, symName: __ZNSt3__117__compressed_pairIPNS_11__tree_nodeINS_12basic_stringIcNS_11char_traitsIcEENS_9allocatorIcEEEEPvEENS_22__tree_node_destructorINS5_IS9_EEEEE5firstB8ne180100Ev, symObjAddr: 0x7FB4, symBinAddr: 0x10000A76C, symSize: 0x24 }
  - { offset: 0x239EB, size: 0x8, addend: 0x0, symName: __ZNSt3__122__compressed_pair_elemIPNS_11__tree_nodeINS_12basic_stringIcNS_11char_traitsIcEENS_9allocatorIcEEEEPvEELi0ELb0EE5__getB8ne180100Ev, symObjAddr: 0x7FD8, symBinAddr: 0x10000A790, symSize: 0x14 }
  - { offset: 0x23A11, size: 0x8, addend: 0x0, symName: __ZNSt3__110unique_ptrINS_11__tree_nodeINS_12basic_stringIcNS_11char_traitsIcEENS_9allocatorIcEEEEPvEENS_22__tree_node_destructorINS5_IS9_EEEEED2B8ne180100Ev, symObjAddr: 0x7FEC, symBinAddr: 0x10000A7A4, symSize: 0x30 }
  - { offset: 0x23A3B, size: 0x8, addend: 0x0, symName: __ZNSt3__110unique_ptrINS_11__tree_nodeINS_12basic_stringIcNS_11char_traitsIcEENS_9allocatorIcEEEEPvEENS_22__tree_node_destructorINS5_IS9_EEEEE5resetB8ne180100EPS9_, symObjAddr: 0x801C, symBinAddr: 0x10000A7D4, symSize: 0x78 }
  - { offset: 0x23A7F, size: 0x8, addend: 0x0, symName: __ZNSt3__122__tree_node_destructorINS_9allocatorINS_11__tree_nodeINS_12basic_stringIcNS_11char_traitsIcEENS1_IcEEEEPvEEEEEclB8ne180100EPS9_, symObjAddr: 0x8094, symBinAddr: 0x10000A84C, symSize: 0x90 }
  - { offset: 0x23AB4, size: 0x8, addend: 0x0, symName: __ZNSt3__115__tree_iteratorINS_12basic_stringIcNS_11char_traitsIcEENS_9allocatorIcEEEEPNS_11__tree_nodeIS6_PvEElEC2B8ne180100ESA_, symObjAddr: 0x8124, symBinAddr: 0x10000A8DC, symSize: 0x20 }
  - { offset: 0x23AED, size: 0x8, addend: 0x0, symName: __ZNSt3__14pairINS_15__tree_iteratorINS_12basic_stringIcNS_11char_traitsIcEENS_9allocatorIcEEEEPNS_11__tree_nodeIS7_PvEElEEbEC2B8ne180100ISC_RbLi0EEEOT_OT0_, symObjAddr: 0x8144, symBinAddr: 0x10000A8FC, symSize: 0x38 }
  - { offset: 0x23B4B, size: 0x8, addend: 0x0, symName: __ZNSt3__14pairINS_21__tree_const_iteratorINS_12basic_stringIcNS_11char_traitsIcEENS_9allocatorIcEEEEPNS_11__tree_nodeIS7_PvEElEEbEC2B8ne180100INS_15__tree_iteratorIS7_SB_lEEbLi0EEEONS0_IT_T0_EE, symObjAddr: 0x817C, symBinAddr: 0x10000A934, symSize: 0x50 }
  - { offset: 0x23B9B, size: 0x8, addend: 0x0, symName: __ZNSt3__121__tree_const_iteratorINS_12basic_stringIcNS_11char_traitsIcEENS_9allocatorIcEEEEPNS_11__tree_nodeIS6_PvEElEC1B8ne180100ENS_15__tree_iteratorIS6_SA_lEE, symObjAddr: 0x81CC, symBinAddr: 0x10000A984, symSize: 0x34 }
  - { offset: 0x23BD4, size: 0x8, addend: 0x0, symName: __ZNSt3__121__tree_const_iteratorINS_12basic_stringIcNS_11char_traitsIcEENS_9allocatorIcEEEEPNS_11__tree_nodeIS6_PvEElEC2B8ne180100ENS_15__tree_iteratorIS6_SA_lEE, symObjAddr: 0x8200, symBinAddr: 0x10000A9B8, symSize: 0x20 }
  - { offset: 0x23C0D, size: 0x8, addend: 0x0, symName: __ZNSt3__16__treeINS_12basic_stringIcNS_11char_traitsIcEENS_9allocatorIcEEEENS_4lessIS6_EENS4_IS6_EEE5beginB8ne180100Ev, symObjAddr: 0x8220, symBinAddr: 0x10000A9D8, symSize: 0x34 }
  - { offset: 0x23C33, size: 0x8, addend: 0x0, symName: __ZNSt3__115__tree_iteratorINS_12basic_stringIcNS_11char_traitsIcEENS_9allocatorIcEEEEPNS_11__tree_nodeIS6_PvEElEC1B8ne180100EPNS_15__tree_end_nodeIPNS_16__tree_node_baseIS8_EEEE, symObjAddr: 0x8254, symBinAddr: 0x10000AA0C, symSize: 0x34 }
  - { offset: 0x23C6C, size: 0x8, addend: 0x0, symName: __ZNSt3__115__tree_iteratorINS_12basic_stringIcNS_11char_traitsIcEENS_9allocatorIcEEEEPNS_11__tree_nodeIS6_PvEElEC2B8ne180100EPNS_15__tree_end_nodeIPNS_16__tree_node_baseIS8_EEEE, symObjAddr: 0x8288, symBinAddr: 0x10000AA40, symSize: 0x20 }
  - { offset: 0x23CA5, size: 0x8, addend: 0x0, symName: __ZNSt3__16__treeINS_12basic_stringIcNS_11char_traitsIcEENS_9allocatorIcEEEENS_4lessIS6_EENS4_IS6_EEE3endB8ne180100Ev, symObjAddr: 0x82A8, symBinAddr: 0x10000AA60, symSize: 0x34 }
  - { offset: 0x23CCB, size: 0x8, addend: 0x0, symName: __ZNKSt3__121__tree_const_iteratorINS_12basic_stringIcNS_11char_traitsIcEENS_9allocatorIcEEEEPNS_11__tree_nodeIS6_PvEElE8__get_npB8ne180100Ev, symObjAddr: 0x830C, symBinAddr: 0x10000AAC4, symSize: 0x18 }
  - { offset: 0x23D08, size: 0x8, addend: 0x0, symName: __ZNSt3__16__treeINS_12__value_typeINS_12basic_stringIcNS_11char_traitsIcEENS_9allocatorIcEEEEiEENS_19__map_value_compareIS7_S8_NS_4lessIS7_EELb1EEENS5_IS8_EEE25__emplace_unique_key_argsIS7_JRKNS_21piecewise_construct_tENS_5tupleIJRKS7_EEENSJ_IJEEEEEENS_4pairINS_15__tree_iteratorIS8_PNS_11__tree_nodeIS8_PvEElEEbEERKT_DpOT0_, symObjAddr: 0x8324, symBinAddr: 0x10000AADC, symSize: 0x100 }
  - { offset: 0x23DDE, size: 0x8, addend: 0x0, symName: __ZNKSt3__115__tree_iteratorINS_12__value_typeINS_12basic_stringIcNS_11char_traitsIcEENS_9allocatorIcEEEEiEEPNS_11__tree_nodeIS8_PvEElEptB8ne180100Ev, symObjAddr: 0x8454, symBinAddr: 0x10000AC0C, symSize: 0x2C }
  - { offset: 0x23E04, size: 0x8, addend: 0x0, symName: __ZNSt3__16__treeINS_12__value_typeINS_12basic_stringIcNS_11char_traitsIcEENS_9allocatorIcEEEEiEENS_19__map_value_compareIS7_S8_NS_4lessIS7_EELb1EEENS5_IS8_EEE12__find_equalIS7_EERPNS_16__tree_node_baseIPvEERPNS_15__tree_end_nodeISJ_EERKT_, symObjAddr: 0x8480, symBinAddr: 0x10000AC38, symSize: 0x184 }
  - { offset: 0x23E71, size: 0x8, addend: 0x0, symName: __ZNSt3__16__treeINS_12__value_typeINS_12basic_stringIcNS_11char_traitsIcEENS_9allocatorIcEEEEiEENS_19__map_value_compareIS7_S8_NS_4lessIS7_EELb1EEENS5_IS8_EEE16__construct_nodeIJRKNS_21piecewise_construct_tENS_5tupleIJRKS7_EEENSJ_IJEEEEEENS_10unique_ptrINS_11__tree_nodeIS8_PvEENS_22__tree_node_destructorINS5_ISR_EEEEEEDpOT_, symObjAddr: 0x8604, symBinAddr: 0x10000ADBC, symSize: 0x120 }
  - { offset: 0x23EFA, size: 0x8, addend: 0x0, symName: __ZNSt3__16__treeINS_12__value_typeINS_12basic_stringIcNS_11char_traitsIcEENS_9allocatorIcEEEEiEENS_19__map_value_compareIS7_S8_NS_4lessIS7_EELb1EEENS5_IS8_EEE16__insert_node_atEPNS_15__tree_end_nodeIPNS_16__tree_node_baseIPvEEEERSJ_SJ_, symObjAddr: 0x8724, symBinAddr: 0x10000AEDC, symSize: 0xCC }
  - { offset: 0x23F4F, size: 0x8, addend: 0x0, symName: __ZNKSt3__110unique_ptrINS_11__tree_nodeINS_12__value_typeINS_12basic_stringIcNS_11char_traitsIcEENS_9allocatorIcEEEEiEEPvEENS_22__tree_node_destructorINS6_ISB_EEEEE3getB8ne180100Ev, symObjAddr: 0x87F0, symBinAddr: 0x10000AFA8, symSize: 0x28 }
  - { offset: 0x23F75, size: 0x8, addend: 0x0, symName: __ZNSt3__110unique_ptrINS_11__tree_nodeINS_12__value_typeINS_12basic_stringIcNS_11char_traitsIcEENS_9allocatorIcEEEEiEEPvEENS_22__tree_node_destructorINS6_ISB_EEEEE7releaseB8ne180100Ev, symObjAddr: 0x8818, symBinAddr: 0x10000AFD0, symSize: 0x44 }
  - { offset: 0x23FAA, size: 0x8, addend: 0x0, symName: __ZNSt3__110unique_ptrINS_11__tree_nodeINS_12__value_typeINS_12basic_stringIcNS_11char_traitsIcEENS_9allocatorIcEEEEiEEPvEENS_22__tree_node_destructorINS6_ISB_EEEEED1B8ne180100Ev, symObjAddr: 0x885C, symBinAddr: 0x10000B014, symSize: 0x2C }
  - { offset: 0x23FD4, size: 0x8, addend: 0x0, symName: __ZNSt3__115__tree_iteratorINS_12__value_typeINS_12basic_stringIcNS_11char_traitsIcEENS_9allocatorIcEEEEiEEPNS_11__tree_nodeIS8_PvEElEC1B8ne180100ESC_, symObjAddr: 0x8888, symBinAddr: 0x10000B040, symSize: 0x34 }
  - { offset: 0x24013, size: 0x8, addend: 0x0, symName: __ZNSt3__14pairINS_15__tree_iteratorINS_12__value_typeINS_12basic_stringIcNS_11char_traitsIcEENS_9allocatorIcEEEEiEEPNS_11__tree_nodeIS9_PvEElEEbEC1B8ne180100ISE_RbLi0EEEOT_OT0_, symObjAddr: 0x88BC, symBinAddr: 0x10000B074, symSize: 0x3C }
  - { offset: 0x24071, size: 0x8, addend: 0x0, symName: __ZNKSt3__16__treeINS_12__value_typeINS_12basic_stringIcNS_11char_traitsIcEENS_9allocatorIcEEEEiEENS_19__map_value_compareIS7_S8_NS_4lessIS7_EELb1EEENS5_IS8_EEE10__root_ptrB8ne180100Ev, symObjAddr: 0x88F8, symBinAddr: 0x10000B0B0, symSize: 0x24 }
  - { offset: 0x24097, size: 0x8, addend: 0x0, symName: __ZNSt3__16__treeINS_12__value_typeINS_12basic_stringIcNS_11char_traitsIcEENS_9allocatorIcEEEEiEENS_19__map_value_compareIS7_S8_NS_4lessIS7_EELb1EEENS5_IS8_EEE10value_compB8ne180100Ev, symObjAddr: 0x891C, symBinAddr: 0x10000B0D4, symSize: 0x28 }
  - { offset: 0x240BD, size: 0x8, addend: 0x0, symName: __ZNKSt3__119__map_value_compareINS_12basic_stringIcNS_11char_traitsIcEENS_9allocatorIcEEEENS_12__value_typeIS6_iEENS_4lessIS6_EELb1EEclB8ne180100ERKS6_RKS8_, symObjAddr: 0x8944, symBinAddr: 0x10000B0FC, symSize: 0x50 }
  - { offset: 0x24101, size: 0x8, addend: 0x0, symName: __ZNKSt3__119__map_value_compareINS_12basic_stringIcNS_11char_traitsIcEENS_9allocatorIcEEEENS_12__value_typeIS6_iEENS_4lessIS6_EELb1EEclB8ne180100ERKS8_RKS6_, symObjAddr: 0x8994, symBinAddr: 0x10000B14C, symSize: 0x48 }
  - { offset: 0x24145, size: 0x8, addend: 0x0, symName: __ZNSt3__117__compressed_pairImNS_19__map_value_compareINS_12basic_stringIcNS_11char_traitsIcEENS_9allocatorIcEEEENS_12__value_typeIS7_iEENS_4lessIS7_EELb1EEEE6secondB8ne180100Ev, symObjAddr: 0x89DC, symBinAddr: 0x10000B194, symSize: 0x24 }
  - { offset: 0x2416B, size: 0x8, addend: 0x0, symName: __ZNSt3__122__compressed_pair_elemINS_19__map_value_compareINS_12basic_stringIcNS_11char_traitsIcEENS_9allocatorIcEEEENS_12__value_typeIS7_iEENS_4lessIS7_EELb1EEELi1ELb1EE5__getB8ne180100Ev, symObjAddr: 0x8A00, symBinAddr: 0x10000B1B8, symSize: 0x14 }
  - { offset: 0x24191, size: 0x8, addend: 0x0, symName: __ZNKSt3__112__value_typeINS_12basic_stringIcNS_11char_traitsIcEENS_9allocatorIcEEEEiE11__get_valueB8ne180100Ev, symObjAddr: 0x8A14, symBinAddr: 0x10000B1CC, symSize: 0x24 }
  - { offset: 0x241B7, size: 0x8, addend: 0x0, symName: __ZNSt3__116allocator_traitsINS_9allocatorINS_11__tree_nodeINS_12__value_typeINS_12basic_stringIcNS_11char_traitsIcEENS1_IcEEEEiEEPvEEEEE8allocateB8ne180100ERSC_m, symObjAddr: 0x8A70, symBinAddr: 0x10000B228, symSize: 0x2C }
  - { offset: 0x241EA, size: 0x8, addend: 0x0, symName: __ZNSt3__122__tree_node_destructorINS_9allocatorINS_11__tree_nodeINS_12__value_typeINS_12basic_stringIcNS_11char_traitsIcEENS1_IcEEEEiEEPvEEEEEC1B8ne180100ERSC_b, symObjAddr: 0x8A9C, symBinAddr: 0x10000B254, symSize: 0x48 }
  - { offset: 0x24238, size: 0x8, addend: 0x0, symName: __ZNSt3__110unique_ptrINS_11__tree_nodeINS_12__value_typeINS_12basic_stringIcNS_11char_traitsIcEENS_9allocatorIcEEEEiEEPvEENS_22__tree_node_destructorINS6_ISB_EEEEEC1B8ne180100ILb1EvEEPSB_NS_16__dependent_typeINS_27__unique_ptr_deleter_sfinaeISE_EEXT_EE20__good_rval_ref_typeE, symObjAddr: 0x8AE4, symBinAddr: 0x10000B29C, symSize: 0x3C }
  - { offset: 0x24289, size: 0x8, addend: 0x0, symName: __ZNSt3__116allocator_traitsINS_9allocatorINS_11__tree_nodeINS_12__value_typeINS_12basic_stringIcNS_11char_traitsIcEENS1_IcEEEEiEEPvEEEEE9constructB8ne180100INS_4pairIKS8_iEEJRKNS_21piecewise_construct_tENS_5tupleIJRSG_EEENSL_IJEEEEvEEvRSC_PT_DpOT0_, symObjAddr: 0x8B20, symBinAddr: 0x10000B2D8, symSize: 0x44 }
  - { offset: 0x24308, size: 0x8, addend: 0x0, symName: __ZNKSt3__110unique_ptrINS_11__tree_nodeINS_12__value_typeINS_12basic_stringIcNS_11char_traitsIcEENS_9allocatorIcEEEEiEEPvEENS_22__tree_node_destructorINS6_ISB_EEEEEptB8ne180100Ev, symObjAddr: 0x8B64, symBinAddr: 0x10000B31C, symSize: 0x28 }
  - { offset: 0x2432E, size: 0x8, addend: 0x0, symName: __ZNSt3__110unique_ptrINS_11__tree_nodeINS_12__value_typeINS_12basic_stringIcNS_11char_traitsIcEENS_9allocatorIcEEEEiEEPvEENS_22__tree_node_destructorINS6_ISB_EEEEE11get_deleterB8ne180100Ev, symObjAddr: 0x8B8C, symBinAddr: 0x10000B344, symSize: 0x24 }
  - { offset: 0x24354, size: 0x8, addend: 0x0, symName: __ZNSt3__19allocatorINS_11__tree_nodeINS_12__value_typeINS_12basic_stringIcNS_11char_traitsIcEENS0_IcEEEEiEEPvEEE8allocateB8ne180100Em, symObjAddr: 0x8BB0, symBinAddr: 0x10000B368, symSize: 0x58 }
  - { offset: 0x24393, size: 0x8, addend: 0x0, symName: __ZNSt3__116allocator_traitsINS_9allocatorINS_11__tree_nodeINS_12__value_typeINS_12basic_stringIcNS_11char_traitsIcEENS1_IcEEEEiEEPvEEEEE8max_sizeB8ne180100ISC_vEEmRKSC_, symObjAddr: 0x8C08, symBinAddr: 0x10000B3C0, symSize: 0x24 }
  - { offset: 0x243C1, size: 0x8, addend: 0x0, symName: __ZNKSt3__19allocatorINS_11__tree_nodeINS_12__value_typeINS_12basic_stringIcNS_11char_traitsIcEENS0_IcEEEEiEEPvEEE8max_sizeB8ne180100Ev, symObjAddr: 0x8C2C, symBinAddr: 0x10000B3E4, symSize: 0x14 }
  - { offset: 0x243E7, size: 0x8, addend: 0x0, symName: __ZNSt3__122__tree_node_destructorINS_9allocatorINS_11__tree_nodeINS_12__value_typeINS_12basic_stringIcNS_11char_traitsIcEENS1_IcEEEEiEEPvEEEEEC2B8ne180100ERSC_b, symObjAddr: 0x8C40, symBinAddr: 0x10000B3F8, symSize: 0x38 }
  - { offset: 0x2442F, size: 0x8, addend: 0x0, symName: __ZNSt3__110unique_ptrINS_11__tree_nodeINS_12__value_typeINS_12basic_stringIcNS_11char_traitsIcEENS_9allocatorIcEEEEiEEPvEENS_22__tree_node_destructorINS6_ISB_EEEEEC2B8ne180100ILb1EvEEPSB_NS_16__dependent_typeINS_27__unique_ptr_deleter_sfinaeISE_EEXT_EE20__good_rval_ref_typeE, symObjAddr: 0x8C78, symBinAddr: 0x10000B430, symSize: 0x48 }
  - { offset: 0x24480, size: 0x8, addend: 0x0, symName: __ZNSt3__117__compressed_pairIPNS_11__tree_nodeINS_12__value_typeINS_12basic_stringIcNS_11char_traitsIcEENS_9allocatorIcEEEEiEEPvEENS_22__tree_node_destructorINS6_ISB_EEEEEC1B8ne180100IRSC_SF_EEOT_OT0_, symObjAddr: 0x8CC0, symBinAddr: 0x10000B478, symSize: 0x3C }
  - { offset: 0x244D8, size: 0x8, addend: 0x0, symName: __ZNSt3__117__compressed_pairIPNS_11__tree_nodeINS_12__value_typeINS_12basic_stringIcNS_11char_traitsIcEENS_9allocatorIcEEEEiEEPvEENS_22__tree_node_destructorINS6_ISB_EEEEEC2B8ne180100IRSC_SF_EEOT_OT0_, symObjAddr: 0x8CFC, symBinAddr: 0x10000B4B4, symSize: 0x48 }
  - { offset: 0x24530, size: 0x8, addend: 0x0, symName: __ZNSt3__122__compressed_pair_elemIPNS_11__tree_nodeINS_12__value_typeINS_12basic_stringIcNS_11char_traitsIcEENS_9allocatorIcEEEEiEEPvEELi0ELb0EEC2B8ne180100IRSC_vEEOT_, symObjAddr: 0x8D44, symBinAddr: 0x10000B4FC, symSize: 0x24 }
  - { offset: 0x24572, size: 0x8, addend: 0x0, symName: __ZNSt3__122__compressed_pair_elemINS_22__tree_node_destructorINS_9allocatorINS_11__tree_nodeINS_12__value_typeINS_12basic_stringIcNS_11char_traitsIcEENS2_IcEEEEiEEPvEEEEEELi1ELb0EEC2B8ne180100ISE_vEEOT_, symObjAddr: 0x8D68, symBinAddr: 0x10000B520, symSize: 0x24 }
  - { offset: 0x245B4, size: 0x8, addend: 0x0, symName: __ZNSt3__19allocatorINS_11__tree_nodeINS_12__value_typeINS_12basic_stringIcNS_11char_traitsIcEENS0_IcEEEEiEEPvEEE9constructB8ne180100INS_4pairIKS7_iEEJRKNS_21piecewise_construct_tENS_5tupleIJRSE_EEENSJ_IJEEEEEEvPT_DpOT0_, symObjAddr: 0x8D8C, symBinAddr: 0x10000B544, symSize: 0x44 }
  - { offset: 0x24630, size: 0x8, addend: 0x0, symName: __ZNSt3__14pairIKNS_12basic_stringIcNS_11char_traitsIcEENS_9allocatorIcEEEEiEC1B8ne180100IJRS7_EJEEENS_21piecewise_construct_tENS_5tupleIJDpT_EEENSC_IJDpT0_EEE, symObjAddr: 0x8DD0, symBinAddr: 0x10000B588, symSize: 0x3C }
  - { offset: 0x24697, size: 0x8, addend: 0x0, symName: __ZNSt3__14pairIKNS_12basic_stringIcNS_11char_traitsIcEENS_9allocatorIcEEEEiEC1B8ne180100IJRS7_EJEJLm0EEJEEENS_21piecewise_construct_tERNS_5tupleIJDpT_EEERNSC_IJDpT0_EEENS_15__tuple_indicesIJXspT1_EEEENSL_IJXspT2_EEEE, symObjAddr: 0x8E0C, symBinAddr: 0x10000B5C4, symSize: 0x3C }
  - { offset: 0x24727, size: 0x8, addend: 0x0, symName: __ZNSt3__14pairIKNS_12basic_stringIcNS_11char_traitsIcEENS_9allocatorIcEEEEiEC2B8ne180100IJRS7_EJEJLm0EEJEEENS_21piecewise_construct_tERNS_5tupleIJDpT_EEERNSC_IJDpT0_EEENS_15__tuple_indicesIJXspT1_EEEENSL_IJXspT2_EEEE, symObjAddr: 0x8E48, symBinAddr: 0x10000B600, symSize: 0x48 }
  - { offset: 0x247B7, size: 0x8, addend: 0x0, symName: __ZNSt3__112__tuple_leafILm0ERKNS_12basic_stringIcNS_11char_traitsIcEENS_9allocatorIcEEEELb0EE3getB8ne180100Ev, symObjAddr: 0x8EB4, symBinAddr: 0x10000B66C, symSize: 0x18 }
  - { offset: 0x247DD, size: 0x8, addend: 0x0, symName: __ZNKSt3__117__compressed_pairIPNS_11__tree_nodeINS_12__value_typeINS_12basic_stringIcNS_11char_traitsIcEENS_9allocatorIcEEEEiEEPvEENS_22__tree_node_destructorINS6_ISB_EEEEE5firstB8ne180100Ev, symObjAddr: 0x8ECC, symBinAddr: 0x10000B684, symSize: 0x24 }
  - { offset: 0x24803, size: 0x8, addend: 0x0, symName: __ZNKSt3__122__compressed_pair_elemIPNS_11__tree_nodeINS_12__value_typeINS_12basic_stringIcNS_11char_traitsIcEENS_9allocatorIcEEEEiEEPvEELi0ELb0EE5__getB8ne180100Ev, symObjAddr: 0x8EF0, symBinAddr: 0x10000B6A8, symSize: 0x14 }
  - { offset: 0x24829, size: 0x8, addend: 0x0, symName: __ZNSt3__117__compressed_pairIPNS_11__tree_nodeINS_12__value_typeINS_12basic_stringIcNS_11char_traitsIcEENS_9allocatorIcEEEEiEEPvEENS_22__tree_node_destructorINS6_ISB_EEEEE6secondB8ne180100Ev, symObjAddr: 0x8F04, symBinAddr: 0x10000B6BC, symSize: 0x28 }
  - { offset: 0x2484F, size: 0x8, addend: 0x0, symName: __ZNSt3__122__compressed_pair_elemINS_22__tree_node_destructorINS_9allocatorINS_11__tree_nodeINS_12__value_typeINS_12basic_stringIcNS_11char_traitsIcEENS2_IcEEEEiEEPvEEEEEELi1ELb0EE5__getB8ne180100Ev, symObjAddr: 0x8F2C, symBinAddr: 0x10000B6E4, symSize: 0x14 }
  - { offset: 0x24875, size: 0x8, addend: 0x0, symName: __ZNSt3__16__treeINS_12__value_typeINS_12basic_stringIcNS_11char_traitsIcEENS_9allocatorIcEEEEiEENS_19__map_value_compareIS7_S8_NS_4lessIS7_EELb1EEENS5_IS8_EEE4sizeB8ne180100Ev, symObjAddr: 0x8F40, symBinAddr: 0x10000B6F8, symSize: 0x28 }
  - { offset: 0x2489B, size: 0x8, addend: 0x0, symName: __ZNSt3__117__compressed_pairImNS_19__map_value_compareINS_12basic_stringIcNS_11char_traitsIcEENS_9allocatorIcEEEENS_12__value_typeIS7_iEENS_4lessIS7_EELb1EEEE5firstB8ne180100Ev, symObjAddr: 0x8F68, symBinAddr: 0x10000B720, symSize: 0x24 }
  - { offset: 0x248C1, size: 0x8, addend: 0x0, symName: __ZNSt3__117__compressed_pairIPNS_11__tree_nodeINS_12__value_typeINS_12basic_stringIcNS_11char_traitsIcEENS_9allocatorIcEEEEiEEPvEENS_22__tree_node_destructorINS6_ISB_EEEEE5firstB8ne180100Ev, symObjAddr: 0x8F8C, symBinAddr: 0x10000B744, symSize: 0x24 }
  - { offset: 0x248E7, size: 0x8, addend: 0x0, symName: __ZNSt3__122__compressed_pair_elemIPNS_11__tree_nodeINS_12__value_typeINS_12basic_stringIcNS_11char_traitsIcEENS_9allocatorIcEEEEiEEPvEELi0ELb0EE5__getB8ne180100Ev, symObjAddr: 0x8FB0, symBinAddr: 0x10000B768, symSize: 0x14 }
  - { offset: 0x2490D, size: 0x8, addend: 0x0, symName: __ZNSt3__110unique_ptrINS_11__tree_nodeINS_12__value_typeINS_12basic_stringIcNS_11char_traitsIcEENS_9allocatorIcEEEEiEEPvEENS_22__tree_node_destructorINS6_ISB_EEEEED2B8ne180100Ev, symObjAddr: 0x8FC4, symBinAddr: 0x10000B77C, symSize: 0x30 }
  - { offset: 0x24937, size: 0x8, addend: 0x0, symName: __ZNSt3__110unique_ptrINS_11__tree_nodeINS_12__value_typeINS_12basic_stringIcNS_11char_traitsIcEENS_9allocatorIcEEEEiEEPvEENS_22__tree_node_destructorINS6_ISB_EEEEE5resetB8ne180100EPSB_, symObjAddr: 0x8FF4, symBinAddr: 0x10000B7AC, symSize: 0x78 }
  - { offset: 0x2497B, size: 0x8, addend: 0x0, symName: __ZNSt3__122__tree_node_destructorINS_9allocatorINS_11__tree_nodeINS_12__value_typeINS_12basic_stringIcNS_11char_traitsIcEENS1_IcEEEEiEEPvEEEEEclB8ne180100EPSB_, symObjAddr: 0x906C, symBinAddr: 0x10000B824, symSize: 0x98 }
  - { offset: 0x249B0, size: 0x8, addend: 0x0, symName: __ZNSt3__115__tree_iteratorINS_12__value_typeINS_12basic_stringIcNS_11char_traitsIcEENS_9allocatorIcEEEEiEEPNS_11__tree_nodeIS8_PvEElEC2B8ne180100ESC_, symObjAddr: 0x9104, symBinAddr: 0x10000B8BC, symSize: 0x20 }
  - { offset: 0x249E9, size: 0x8, addend: 0x0, symName: __ZNSt3__14pairINS_15__tree_iteratorINS_12__value_typeINS_12basic_stringIcNS_11char_traitsIcEENS_9allocatorIcEEEEiEEPNS_11__tree_nodeIS9_PvEElEEbEC2B8ne180100ISE_RbLi0EEEOT_OT0_, symObjAddr: 0x9124, symBinAddr: 0x10000B8DC, symSize: 0x38 }
  - { offset: 0x24A47, size: 0x8, addend: 0x0, symName: __ZNSt3__15tupleIJRKNS_12basic_stringIcNS_11char_traitsIcEENS_9allocatorIcEEEEEEC1B8ne180100INS_4_AndELi0EEES8_, symObjAddr: 0x915C, symBinAddr: 0x10000B914, symSize: 0x34 }
  - { offset: 0x24A8F, size: 0x8, addend: 0x0, symName: __ZNSt3__15tupleIJRKNS_12basic_stringIcNS_11char_traitsIcEENS_9allocatorIcEEEEEEC2B8ne180100INS_4_AndELi0EEES8_, symObjAddr: 0x9190, symBinAddr: 0x10000B948, symSize: 0x34 }
  - { offset: 0x24AD7, size: 0x8, addend: 0x0, symName: __ZNSt3__112__tuple_implINS_15__tuple_indicesIJLm0EEEEJRKNS_12basic_stringIcNS_11char_traitsIcEENS_9allocatorIcEEEEEEC1B8ne180100IJLm0EEJSA_EJEJEJSA_EEENS1_IJXspT_EEEENS_13__tuple_typesIJDpT0_EEENS1_IJXspT1_EEEENSE_IJDpT2_EEEDpOT3_, symObjAddr: 0x91C4, symBinAddr: 0x10000B97C, symSize: 0x34 }
  - { offset: 0x24B6C, size: 0x8, addend: 0x0, symName: __ZNSt3__112__tuple_implINS_15__tuple_indicesIJLm0EEEEJRKNS_12basic_stringIcNS_11char_traitsIcEENS_9allocatorIcEEEEEEC2B8ne180100IJLm0EEJSA_EJEJEJSA_EEENS1_IJXspT_EEEENS_13__tuple_typesIJDpT0_EEENS1_IJXspT1_EEEENSE_IJDpT2_EEEDpOT3_, symObjAddr: 0x91F8, symBinAddr: 0x10000B9B0, symSize: 0x34 }
  - { offset: 0x24C01, size: 0x8, addend: 0x0, symName: __ZNSt3__112__tuple_leafILm0ERKNS_12basic_stringIcNS_11char_traitsIcEENS_9allocatorIcEEEELb0EEC2B8ne180100IS8_vEEOT_, symObjAddr: 0x922C, symBinAddr: 0x10000B9E4, symSize: 0x20 }
  - { offset: 0x24C44, size: 0x8, addend: 0x0, symName: __ZNSt3__114pointer_traitsIPNS_12__value_typeINS_12basic_stringIcNS_11char_traitsIcEENS_9allocatorIcEEEEiEEE10pointer_toB8ne180100ERS8_, symObjAddr: 0x924C, symBinAddr: 0x10000BA04, symSize: 0x14 }
  - { offset: 0x24C67, size: 0x8, addend: 0x0, symName: __ZNKSt3__115__tree_iteratorINS_12__value_typeINS_12basic_stringIcNS_11char_traitsIcEENS_9allocatorIcEEEEiEEPNS_11__tree_nodeIS8_PvEElE8__get_npB8ne180100Ev, symObjAddr: 0x9260, symBinAddr: 0x10000BA18, symSize: 0x18 }
  - { offset: 0x24C8D, size: 0x8, addend: 0x0, symName: __ZNSt3__16__treeINS_12__value_typeINS_4pairINS_12basic_stringIcNS_11char_traitsIcEENS_9allocatorIcEEEES8_EENS2_IidEEEENS_19__map_value_compareIS9_SB_NS_4lessIS9_EELb1EEENS6_ISB_EEE25__emplace_unique_key_argsIS9_JRKNS_21piecewise_construct_tENS_5tupleIJOS9_EEENSM_IJEEEEEENS2_INS_15__tree_iteratorISB_PNS_11__tree_nodeISB_PvEElEEbEERKT_DpOT0_, symObjAddr: 0x9278, symBinAddr: 0x10000BA30, symSize: 0x100 }
  - { offset: 0x24D63, size: 0x8, addend: 0x0, symName: __ZNSt3__16__treeINS_12__value_typeINS_4pairINS_12basic_stringIcNS_11char_traitsIcEENS_9allocatorIcEEEES8_EENS2_IidEEEENS_19__map_value_compareIS9_SB_NS_4lessIS9_EELb1EEENS6_ISB_EEE12__find_equalIS9_EERPNS_16__tree_node_baseIPvEERPNS_15__tree_end_nodeISM_EERKT_, symObjAddr: 0x93A4, symBinAddr: 0x10000BB5C, symSize: 0x184 }
  - { offset: 0x24DD0, size: 0x8, addend: 0x0, symName: __ZNSt3__16__treeINS_12__value_typeINS_4pairINS_12basic_stringIcNS_11char_traitsIcEENS_9allocatorIcEEEES8_EENS2_IidEEEENS_19__map_value_compareIS9_SB_NS_4lessIS9_EELb1EEENS6_ISB_EEE16__construct_nodeIJRKNS_21piecewise_construct_tENS_5tupleIJOS9_EEENSM_IJEEEEEENS_10unique_ptrINS_11__tree_nodeISB_PvEENS_22__tree_node_destructorINS6_IST_EEEEEEDpOT_, symObjAddr: 0x9528, symBinAddr: 0x10000BCE0, symSize: 0x120 }
  - { offset: 0x24E59, size: 0x8, addend: 0x0, symName: __ZNSt3__16__treeINS_12__value_typeINS_4pairINS_12basic_stringIcNS_11char_traitsIcEENS_9allocatorIcEEEES8_EENS2_IidEEEENS_19__map_value_compareIS9_SB_NS_4lessIS9_EELb1EEENS6_ISB_EEE16__insert_node_atEPNS_15__tree_end_nodeIPNS_16__tree_node_baseIPvEEEERSM_SM_, symObjAddr: 0x9648, symBinAddr: 0x10000BE00, symSize: 0xCC }
  - { offset: 0x24EAE, size: 0x8, addend: 0x0, symName: __ZNKSt3__110unique_ptrINS_11__tree_nodeINS_12__value_typeINS_4pairINS_12basic_stringIcNS_11char_traitsIcEENS_9allocatorIcEEEES9_EENS3_IidEEEEPvEENS_22__tree_node_destructorINS7_ISE_EEEEE3getB8ne180100Ev, symObjAddr: 0x9714, symBinAddr: 0x10000BECC, symSize: 0x28 }
  - { offset: 0x24ED4, size: 0x8, addend: 0x0, symName: __ZNSt3__110unique_ptrINS_11__tree_nodeINS_12__value_typeINS_4pairINS_12basic_stringIcNS_11char_traitsIcEENS_9allocatorIcEEEES9_EENS3_IidEEEEPvEENS_22__tree_node_destructorINS7_ISE_EEEEE7releaseB8ne180100Ev, symObjAddr: 0x973C, symBinAddr: 0x10000BEF4, symSize: 0x44 }
  - { offset: 0x24F09, size: 0x8, addend: 0x0, symName: __ZNSt3__110unique_ptrINS_11__tree_nodeINS_12__value_typeINS_4pairINS_12basic_stringIcNS_11char_traitsIcEENS_9allocatorIcEEEES9_EENS3_IidEEEEPvEENS_22__tree_node_destructorINS7_ISE_EEEEED1B8ne180100Ev, symObjAddr: 0x9780, symBinAddr: 0x10000BF38, symSize: 0x2C }
  - { offset: 0x24F33, size: 0x8, addend: 0x0, symName: __ZNSt3__115__tree_iteratorINS_12__value_typeINS_4pairINS_12basic_stringIcNS_11char_traitsIcEENS_9allocatorIcEEEES8_EENS2_IidEEEEPNS_11__tree_nodeISB_PvEElEC1B8ne180100ESF_, symObjAddr: 0x97AC, symBinAddr: 0x10000BF64, symSize: 0x34 }
  - { offset: 0x24F72, size: 0x8, addend: 0x0, symName: __ZNSt3__14pairINS_15__tree_iteratorINS_12__value_typeINS0_INS_12basic_stringIcNS_11char_traitsIcEENS_9allocatorIcEEEES8_EENS0_IidEEEEPNS_11__tree_nodeISB_PvEElEEbEC1B8ne180100ISG_RbLi0EEEOT_OT0_, symObjAddr: 0x97E0, symBinAddr: 0x10000BF98, symSize: 0x3C }
  - { offset: 0x24FD0, size: 0x8, addend: 0x0, symName: __ZNKSt3__16__treeINS_12__value_typeINS_4pairINS_12basic_stringIcNS_11char_traitsIcEENS_9allocatorIcEEEES8_EENS2_IidEEEENS_19__map_value_compareIS9_SB_NS_4lessIS9_EELb1EEENS6_ISB_EEE10__root_ptrB8ne180100Ev, symObjAddr: 0x981C, symBinAddr: 0x10000BFD4, symSize: 0x24 }
  - { offset: 0x24FF6, size: 0x8, addend: 0x0, symName: __ZNSt3__16__treeINS_12__value_typeINS_4pairINS_12basic_stringIcNS_11char_traitsIcEENS_9allocatorIcEEEES8_EENS2_IidEEEENS_19__map_value_compareIS9_SB_NS_4lessIS9_EELb1EEENS6_ISB_EEE10value_compB8ne180100Ev, symObjAddr: 0x9840, symBinAddr: 0x10000BFF8, symSize: 0x28 }
  - { offset: 0x2501C, size: 0x8, addend: 0x0, symName: __ZNKSt3__119__map_value_compareINS_4pairINS_12basic_stringIcNS_11char_traitsIcEENS_9allocatorIcEEEES7_EENS_12__value_typeIS8_NS1_IidEEEENS_4lessIS8_EELb1EEclB8ne180100ERKS8_RKSB_, symObjAddr: 0x9868, symBinAddr: 0x10000C020, symSize: 0x50 }
  - { offset: 0x25060, size: 0x8, addend: 0x0, symName: __ZNKSt3__119__map_value_compareINS_4pairINS_12basic_stringIcNS_11char_traitsIcEENS_9allocatorIcEEEES7_EENS_12__value_typeIS8_NS1_IidEEEENS_4lessIS8_EELb1EEclB8ne180100ERKSB_RKS8_, symObjAddr: 0x98B8, symBinAddr: 0x10000C070, symSize: 0x48 }
  - { offset: 0x250A4, size: 0x8, addend: 0x0, symName: __ZNSt3__117__compressed_pairImNS_19__map_value_compareINS_4pairINS_12basic_stringIcNS_11char_traitsIcEENS_9allocatorIcEEEES8_EENS_12__value_typeIS9_NS2_IidEEEENS_4lessIS9_EELb1EEEE6secondB8ne180100Ev, symObjAddr: 0x9900, symBinAddr: 0x10000C0B8, symSize: 0x24 }
  - { offset: 0x250CA, size: 0x8, addend: 0x0, symName: __ZNSt3__122__compressed_pair_elemINS_19__map_value_compareINS_4pairINS_12basic_stringIcNS_11char_traitsIcEENS_9allocatorIcEEEES8_EENS_12__value_typeIS9_NS2_IidEEEENS_4lessIS9_EELb1EEELi1ELb1EE5__getB8ne180100Ev, symObjAddr: 0x9924, symBinAddr: 0x10000C0DC, symSize: 0x14 }
  - { offset: 0x250F0, size: 0x8, addend: 0x0, symName: __ZNKSt3__14lessINS_4pairINS_12basic_stringIcNS_11char_traitsIcEENS_9allocatorIcEEEES7_EEEclB8ne180100ERKS8_SB_, symObjAddr: 0x9938, symBinAddr: 0x10000C0F0, symSize: 0x34 }
  - { offset: 0x25134, size: 0x8, addend: 0x0, symName: __ZNKSt3__112__value_typeINS_4pairINS_12basic_stringIcNS_11char_traitsIcEENS_9allocatorIcEEEES7_EENS1_IidEEE11__get_valueB8ne180100Ev, symObjAddr: 0x996C, symBinAddr: 0x10000C124, symSize: 0x24 }
  - { offset: 0x2515A, size: 0x8, addend: 0x0, symName: __ZNSt3__116allocator_traitsINS_9allocatorINS_11__tree_nodeINS_12__value_typeINS_4pairINS_12basic_stringIcNS_11char_traitsIcEENS1_IcEEEES9_EENS4_IidEEEEPvEEEEE8allocateB8ne180100ERSF_m, symObjAddr: 0x9A50, symBinAddr: 0x10000C208, symSize: 0x2C }
  - { offset: 0x2518D, size: 0x8, addend: 0x0, symName: __ZNSt3__122__tree_node_destructorINS_9allocatorINS_11__tree_nodeINS_12__value_typeINS_4pairINS_12basic_stringIcNS_11char_traitsIcEENS1_IcEEEES9_EENS4_IidEEEEPvEEEEEC1B8ne180100ERSF_b, symObjAddr: 0x9A7C, symBinAddr: 0x10000C234, symSize: 0x48 }
  - { offset: 0x251DB, size: 0x8, addend: 0x0, symName: __ZNSt3__110unique_ptrINS_11__tree_nodeINS_12__value_typeINS_4pairINS_12basic_stringIcNS_11char_traitsIcEENS_9allocatorIcEEEES9_EENS3_IidEEEEPvEENS_22__tree_node_destructorINS7_ISE_EEEEEC1B8ne180100ILb1EvEEPSE_NS_16__dependent_typeINS_27__unique_ptr_deleter_sfinaeISH_EEXT_EE20__good_rval_ref_typeE, symObjAddr: 0x9AC4, symBinAddr: 0x10000C27C, symSize: 0x3C }
  - { offset: 0x2522C, size: 0x8, addend: 0x0, symName: __ZNSt3__116allocator_traitsINS_9allocatorINS_11__tree_nodeINS_12__value_typeINS_4pairINS_12basic_stringIcNS_11char_traitsIcEENS1_IcEEEES9_EENS4_IidEEEEPvEEEEE9constructB8ne180100INS4_IKSA_SB_EEJRKNS_21piecewise_construct_tENS_5tupleIJOSA_EEENSN_IJEEEEvEEvRSF_PT_DpOT0_, symObjAddr: 0x9B00, symBinAddr: 0x10000C2B8, symSize: 0x44 }
  - { offset: 0x252AB, size: 0x8, addend: 0x0, symName: __ZNKSt3__110unique_ptrINS_11__tree_nodeINS_12__value_typeINS_4pairINS_12basic_stringIcNS_11char_traitsIcEENS_9allocatorIcEEEES9_EENS3_IidEEEEPvEENS_22__tree_node_destructorINS7_ISE_EEEEEptB8ne180100Ev, symObjAddr: 0x9B44, symBinAddr: 0x10000C2FC, symSize: 0x28 }
  - { offset: 0x252D1, size: 0x8, addend: 0x0, symName: __ZNSt3__110unique_ptrINS_11__tree_nodeINS_12__value_typeINS_4pairINS_12basic_stringIcNS_11char_traitsIcEENS_9allocatorIcEEEES9_EENS3_IidEEEEPvEENS_22__tree_node_destructorINS7_ISE_EEEEE11get_deleterB8ne180100Ev, symObjAddr: 0x9B6C, symBinAddr: 0x10000C324, symSize: 0x24 }
  - { offset: 0x252F7, size: 0x8, addend: 0x0, symName: __ZNSt3__19allocatorINS_11__tree_nodeINS_12__value_typeINS_4pairINS_12basic_stringIcNS_11char_traitsIcEENS0_IcEEEES8_EENS3_IidEEEEPvEEE8allocateB8ne180100Em, symObjAddr: 0x9B90, symBinAddr: 0x10000C348, symSize: 0x5C }
  - { offset: 0x25336, size: 0x8, addend: 0x0, symName: __ZNSt3__116allocator_traitsINS_9allocatorINS_11__tree_nodeINS_12__value_typeINS_4pairINS_12basic_stringIcNS_11char_traitsIcEENS1_IcEEEES9_EENS4_IidEEEEPvEEEEE8max_sizeB8ne180100ISF_vEEmRKSF_, symObjAddr: 0x9BEC, symBinAddr: 0x10000C3A4, symSize: 0x24 }
  - { offset: 0x25364, size: 0x8, addend: 0x0, symName: __ZNKSt3__19allocatorINS_11__tree_nodeINS_12__value_typeINS_4pairINS_12basic_stringIcNS_11char_traitsIcEENS0_IcEEEES8_EENS3_IidEEEEPvEEE8max_sizeB8ne180100Ev, symObjAddr: 0x9C10, symBinAddr: 0x10000C3C8, symSize: 0x18 }
  - { offset: 0x2538A, size: 0x8, addend: 0x0, symName: __ZNSt3__122__tree_node_destructorINS_9allocatorINS_11__tree_nodeINS_12__value_typeINS_4pairINS_12basic_stringIcNS_11char_traitsIcEENS1_IcEEEES9_EENS4_IidEEEEPvEEEEEC2B8ne180100ERSF_b, symObjAddr: 0x9C28, symBinAddr: 0x10000C3E0, symSize: 0x38 }
  - { offset: 0x253D2, size: 0x8, addend: 0x0, symName: __ZNSt3__110unique_ptrINS_11__tree_nodeINS_12__value_typeINS_4pairINS_12basic_stringIcNS_11char_traitsIcEENS_9allocatorIcEEEES9_EENS3_IidEEEEPvEENS_22__tree_node_destructorINS7_ISE_EEEEEC2B8ne180100ILb1EvEEPSE_NS_16__dependent_typeINS_27__unique_ptr_deleter_sfinaeISH_EEXT_EE20__good_rval_ref_typeE, symObjAddr: 0x9C60, symBinAddr: 0x10000C418, symSize: 0x48 }
  - { offset: 0x25423, size: 0x8, addend: 0x0, symName: __ZNSt3__117__compressed_pairIPNS_11__tree_nodeINS_12__value_typeINS_4pairINS_12basic_stringIcNS_11char_traitsIcEENS_9allocatorIcEEEES9_EENS3_IidEEEEPvEENS_22__tree_node_destructorINS7_ISE_EEEEEC1B8ne180100IRSF_SI_EEOT_OT0_, symObjAddr: 0x9CA8, symBinAddr: 0x10000C460, symSize: 0x3C }
  - { offset: 0x2547B, size: 0x8, addend: 0x0, symName: __ZNSt3__117__compressed_pairIPNS_11__tree_nodeINS_12__value_typeINS_4pairINS_12basic_stringIcNS_11char_traitsIcEENS_9allocatorIcEEEES9_EENS3_IidEEEEPvEENS_22__tree_node_destructorINS7_ISE_EEEEEC2B8ne180100IRSF_SI_EEOT_OT0_, symObjAddr: 0x9CE4, symBinAddr: 0x10000C49C, symSize: 0x48 }
  - { offset: 0x254D3, size: 0x8, addend: 0x0, symName: __ZNSt3__122__compressed_pair_elemIPNS_11__tree_nodeINS_12__value_typeINS_4pairINS_12basic_stringIcNS_11char_traitsIcEENS_9allocatorIcEEEES9_EENS3_IidEEEEPvEELi0ELb0EEC2B8ne180100IRSF_vEEOT_, symObjAddr: 0x9D2C, symBinAddr: 0x10000C4E4, symSize: 0x24 }
  - { offset: 0x25515, size: 0x8, addend: 0x0, symName: __ZNSt3__122__compressed_pair_elemINS_22__tree_node_destructorINS_9allocatorINS_11__tree_nodeINS_12__value_typeINS_4pairINS_12basic_stringIcNS_11char_traitsIcEENS2_IcEEEESA_EENS5_IidEEEEPvEEEEEELi1ELb0EEC2B8ne180100ISH_vEEOT_, symObjAddr: 0x9D50, symBinAddr: 0x10000C508, symSize: 0x24 }
  - { offset: 0x25557, size: 0x8, addend: 0x0, symName: __ZNSt3__19allocatorINS_11__tree_nodeINS_12__value_typeINS_4pairINS_12basic_stringIcNS_11char_traitsIcEENS0_IcEEEES8_EENS3_IidEEEEPvEEE9constructB8ne180100INS3_IKS9_SA_EEJRKNS_21piecewise_construct_tENS_5tupleIJOS9_EEENSL_IJEEEEEEvPT_DpOT0_, symObjAddr: 0x9D74, symBinAddr: 0x10000C52C, symSize: 0x44 }
  - { offset: 0x255D3, size: 0x8, addend: 0x0, symName: __ZNSt3__14pairIKNS0_INS_12basic_stringIcNS_11char_traitsIcEENS_9allocatorIcEEEES6_EENS0_IidEEEC1B8ne180100IJOS7_EJEEENS_21piecewise_construct_tENS_5tupleIJDpT_EEENSE_IJDpT0_EEE, symObjAddr: 0x9DB8, symBinAddr: 0x10000C570, symSize: 0x44 }
  - { offset: 0x2563A, size: 0x8, addend: 0x0, symName: __ZNSt3__14pairIKNS0_INS_12basic_stringIcNS_11char_traitsIcEENS_9allocatorIcEEEES6_EENS0_IidEEEC1B8ne180100IJOS7_EJEJLm0EEJEEENS_21piecewise_construct_tERNS_5tupleIJDpT_EEERNSE_IJDpT0_EEENS_15__tuple_indicesIJXspT1_EEEENSN_IJXspT2_EEEE, symObjAddr: 0x9DFC, symBinAddr: 0x10000C5B4, symSize: 0x3C }
  - { offset: 0x256CA, size: 0x8, addend: 0x0, symName: __ZNSt3__14pairIKNS0_INS_12basic_stringIcNS_11char_traitsIcEENS_9allocatorIcEEEES6_EENS0_IidEEEC2B8ne180100IJOS7_EJEJLm0EEJEEENS_21piecewise_construct_tERNS_5tupleIJDpT_EEERNSE_IJDpT0_EEENS_15__tuple_indicesIJXspT1_EEEENSN_IJXspT2_EEEE, symObjAddr: 0x9E38, symBinAddr: 0x10000C5F0, symSize: 0x50 }
  - { offset: 0x2575A, size: 0x8, addend: 0x0, symName: __ZNSt3__14pairINS_12basic_stringIcNS_11char_traitsIcEENS_9allocatorIcEEEES6_EC1B8ne180100EOS7_, symObjAddr: 0x9EAC, symBinAddr: 0x10000C664, symSize: 0x34 }
  - { offset: 0x2578F, size: 0x8, addend: 0x0, symName: __ZNSt3__14pairIidEC1B8ne180100ILb1ELi0EEEv, symObjAddr: 0x9EE0, symBinAddr: 0x10000C698, symSize: 0x2C }
  - { offset: 0x257C9, size: 0x8, addend: 0x0, symName: __ZNSt3__112__tuple_leafILm0EONS_4pairINS_12basic_stringIcNS_11char_traitsIcEENS_9allocatorIcEEEES7_EELb0EE3getB8ne180100Ev, symObjAddr: 0x9F0C, symBinAddr: 0x10000C6C4, symSize: 0x18 }
  - { offset: 0x257EF, size: 0x8, addend: 0x0, symName: __ZNSt3__14pairINS_12basic_stringIcNS_11char_traitsIcEENS_9allocatorIcEEEES6_EC2B8ne180100EOS7_, symObjAddr: 0x9F24, symBinAddr: 0x10000C6DC, symSize: 0x48 }
  - { offset: 0x25824, size: 0x8, addend: 0x0, symName: __ZNSt3__112basic_stringIcNS_11char_traitsIcEENS_9allocatorIcEEEC1B8ne180100EOS5_, symObjAddr: 0x9F6C, symBinAddr: 0x10000C724, symSize: 0x34 }
  - { offset: 0x2585D, size: 0x8, addend: 0x0, symName: __ZNSt3__112basic_stringIcNS_11char_traitsIcEENS_9allocatorIcEEEC2B8ne180100EOS5_, symObjAddr: 0x9FA0, symBinAddr: 0x10000C758, symSize: 0xB8 }
  - { offset: 0x258C7, size: 0x8, addend: 0x0, symName: __ZZNSt3__112basic_stringIcNS_11char_traitsIcEENS_9allocatorIcEEEC1B8ne180100EOS5_ENKUlRS5_E_clES7_, symObjAddr: 0xA058, symBinAddr: 0x10000C810, symSize: 0x40 }
  - { offset: 0x25900, size: 0x8, addend: 0x0, symName: __ZNKSt3__112basic_stringIcNS_11char_traitsIcEENS_9allocatorIcEEE17__annotate_deleteB8ne180100Ev, symObjAddr: 0xA098, symBinAddr: 0x10000C850, symSize: 0x10 }
  - { offset: 0x25926, size: 0x8, addend: 0x0, symName: __ZNSt3__14pairIidEC2B8ne180100ILb1ELi0EEEv, symObjAddr: 0xA0A8, symBinAddr: 0x10000C860, symSize: 0x20 }
  - { offset: 0x25960, size: 0x8, addend: 0x0, symName: __ZNKSt3__117__compressed_pairIPNS_11__tree_nodeINS_12__value_typeINS_4pairINS_12basic_stringIcNS_11char_traitsIcEENS_9allocatorIcEEEES9_EENS3_IidEEEEPvEENS_22__tree_node_destructorINS7_ISE_EEEEE5firstB8ne180100Ev, symObjAddr: 0xA0C8, symBinAddr: 0x10000C880, symSize: 0x24 }
  - { offset: 0x25986, size: 0x8, addend: 0x0, symName: __ZNKSt3__122__compressed_pair_elemIPNS_11__tree_nodeINS_12__value_typeINS_4pairINS_12basic_stringIcNS_11char_traitsIcEENS_9allocatorIcEEEES9_EENS3_IidEEEEPvEELi0ELb0EE5__getB8ne180100Ev, symObjAddr: 0xA0EC, symBinAddr: 0x10000C8A4, symSize: 0x14 }
  - { offset: 0x259AC, size: 0x8, addend: 0x0, symName: __ZNSt3__117__compressed_pairIPNS_11__tree_nodeINS_12__value_typeINS_4pairINS_12basic_stringIcNS_11char_traitsIcEENS_9allocatorIcEEEES9_EENS3_IidEEEEPvEENS_22__tree_node_destructorINS7_ISE_EEEEE6secondB8ne180100Ev, symObjAddr: 0xA100, symBinAddr: 0x10000C8B8, symSize: 0x28 }
  - { offset: 0x259D2, size: 0x8, addend: 0x0, symName: __ZNSt3__122__compressed_pair_elemINS_22__tree_node_destructorINS_9allocatorINS_11__tree_nodeINS_12__value_typeINS_4pairINS_12basic_stringIcNS_11char_traitsIcEENS2_IcEEEESA_EENS5_IidEEEEPvEEEEEELi1ELb0EE5__getB8ne180100Ev, symObjAddr: 0xA128, symBinAddr: 0x10000C8E0, symSize: 0x14 }
  - { offset: 0x259F8, size: 0x8, addend: 0x0, symName: __ZNSt3__16__treeINS_12__value_typeINS_4pairINS_12basic_stringIcNS_11char_traitsIcEENS_9allocatorIcEEEES8_EENS2_IidEEEENS_19__map_value_compareIS9_SB_NS_4lessIS9_EELb1EEENS6_ISB_EEE4sizeB8ne180100Ev, symObjAddr: 0xA13C, symBinAddr: 0x10000C8F4, symSize: 0x28 }
  - { offset: 0x25A1E, size: 0x8, addend: 0x0, symName: __ZNSt3__117__compressed_pairImNS_19__map_value_compareINS_4pairINS_12basic_stringIcNS_11char_traitsIcEENS_9allocatorIcEEEES8_EENS_12__value_typeIS9_NS2_IidEEEENS_4lessIS9_EELb1EEEE5firstB8ne180100Ev, symObjAddr: 0xA164, symBinAddr: 0x10000C91C, symSize: 0x24 }
  - { offset: 0x25A44, size: 0x8, addend: 0x0, symName: __ZNSt3__117__compressed_pairIPNS_11__tree_nodeINS_12__value_typeINS_4pairINS_12basic_stringIcNS_11char_traitsIcEENS_9allocatorIcEEEES9_EENS3_IidEEEEPvEENS_22__tree_node_destructorINS7_ISE_EEEEE5firstB8ne180100Ev, symObjAddr: 0xA188, symBinAddr: 0x10000C940, symSize: 0x24 }
  - { offset: 0x25A6A, size: 0x8, addend: 0x0, symName: __ZNSt3__122__compressed_pair_elemIPNS_11__tree_nodeINS_12__value_typeINS_4pairINS_12basic_stringIcNS_11char_traitsIcEENS_9allocatorIcEEEES9_EENS3_IidEEEEPvEELi0ELb0EE5__getB8ne180100Ev, symObjAddr: 0xA1AC, symBinAddr: 0x10000C964, symSize: 0x14 }
  - { offset: 0x25A90, size: 0x8, addend: 0x0, symName: __ZNSt3__110unique_ptrINS_11__tree_nodeINS_12__value_typeINS_4pairINS_12basic_stringIcNS_11char_traitsIcEENS_9allocatorIcEEEES9_EENS3_IidEEEEPvEENS_22__tree_node_destructorINS7_ISE_EEEEED2B8ne180100Ev, symObjAddr: 0xA1C0, symBinAddr: 0x10000C978, symSize: 0x30 }
  - { offset: 0x25ABA, size: 0x8, addend: 0x0, symName: __ZNSt3__110unique_ptrINS_11__tree_nodeINS_12__value_typeINS_4pairINS_12basic_stringIcNS_11char_traitsIcEENS_9allocatorIcEEEES9_EENS3_IidEEEEPvEENS_22__tree_node_destructorINS7_ISE_EEEEE5resetB8ne180100EPSE_, symObjAddr: 0xA1F0, symBinAddr: 0x10000C9A8, symSize: 0x78 }
  - { offset: 0x25AFE, size: 0x8, addend: 0x0, symName: __ZNSt3__122__tree_node_destructorINS_9allocatorINS_11__tree_nodeINS_12__value_typeINS_4pairINS_12basic_stringIcNS_11char_traitsIcEENS1_IcEEEES9_EENS4_IidEEEEPvEEEEEclB8ne180100EPSE_, symObjAddr: 0xA268, symBinAddr: 0x10000CA20, symSize: 0x98 }
  - { offset: 0x25B33, size: 0x8, addend: 0x0, symName: __ZNSt3__115__tree_iteratorINS_12__value_typeINS_4pairINS_12basic_stringIcNS_11char_traitsIcEENS_9allocatorIcEEEES8_EENS2_IidEEEEPNS_11__tree_nodeISB_PvEElEC2B8ne180100ESF_, symObjAddr: 0xA300, symBinAddr: 0x10000CAB8, symSize: 0x20 }
  - { offset: 0x25B6C, size: 0x8, addend: 0x0, symName: __ZNSt3__14pairINS_15__tree_iteratorINS_12__value_typeINS0_INS_12basic_stringIcNS_11char_traitsIcEENS_9allocatorIcEEEES8_EENS0_IidEEEEPNS_11__tree_nodeISB_PvEElEEbEC2B8ne180100ISG_RbLi0EEEOT_OT0_, symObjAddr: 0xA320, symBinAddr: 0x10000CAD8, symSize: 0x38 }
  - { offset: 0x25BCA, size: 0x8, addend: 0x0, symName: __ZNSt3__15tupleIJONS_4pairINS_12basic_stringIcNS_11char_traitsIcEENS_9allocatorIcEEEES7_EEEEC1B8ne180100IJS8_ELi0EEEDpOT_, symObjAddr: 0xA358, symBinAddr: 0x10000CB10, symSize: 0x34 }
  - { offset: 0x25C14, size: 0x8, addend: 0x0, symName: __ZNSt3__15tupleIJONS_4pairINS_12basic_stringIcNS_11char_traitsIcEENS_9allocatorIcEEEES7_EEEEC2B8ne180100IJS8_ELi0EEEDpOT_, symObjAddr: 0xA38C, symBinAddr: 0x10000CB44, symSize: 0x34 }
  - { offset: 0x25C5E, size: 0x8, addend: 0x0, symName: __ZNSt3__112__tuple_implINS_15__tuple_indicesIJLm0EEEEJONS_4pairINS_12basic_stringIcNS_11char_traitsIcEENS_9allocatorIcEEEES9_EEEEC1B8ne180100IJLm0EEJSB_EJEJEJSA_EEENS1_IJXspT_EEEENS_13__tuple_typesIJDpT0_EEENS1_IJXspT1_EEEENSF_IJDpT2_EEEDpOT3_, symObjAddr: 0xA3C0, symBinAddr: 0x10000CB78, symSize: 0x34 }
  - { offset: 0x25CF3, size: 0x8, addend: 0x0, symName: __ZNSt3__112__tuple_implINS_15__tuple_indicesIJLm0EEEEJONS_4pairINS_12basic_stringIcNS_11char_traitsIcEENS_9allocatorIcEEEES9_EEEEC2B8ne180100IJLm0EEJSB_EJEJEJSA_EEENS1_IJXspT_EEEENS_13__tuple_typesIJDpT0_EEENS1_IJXspT1_EEEENSF_IJDpT2_EEEDpOT3_, symObjAddr: 0xA3F4, symBinAddr: 0x10000CBAC, symSize: 0x34 }
  - { offset: 0x25D88, size: 0x8, addend: 0x0, symName: __ZNSt3__112__tuple_leafILm0EONS_4pairINS_12basic_stringIcNS_11char_traitsIcEENS_9allocatorIcEEEES7_EELb0EEC2B8ne180100IS8_vEEOT_, symObjAddr: 0xA428, symBinAddr: 0x10000CBE0, symSize: 0x20 }
  - { offset: 0x25DCB, size: 0x8, addend: 0x0, symName: __ZNSt3__16__treeINS_12__value_typeIiNS_4pairINS_12basic_stringIcNS_11char_traitsIcEENS_9allocatorIcEEEES8_EEEENS_19__map_value_compareIiSA_NS_4lessIiEELb1EEENS6_ISA_EEE25__emplace_unique_key_argsIiJRKNS_21piecewise_construct_tENS_5tupleIJRKiEEENSL_IJEEEEEENS2_INS_15__tree_iteratorISA_PNS_11__tree_nodeISA_PvEElEEbEERKT_DpOT0_, symObjAddr: 0xA448, symBinAddr: 0x10000CC00, symSize: 0x100 }
  - { offset: 0x25EA1, size: 0x8, addend: 0x0, symName: __ZNKSt3__115__tree_iteratorINS_12__value_typeIiNS_4pairINS_12basic_stringIcNS_11char_traitsIcEENS_9allocatorIcEEEES8_EEEEPNS_11__tree_nodeISA_PvEElEptB8ne180100Ev, symObjAddr: 0xA574, symBinAddr: 0x10000CD2C, symSize: 0x2C }
  - { offset: 0x25EC7, size: 0x8, addend: 0x0, symName: __ZNSt3__16__treeINS_12__value_typeIiNS_4pairINS_12basic_stringIcNS_11char_traitsIcEENS_9allocatorIcEEEES8_EEEENS_19__map_value_compareIiSA_NS_4lessIiEELb1EEENS6_ISA_EEE12__find_equalIiEERPNS_16__tree_node_baseIPvEERPNS_15__tree_end_nodeISL_EERKT_, symObjAddr: 0xA5A0, symBinAddr: 0x10000CD58, symSize: 0x184 }
  - { offset: 0x25F34, size: 0x8, addend: 0x0, symName: __ZNSt3__16__treeINS_12__value_typeIiNS_4pairINS_12basic_stringIcNS_11char_traitsIcEENS_9allocatorIcEEEES8_EEEENS_19__map_value_compareIiSA_NS_4lessIiEELb1EEENS6_ISA_EEE16__construct_nodeIJRKNS_21piecewise_construct_tENS_5tupleIJRKiEEENSL_IJEEEEEENS_10unique_ptrINS_11__tree_nodeISA_PvEENS_22__tree_node_destructorINS6_IST_EEEEEEDpOT_, symObjAddr: 0xA724, symBinAddr: 0x10000CEDC, symSize: 0x120 }
  - { offset: 0x25FBD, size: 0x8, addend: 0x0, symName: __ZNSt3__16__treeINS_12__value_typeIiNS_4pairINS_12basic_stringIcNS_11char_traitsIcEENS_9allocatorIcEEEES8_EEEENS_19__map_value_compareIiSA_NS_4lessIiEELb1EEENS6_ISA_EEE16__insert_node_atEPNS_15__tree_end_nodeIPNS_16__tree_node_baseIPvEEEERSL_SL_, symObjAddr: 0xA844, symBinAddr: 0x10000CFFC, symSize: 0xCC }
  - { offset: 0x26012, size: 0x8, addend: 0x0, symName: __ZNKSt3__110unique_ptrINS_11__tree_nodeINS_12__value_typeIiNS_4pairINS_12basic_stringIcNS_11char_traitsIcEENS_9allocatorIcEEEES9_EEEEPvEENS_22__tree_node_destructorINS7_ISD_EEEEE3getB8ne180100Ev, symObjAddr: 0xA910, symBinAddr: 0x10000D0C8, symSize: 0x28 }
  - { offset: 0x26038, size: 0x8, addend: 0x0, symName: __ZNSt3__110unique_ptrINS_11__tree_nodeINS_12__value_typeIiNS_4pairINS_12basic_stringIcNS_11char_traitsIcEENS_9allocatorIcEEEES9_EEEEPvEENS_22__tree_node_destructorINS7_ISD_EEEEE7releaseB8ne180100Ev, symObjAddr: 0xA938, symBinAddr: 0x10000D0F0, symSize: 0x44 }
  - { offset: 0x2606D, size: 0x8, addend: 0x0, symName: __ZNSt3__110unique_ptrINS_11__tree_nodeINS_12__value_typeIiNS_4pairINS_12basic_stringIcNS_11char_traitsIcEENS_9allocatorIcEEEES9_EEEEPvEENS_22__tree_node_destructorINS7_ISD_EEEEED1B8ne180100Ev, symObjAddr: 0xA97C, symBinAddr: 0x10000D134, symSize: 0x2C }
  - { offset: 0x26097, size: 0x8, addend: 0x0, symName: __ZNSt3__115__tree_iteratorINS_12__value_typeIiNS_4pairINS_12basic_stringIcNS_11char_traitsIcEENS_9allocatorIcEEEES8_EEEEPNS_11__tree_nodeISA_PvEElEC1B8ne180100ESE_, symObjAddr: 0xA9A8, symBinAddr: 0x10000D160, symSize: 0x34 }
  - { offset: 0x260D6, size: 0x8, addend: 0x0, symName: __ZNSt3__14pairINS_15__tree_iteratorINS_12__value_typeIiNS0_INS_12basic_stringIcNS_11char_traitsIcEENS_9allocatorIcEEEES8_EEEEPNS_11__tree_nodeISA_PvEElEEbEC1B8ne180100ISF_RbLi0EEEOT_OT0_, symObjAddr: 0xA9DC, symBinAddr: 0x10000D194, symSize: 0x3C }
  - { offset: 0x26134, size: 0x8, addend: 0x0, symName: __ZNKSt3__16__treeINS_12__value_typeIiNS_4pairINS_12basic_stringIcNS_11char_traitsIcEENS_9allocatorIcEEEES8_EEEENS_19__map_value_compareIiSA_NS_4lessIiEELb1EEENS6_ISA_EEE10__root_ptrB8ne180100Ev, symObjAddr: 0xAA18, symBinAddr: 0x10000D1D0, symSize: 0x24 }
  - { offset: 0x2615A, size: 0x8, addend: 0x0, symName: __ZNSt3__16__treeINS_12__value_typeIiNS_4pairINS_12basic_stringIcNS_11char_traitsIcEENS_9allocatorIcEEEES8_EEEENS_19__map_value_compareIiSA_NS_4lessIiEELb1EEENS6_ISA_EEE10value_compB8ne180100Ev, symObjAddr: 0xAA3C, symBinAddr: 0x10000D1F4, symSize: 0x28 }
  - { offset: 0x26180, size: 0x8, addend: 0x0, symName: __ZNKSt3__119__map_value_compareIiNS_12__value_typeIiNS_4pairINS_12basic_stringIcNS_11char_traitsIcEENS_9allocatorIcEEEES8_EEEENS_4lessIiEELb1EEclB8ne180100ERKiRKSA_, symObjAddr: 0xAA64, symBinAddr: 0x10000D21C, symSize: 0x50 }
  - { offset: 0x261C4, size: 0x8, addend: 0x0, symName: __ZNKSt3__119__map_value_compareIiNS_12__value_typeIiNS_4pairINS_12basic_stringIcNS_11char_traitsIcEENS_9allocatorIcEEEES8_EEEENS_4lessIiEELb1EEclB8ne180100ERKSA_RKi, symObjAddr: 0xAAB4, symBinAddr: 0x10000D26C, symSize: 0x48 }
  - { offset: 0x26208, size: 0x8, addend: 0x0, symName: __ZNSt3__117__compressed_pairImNS_19__map_value_compareIiNS_12__value_typeIiNS_4pairINS_12basic_stringIcNS_11char_traitsIcEENS_9allocatorIcEEEES9_EEEENS_4lessIiEELb1EEEE6secondB8ne180100Ev, symObjAddr: 0xAAFC, symBinAddr: 0x10000D2B4, symSize: 0x24 }
  - { offset: 0x2622E, size: 0x8, addend: 0x0, symName: __ZNSt3__122__compressed_pair_elemINS_19__map_value_compareIiNS_12__value_typeIiNS_4pairINS_12basic_stringIcNS_11char_traitsIcEENS_9allocatorIcEEEES9_EEEENS_4lessIiEELb1EEELi1ELb1EE5__getB8ne180100Ev, symObjAddr: 0xAB20, symBinAddr: 0x10000D2D8, symSize: 0x14 }
  - { offset: 0x26254, size: 0x8, addend: 0x0, symName: __ZNKSt3__14lessIiEclB8ne180100ERKiS3_, symObjAddr: 0xAB34, symBinAddr: 0x10000D2EC, symSize: 0x34 }
  - { offset: 0x26298, size: 0x8, addend: 0x0, symName: __ZNKSt3__112__value_typeIiNS_4pairINS_12basic_stringIcNS_11char_traitsIcEENS_9allocatorIcEEEES7_EEE11__get_valueB8ne180100Ev, symObjAddr: 0xAB68, symBinAddr: 0x10000D320, symSize: 0x24 }
  - { offset: 0x262BE, size: 0x8, addend: 0x0, symName: __ZNSt3__116allocator_traitsINS_9allocatorINS_11__tree_nodeINS_12__value_typeIiNS_4pairINS_12basic_stringIcNS_11char_traitsIcEENS1_IcEEEES9_EEEEPvEEEEE8allocateB8ne180100ERSE_m, symObjAddr: 0xABC4, symBinAddr: 0x10000D37C, symSize: 0x2C }
  - { offset: 0x262F1, size: 0x8, addend: 0x0, symName: __ZNSt3__122__tree_node_destructorINS_9allocatorINS_11__tree_nodeINS_12__value_typeIiNS_4pairINS_12basic_stringIcNS_11char_traitsIcEENS1_IcEEEES9_EEEEPvEEEEEC1B8ne180100ERSE_b, symObjAddr: 0xABF0, symBinAddr: 0x10000D3A8, symSize: 0x48 }
  - { offset: 0x2633F, size: 0x8, addend: 0x0, symName: __ZNSt3__110unique_ptrINS_11__tree_nodeINS_12__value_typeIiNS_4pairINS_12basic_stringIcNS_11char_traitsIcEENS_9allocatorIcEEEES9_EEEEPvEENS_22__tree_node_destructorINS7_ISD_EEEEEC1B8ne180100ILb1EvEEPSD_NS_16__dependent_typeINS_27__unique_ptr_deleter_sfinaeISG_EEXT_EE20__good_rval_ref_typeE, symObjAddr: 0xAC38, symBinAddr: 0x10000D3F0, symSize: 0x3C }
  - { offset: 0x26390, size: 0x8, addend: 0x0, symName: __ZNSt3__116allocator_traitsINS_9allocatorINS_11__tree_nodeINS_12__value_typeIiNS_4pairINS_12basic_stringIcNS_11char_traitsIcEENS1_IcEEEES9_EEEEPvEEEEE9constructB8ne180100INS4_IKiSA_EEJRKNS_21piecewise_construct_tENS_5tupleIJRSH_EEENSM_IJEEEEvEEvRSE_PT_DpOT0_, symObjAddr: 0xAC74, symBinAddr: 0x10000D42C, symSize: 0x44 }
  - { offset: 0x2640F, size: 0x8, addend: 0x0, symName: __ZNKSt3__110unique_ptrINS_11__tree_nodeINS_12__value_typeIiNS_4pairINS_12basic_stringIcNS_11char_traitsIcEENS_9allocatorIcEEEES9_EEEEPvEENS_22__tree_node_destructorINS7_ISD_EEEEEptB8ne180100Ev, symObjAddr: 0xACB8, symBinAddr: 0x10000D470, symSize: 0x28 }
  - { offset: 0x26435, size: 0x8, addend: 0x0, symName: __ZNSt3__110unique_ptrINS_11__tree_nodeINS_12__value_typeIiNS_4pairINS_12basic_stringIcNS_11char_traitsIcEENS_9allocatorIcEEEES9_EEEEPvEENS_22__tree_node_destructorINS7_ISD_EEEEE11get_deleterB8ne180100Ev, symObjAddr: 0xACE0, symBinAddr: 0x10000D498, symSize: 0x24 }
  - { offset: 0x2645B, size: 0x8, addend: 0x0, symName: __ZNSt3__19allocatorINS_11__tree_nodeINS_12__value_typeIiNS_4pairINS_12basic_stringIcNS_11char_traitsIcEENS0_IcEEEES8_EEEEPvEEE8allocateB8ne180100Em, symObjAddr: 0xAD04, symBinAddr: 0x10000D4BC, symSize: 0x5C }
  - { offset: 0x2649A, size: 0x8, addend: 0x0, symName: __ZNSt3__116allocator_traitsINS_9allocatorINS_11__tree_nodeINS_12__value_typeIiNS_4pairINS_12basic_stringIcNS_11char_traitsIcEENS1_IcEEEES9_EEEEPvEEEEE8max_sizeB8ne180100ISE_vEEmRKSE_, symObjAddr: 0xAD60, symBinAddr: 0x10000D518, symSize: 0x24 }
  - { offset: 0x264C8, size: 0x8, addend: 0x0, symName: __ZNKSt3__19allocatorINS_11__tree_nodeINS_12__value_typeIiNS_4pairINS_12basic_stringIcNS_11char_traitsIcEENS0_IcEEEES8_EEEEPvEEE8max_sizeB8ne180100Ev, symObjAddr: 0xAD84, symBinAddr: 0x10000D53C, symSize: 0x20 }
  - { offset: 0x264EE, size: 0x8, addend: 0x0, symName: __ZNSt3__122__tree_node_destructorINS_9allocatorINS_11__tree_nodeINS_12__value_typeIiNS_4pairINS_12basic_stringIcNS_11char_traitsIcEENS1_IcEEEES9_EEEEPvEEEEEC2B8ne180100ERSE_b, symObjAddr: 0xADA4, symBinAddr: 0x10000D55C, symSize: 0x38 }
  - { offset: 0x26536, size: 0x8, addend: 0x0, symName: __ZNSt3__110unique_ptrINS_11__tree_nodeINS_12__value_typeIiNS_4pairINS_12basic_stringIcNS_11char_traitsIcEENS_9allocatorIcEEEES9_EEEEPvEENS_22__tree_node_destructorINS7_ISD_EEEEEC2B8ne180100ILb1EvEEPSD_NS_16__dependent_typeINS_27__unique_ptr_deleter_sfinaeISG_EEXT_EE20__good_rval_ref_typeE, symObjAddr: 0xADDC, symBinAddr: 0x10000D594, symSize: 0x48 }
  - { offset: 0x26587, size: 0x8, addend: 0x0, symName: __ZNSt3__117__compressed_pairIPNS_11__tree_nodeINS_12__value_typeIiNS_4pairINS_12basic_stringIcNS_11char_traitsIcEENS_9allocatorIcEEEES9_EEEEPvEENS_22__tree_node_destructorINS7_ISD_EEEEEC1B8ne180100IRSE_SH_EEOT_OT0_, symObjAddr: 0xAE24, symBinAddr: 0x10000D5DC, symSize: 0x3C }
  - { offset: 0x265DF, size: 0x8, addend: 0x0, symName: __ZNSt3__117__compressed_pairIPNS_11__tree_nodeINS_12__value_typeIiNS_4pairINS_12basic_stringIcNS_11char_traitsIcEENS_9allocatorIcEEEES9_EEEEPvEENS_22__tree_node_destructorINS7_ISD_EEEEEC2B8ne180100IRSE_SH_EEOT_OT0_, symObjAddr: 0xAE60, symBinAddr: 0x10000D618, symSize: 0x48 }
  - { offset: 0x26637, size: 0x8, addend: 0x0, symName: __ZNSt3__122__compressed_pair_elemIPNS_11__tree_nodeINS_12__value_typeIiNS_4pairINS_12basic_stringIcNS_11char_traitsIcEENS_9allocatorIcEEEES9_EEEEPvEELi0ELb0EEC2B8ne180100IRSE_vEEOT_, symObjAddr: 0xAEA8, symBinAddr: 0x10000D660, symSize: 0x24 }
  - { offset: 0x26679, size: 0x8, addend: 0x0, symName: __ZNSt3__122__compressed_pair_elemINS_22__tree_node_destructorINS_9allocatorINS_11__tree_nodeINS_12__value_typeIiNS_4pairINS_12basic_stringIcNS_11char_traitsIcEENS2_IcEEEESA_EEEEPvEEEEEELi1ELb0EEC2B8ne180100ISG_vEEOT_, symObjAddr: 0xAECC, symBinAddr: 0x10000D684, symSize: 0x24 }
  - { offset: 0x266BB, size: 0x8, addend: 0x0, symName: __ZNSt3__19allocatorINS_11__tree_nodeINS_12__value_typeIiNS_4pairINS_12basic_stringIcNS_11char_traitsIcEENS0_IcEEEES8_EEEEPvEEE9constructB8ne180100INS3_IKiS9_EEJRKNS_21piecewise_construct_tENS_5tupleIJRSF_EEENSK_IJEEEEEEvPT_DpOT0_, symObjAddr: 0xAEF0, symBinAddr: 0x10000D6A8, symSize: 0x44 }
  - { offset: 0x26737, size: 0x8, addend: 0x0, symName: __ZNSt3__14pairIKiNS0_INS_12basic_stringIcNS_11char_traitsIcEENS_9allocatorIcEEEES7_EEEC1B8ne180100IJRS1_EJEEENS_21piecewise_construct_tENS_5tupleIJDpT_EEENSD_IJDpT0_EEE, symObjAddr: 0xAF34, symBinAddr: 0x10000D6EC, symSize: 0x44 }
  - { offset: 0x2679E, size: 0x8, addend: 0x0, symName: __ZNSt3__14pairIKiNS0_INS_12basic_stringIcNS_11char_traitsIcEENS_9allocatorIcEEEES7_EEEC1B8ne180100IJRS1_EJEJLm0EEJEEENS_21piecewise_construct_tERNS_5tupleIJDpT_EEERNSD_IJDpT0_EEENS_15__tuple_indicesIJXspT1_EEEENSM_IJXspT2_EEEE, symObjAddr: 0xAF78, symBinAddr: 0x10000D730, symSize: 0x3C }
  - { offset: 0x2682E, size: 0x8, addend: 0x0, symName: __ZNSt3__14pairIKiNS0_INS_12basic_stringIcNS_11char_traitsIcEENS_9allocatorIcEEEES7_EEEC2B8ne180100IJRS1_EJEJLm0EEJEEENS_21piecewise_construct_tERNS_5tupleIJDpT_EEERNSD_IJDpT0_EEENS_15__tuple_indicesIJXspT1_EEEENSM_IJXspT2_EEEE, symObjAddr: 0xAFB4, symBinAddr: 0x10000D76C, symSize: 0x4C }
  - { offset: 0x268BE, size: 0x8, addend: 0x0, symName: __ZNSt3__14pairINS_12basic_stringIcNS_11char_traitsIcEENS_9allocatorIcEEEES6_EC1B8ne180100ILb1ELi0EEEv, symObjAddr: 0xB024, symBinAddr: 0x10000D7DC, symSize: 0x2C }
  - { offset: 0x268F8, size: 0x8, addend: 0x0, symName: __ZNSt3__112__tuple_leafILm0ERKiLb0EE3getB8ne180100Ev, symObjAddr: 0xB050, symBinAddr: 0x10000D808, symSize: 0x18 }
  - { offset: 0x2691E, size: 0x8, addend: 0x0, symName: __ZNSt3__14pairINS_12basic_stringIcNS_11char_traitsIcEENS_9allocatorIcEEEES6_EC2B8ne180100ILb1ELi0EEEv, symObjAddr: 0xB068, symBinAddr: 0x10000D820, symSize: 0x38 }
  - { offset: 0x26958, size: 0x8, addend: 0x0, symName: __ZNKSt3__117__compressed_pairIPNS_11__tree_nodeINS_12__value_typeIiNS_4pairINS_12basic_stringIcNS_11char_traitsIcEENS_9allocatorIcEEEES9_EEEEPvEENS_22__tree_node_destructorINS7_ISD_EEEEE5firstB8ne180100Ev, symObjAddr: 0xB0A0, symBinAddr: 0x10000D858, symSize: 0x24 }
  - { offset: 0x2697E, size: 0x8, addend: 0x0, symName: __ZNKSt3__122__compressed_pair_elemIPNS_11__tree_nodeINS_12__value_typeIiNS_4pairINS_12basic_stringIcNS_11char_traitsIcEENS_9allocatorIcEEEES9_EEEEPvEELi0ELb0EE5__getB8ne180100Ev, symObjAddr: 0xB0C4, symBinAddr: 0x10000D87C, symSize: 0x14 }
  - { offset: 0x269A4, size: 0x8, addend: 0x0, symName: __ZNSt3__117__compressed_pairIPNS_11__tree_nodeINS_12__value_typeIiNS_4pairINS_12basic_stringIcNS_11char_traitsIcEENS_9allocatorIcEEEES9_EEEEPvEENS_22__tree_node_destructorINS7_ISD_EEEEE6secondB8ne180100Ev, symObjAddr: 0xB0D8, symBinAddr: 0x10000D890, symSize: 0x28 }
  - { offset: 0x269CA, size: 0x8, addend: 0x0, symName: __ZNSt3__122__compressed_pair_elemINS_22__tree_node_destructorINS_9allocatorINS_11__tree_nodeINS_12__value_typeIiNS_4pairINS_12basic_stringIcNS_11char_traitsIcEENS2_IcEEEESA_EEEEPvEEEEEELi1ELb0EE5__getB8ne180100Ev, symObjAddr: 0xB100, symBinAddr: 0x10000D8B8, symSize: 0x14 }
  - { offset: 0x269F0, size: 0x8, addend: 0x0, symName: __ZNSt3__16__treeINS_12__value_typeIiNS_4pairINS_12basic_stringIcNS_11char_traitsIcEENS_9allocatorIcEEEES8_EEEENS_19__map_value_compareIiSA_NS_4lessIiEELb1EEENS6_ISA_EEE4sizeB8ne180100Ev, symObjAddr: 0xB114, symBinAddr: 0x10000D8CC, symSize: 0x28 }
  - { offset: 0x26A16, size: 0x8, addend: 0x0, symName: __ZNSt3__117__compressed_pairImNS_19__map_value_compareIiNS_12__value_typeIiNS_4pairINS_12basic_stringIcNS_11char_traitsIcEENS_9allocatorIcEEEES9_EEEENS_4lessIiEELb1EEEE5firstB8ne180100Ev, symObjAddr: 0xB13C, symBinAddr: 0x10000D8F4, symSize: 0x24 }
  - { offset: 0x26A3C, size: 0x8, addend: 0x0, symName: __ZNSt3__117__compressed_pairIPNS_11__tree_nodeINS_12__value_typeIiNS_4pairINS_12basic_stringIcNS_11char_traitsIcEENS_9allocatorIcEEEES9_EEEEPvEENS_22__tree_node_destructorINS7_ISD_EEEEE5firstB8ne180100Ev, symObjAddr: 0xB160, symBinAddr: 0x10000D918, symSize: 0x24 }
  - { offset: 0x26A62, size: 0x8, addend: 0x0, symName: __ZNSt3__122__compressed_pair_elemIPNS_11__tree_nodeINS_12__value_typeIiNS_4pairINS_12basic_stringIcNS_11char_traitsIcEENS_9allocatorIcEEEES9_EEEEPvEELi0ELb0EE5__getB8ne180100Ev, symObjAddr: 0xB184, symBinAddr: 0x10000D93C, symSize: 0x14 }
  - { offset: 0x26A88, size: 0x8, addend: 0x0, symName: __ZNSt3__110unique_ptrINS_11__tree_nodeINS_12__value_typeIiNS_4pairINS_12basic_stringIcNS_11char_traitsIcEENS_9allocatorIcEEEES9_EEEEPvEENS_22__tree_node_destructorINS7_ISD_EEEEED2B8ne180100Ev, symObjAddr: 0xB198, symBinAddr: 0x10000D950, symSize: 0x30 }
  - { offset: 0x26AB2, size: 0x8, addend: 0x0, symName: __ZNSt3__110unique_ptrINS_11__tree_nodeINS_12__value_typeIiNS_4pairINS_12basic_stringIcNS_11char_traitsIcEENS_9allocatorIcEEEES9_EEEEPvEENS_22__tree_node_destructorINS7_ISD_EEEEE5resetB8ne180100EPSD_, symObjAddr: 0xB1C8, symBinAddr: 0x10000D980, symSize: 0x78 }
  - { offset: 0x26AF6, size: 0x8, addend: 0x0, symName: __ZNSt3__122__tree_node_destructorINS_9allocatorINS_11__tree_nodeINS_12__value_typeIiNS_4pairINS_12basic_stringIcNS_11char_traitsIcEENS1_IcEEEES9_EEEEPvEEEEEclB8ne180100EPSD_, symObjAddr: 0xB240, symBinAddr: 0x10000D9F8, symSize: 0x98 }
  - { offset: 0x26B2B, size: 0x8, addend: 0x0, symName: __ZNSt3__115__tree_iteratorINS_12__value_typeIiNS_4pairINS_12basic_stringIcNS_11char_traitsIcEENS_9allocatorIcEEEES8_EEEEPNS_11__tree_nodeISA_PvEElEC2B8ne180100ESE_, symObjAddr: 0xB2D8, symBinAddr: 0x10000DA90, symSize: 0x20 }
  - { offset: 0x26B64, size: 0x8, addend: 0x0, symName: __ZNSt3__14pairINS_15__tree_iteratorINS_12__value_typeIiNS0_INS_12basic_stringIcNS_11char_traitsIcEENS_9allocatorIcEEEES8_EEEEPNS_11__tree_nodeISA_PvEElEEbEC2B8ne180100ISF_RbLi0EEEOT_OT0_, symObjAddr: 0xB2F8, symBinAddr: 0x10000DAB0, symSize: 0x38 }
  - { offset: 0x26BC2, size: 0x8, addend: 0x0, symName: __ZNSt3__15tupleIJRKiEEC1B8ne180100INS_4_AndELi0EEES2_, symObjAddr: 0xB330, symBinAddr: 0x10000DAE8, symSize: 0x34 }
  - { offset: 0x26C0A, size: 0x8, addend: 0x0, symName: __ZNSt3__15tupleIJRKiEEC2B8ne180100INS_4_AndELi0EEES2_, symObjAddr: 0xB364, symBinAddr: 0x10000DB1C, symSize: 0x34 }
  - { offset: 0x26C52, size: 0x8, addend: 0x0, symName: __ZNSt3__112__tuple_implINS_15__tuple_indicesIJLm0EEEEJRKiEEC1B8ne180100IJLm0EEJS4_EJEJEJS4_EEENS1_IJXspT_EEEENS_13__tuple_typesIJDpT0_EEENS1_IJXspT1_EEEENS8_IJDpT2_EEEDpOT3_, symObjAddr: 0xB398, symBinAddr: 0x10000DB50, symSize: 0x34 }
  - { offset: 0x26CE7, size: 0x8, addend: 0x0, symName: __ZNSt3__112__tuple_implINS_15__tuple_indicesIJLm0EEEEJRKiEEC2B8ne180100IJLm0EEJS4_EJEJEJS4_EEENS1_IJXspT_EEEENS_13__tuple_typesIJDpT0_EEENS1_IJXspT1_EEEENS8_IJDpT2_EEEDpOT3_, symObjAddr: 0xB3CC, symBinAddr: 0x10000DB84, symSize: 0x34 }
  - { offset: 0x26D7C, size: 0x8, addend: 0x0, symName: __ZNSt3__112__tuple_leafILm0ERKiLb0EEC2B8ne180100IS2_vEEOT_, symObjAddr: 0xB400, symBinAddr: 0x10000DBB8, symSize: 0x20 }
  - { offset: 0x26DBF, size: 0x8, addend: 0x0, symName: __ZNSt3__114pointer_traitsIPNS_12__value_typeIiNS_4pairINS_12basic_stringIcNS_11char_traitsIcEENS_9allocatorIcEEEES8_EEEEE10pointer_toB8ne180100ERSA_, symObjAddr: 0xB420, symBinAddr: 0x10000DBD8, symSize: 0x14 }
  - { offset: 0x26DE2, size: 0x8, addend: 0x0, symName: __ZNKSt3__115__tree_iteratorINS_12__value_typeIiNS_4pairINS_12basic_stringIcNS_11char_traitsIcEENS_9allocatorIcEEEES8_EEEEPNS_11__tree_nodeISA_PvEElE8__get_npB8ne180100Ev, symObjAddr: 0xB434, symBinAddr: 0x10000DBEC, symSize: 0x18 }
  - { offset: 0x26E08, size: 0x8, addend: 0x0, symName: __ZNSt3__112basic_stringIcNS_11char_traitsIcEENS_9allocatorIcEEEaSB8ne180100EOS5_, symObjAddr: 0xB44C, symBinAddr: 0x10000DC04, symSize: 0x34 }
  - { offset: 0x26E3D, size: 0x8, addend: 0x0, symName: __ZNSt3__112basic_stringIcNS_11char_traitsIcEENS_9allocatorIcEEE13__move_assignB8ne180100ERS5_NS_17integral_constantIbLb1EEE, symObjAddr: 0xB480, symBinAddr: 0x10000DC38, symSize: 0x17C }
  - { offset: 0x26E9E, size: 0x8, addend: 0x0, symName: __ZNSt3__116allocator_traitsINS_9allocatorIcEEE10deallocateB8ne180100ERS2_Pcm, symObjAddr: 0xB5FC, symBinAddr: 0x10000DDB4, symSize: 0x34 }
  - { offset: 0x26EE0, size: 0x8, addend: 0x0, symName: __ZNSt3__112basic_stringIcNS_11char_traitsIcEENS_9allocatorIcEEE7__allocB8ne180100Ev, symObjAddr: 0xB630, symBinAddr: 0x10000DDE8, symSize: 0x24 }
  - { offset: 0x26F06, size: 0x8, addend: 0x0, symName: __ZNKSt3__112basic_stringIcNS_11char_traitsIcEENS_9allocatorIcEEE14__get_long_capB8ne180100Ev, symObjAddr: 0xB654, symBinAddr: 0x10000DE0C, symSize: 0x30 }
  - { offset: 0x26F2C, size: 0x8, addend: 0x0, symName: __ZNSt3__112basic_stringIcNS_11char_traitsIcEENS_9allocatorIcEEE19__move_assign_allocB8ne180100ERS5_, symObjAddr: 0xB684, symBinAddr: 0x10000DE3C, symSize: 0x2C }
  - { offset: 0x26F61, size: 0x8, addend: 0x0, symName: __ZNSt3__19allocatorIcE10deallocateB8ne180100EPcm, symObjAddr: 0xB6B0, symBinAddr: 0x10000DE68, symSize: 0x40 }
  - { offset: 0x26FA3, size: 0x8, addend: 0x0, symName: __ZNSt3__117__compressed_pairINS_12basic_stringIcNS_11char_traitsIcEENS_9allocatorIcEEE5__repES5_E6secondB8ne180100Ev, symObjAddr: 0xB6F0, symBinAddr: 0x10000DEA8, symSize: 0x24 }
  - { offset: 0x26FC9, size: 0x8, addend: 0x0, symName: __ZNSt3__122__compressed_pair_elemINS_9allocatorIcEELi1ELb1EE5__getB8ne180100Ev, symObjAddr: 0xB714, symBinAddr: 0x10000DECC, symSize: 0x14 }
  - { offset: 0x26FEF, size: 0x8, addend: 0x0, symName: __ZNSt3__112basic_stringIcNS_11char_traitsIcEENS_9allocatorIcEEE19__move_assign_allocB8ne180100ERS5_NS_17integral_constantIbLb1EEE, symObjAddr: 0xB728, symBinAddr: 0x10000DEE0, symSize: 0x38 }
  - { offset: 0x27030, size: 0x8, addend: 0x0, symName: __ZNSt3__16__treeINS_12__value_typeINS_12basic_stringIcNS_11char_traitsIcEENS_9allocatorIcEEEENS_4pairIidEEEENS_19__map_value_compareIS7_SA_NS_4lessIS7_EELb1EEENS5_ISA_EEE25__emplace_unique_key_argsIS7_JRKNS_21piecewise_construct_tENS_5tupleIJRKS7_EEENSL_IJEEEEEENS8_INS_15__tree_iteratorISA_PNS_11__tree_nodeISA_PvEElEEbEERKT_DpOT0_, symObjAddr: 0xB760, symBinAddr: 0x10000DF18, symSize: 0x100 }
  - { offset: 0x27106, size: 0x8, addend: 0x0, symName: __ZNSt3__16__treeINS_12__value_typeINS_12basic_stringIcNS_11char_traitsIcEENS_9allocatorIcEEEENS_4pairIidEEEENS_19__map_value_compareIS7_SA_NS_4lessIS7_EELb1EEENS5_ISA_EEE12__find_equalIS7_EERPNS_16__tree_node_baseIPvEERPNS_15__tree_end_nodeISL_EERKT_, symObjAddr: 0xB860, symBinAddr: 0x10000E018, symSize: 0x184 }
  - { offset: 0x27173, size: 0x8, addend: 0x0, symName: __ZNSt3__16__treeINS_12__value_typeINS_12basic_stringIcNS_11char_traitsIcEENS_9allocatorIcEEEENS_4pairIidEEEENS_19__map_value_compareIS7_SA_NS_4lessIS7_EELb1EEENS5_ISA_EEE16__construct_nodeIJRKNS_21piecewise_construct_tENS_5tupleIJRKS7_EEENSL_IJEEEEEENS_10unique_ptrINS_11__tree_nodeISA_PvEENS_22__tree_node_destructorINS5_IST_EEEEEEDpOT_, symObjAddr: 0xB9E4, symBinAddr: 0x10000E19C, symSize: 0x120 }
  - { offset: 0x271FC, size: 0x8, addend: 0x0, symName: __ZNSt3__16__treeINS_12__value_typeINS_12basic_stringIcNS_11char_traitsIcEENS_9allocatorIcEEEENS_4pairIidEEEENS_19__map_value_compareIS7_SA_NS_4lessIS7_EELb1EEENS5_ISA_EEE16__insert_node_atEPNS_15__tree_end_nodeIPNS_16__tree_node_baseIPvEEEERSL_SL_, symObjAddr: 0xBB04, symBinAddr: 0x10000E2BC, symSize: 0xCC }
  - { offset: 0x27251, size: 0x8, addend: 0x0, symName: __ZNKSt3__110unique_ptrINS_11__tree_nodeINS_12__value_typeINS_12basic_stringIcNS_11char_traitsIcEENS_9allocatorIcEEEENS_4pairIidEEEEPvEENS_22__tree_node_destructorINS6_ISD_EEEEE3getB8ne180100Ev, symObjAddr: 0xBBD0, symBinAddr: 0x10000E388, symSize: 0x28 }
  - { offset: 0x27277, size: 0x8, addend: 0x0, symName: __ZNSt3__110unique_ptrINS_11__tree_nodeINS_12__value_typeINS_12basic_stringIcNS_11char_traitsIcEENS_9allocatorIcEEEENS_4pairIidEEEEPvEENS_22__tree_node_destructorINS6_ISD_EEEEE7releaseB8ne180100Ev, symObjAddr: 0xBBF8, symBinAddr: 0x10000E3B0, symSize: 0x44 }
  - { offset: 0x272AC, size: 0x8, addend: 0x0, symName: __ZNSt3__110unique_ptrINS_11__tree_nodeINS_12__value_typeINS_12basic_stringIcNS_11char_traitsIcEENS_9allocatorIcEEEENS_4pairIidEEEEPvEENS_22__tree_node_destructorINS6_ISD_EEEEED1B8ne180100Ev, symObjAddr: 0xBC3C, symBinAddr: 0x10000E3F4, symSize: 0x2C }
  - { offset: 0x272D6, size: 0x8, addend: 0x0, symName: __ZNSt3__115__tree_iteratorINS_12__value_typeINS_12basic_stringIcNS_11char_traitsIcEENS_9allocatorIcEEEENS_4pairIidEEEEPNS_11__tree_nodeISA_PvEElEC1B8ne180100ESE_, symObjAddr: 0xBC68, symBinAddr: 0x10000E420, symSize: 0x34 }
  - { offset: 0x27315, size: 0x8, addend: 0x0, symName: __ZNSt3__14pairINS_15__tree_iteratorINS_12__value_typeINS_12basic_stringIcNS_11char_traitsIcEENS_9allocatorIcEEEENS0_IidEEEEPNS_11__tree_nodeISA_PvEElEEbEC1B8ne180100ISF_RbLi0EEEOT_OT0_, symObjAddr: 0xBC9C, symBinAddr: 0x10000E454, symSize: 0x3C }
  - { offset: 0x27373, size: 0x8, addend: 0x0, symName: __ZNKSt3__16__treeINS_12__value_typeINS_12basic_stringIcNS_11char_traitsIcEENS_9allocatorIcEEEENS_4pairIidEEEENS_19__map_value_compareIS7_SA_NS_4lessIS7_EELb1EEENS5_ISA_EEE10__root_ptrB8ne180100Ev, symObjAddr: 0xBCD8, symBinAddr: 0x10000E490, symSize: 0x24 }
  - { offset: 0x27399, size: 0x8, addend: 0x0, symName: __ZNSt3__16__treeINS_12__value_typeINS_12basic_stringIcNS_11char_traitsIcEENS_9allocatorIcEEEENS_4pairIidEEEENS_19__map_value_compareIS7_SA_NS_4lessIS7_EELb1EEENS5_ISA_EEE10value_compB8ne180100Ev, symObjAddr: 0xBCFC, symBinAddr: 0x10000E4B4, symSize: 0x28 }
  - { offset: 0x273BF, size: 0x8, addend: 0x0, symName: __ZNKSt3__119__map_value_compareINS_12basic_stringIcNS_11char_traitsIcEENS_9allocatorIcEEEENS_12__value_typeIS6_NS_4pairIidEEEENS_4lessIS6_EELb1EEclB8ne180100ERKS6_RKSA_, symObjAddr: 0xBD24, symBinAddr: 0x10000E4DC, symSize: 0x50 }
  - { offset: 0x27403, size: 0x8, addend: 0x0, symName: __ZNKSt3__119__map_value_compareINS_12basic_stringIcNS_11char_traitsIcEENS_9allocatorIcEEEENS_12__value_typeIS6_NS_4pairIidEEEENS_4lessIS6_EELb1EEclB8ne180100ERKSA_RKS6_, symObjAddr: 0xBD74, symBinAddr: 0x10000E52C, symSize: 0x48 }
  - { offset: 0x27447, size: 0x8, addend: 0x0, symName: __ZNSt3__117__compressed_pairImNS_19__map_value_compareINS_12basic_stringIcNS_11char_traitsIcEENS_9allocatorIcEEEENS_12__value_typeIS7_NS_4pairIidEEEENS_4lessIS7_EELb1EEEE6secondB8ne180100Ev, symObjAddr: 0xBDBC, symBinAddr: 0x10000E574, symSize: 0x24 }
  - { offset: 0x2746D, size: 0x8, addend: 0x0, symName: __ZNSt3__122__compressed_pair_elemINS_19__map_value_compareINS_12basic_stringIcNS_11char_traitsIcEENS_9allocatorIcEEEENS_12__value_typeIS7_NS_4pairIidEEEENS_4lessIS7_EELb1EEELi1ELb1EE5__getB8ne180100Ev, symObjAddr: 0xBDE0, symBinAddr: 0x10000E598, symSize: 0x14 }
  - { offset: 0x27493, size: 0x8, addend: 0x0, symName: __ZNKSt3__112__value_typeINS_12basic_stringIcNS_11char_traitsIcEENS_9allocatorIcEEEENS_4pairIidEEE11__get_valueB8ne180100Ev, symObjAddr: 0xBDF4, symBinAddr: 0x10000E5AC, symSize: 0x24 }
  - { offset: 0x274B9, size: 0x8, addend: 0x0, symName: __ZNSt3__116allocator_traitsINS_9allocatorINS_11__tree_nodeINS_12__value_typeINS_12basic_stringIcNS_11char_traitsIcEENS1_IcEEEENS_4pairIidEEEEPvEEEEE8allocateB8ne180100ERSE_m, symObjAddr: 0xBE50, symBinAddr: 0x10000E608, symSize: 0x2C }
  - { offset: 0x274EC, size: 0x8, addend: 0x0, symName: __ZNSt3__122__tree_node_destructorINS_9allocatorINS_11__tree_nodeINS_12__value_typeINS_12basic_stringIcNS_11char_traitsIcEENS1_IcEEEENS_4pairIidEEEEPvEEEEEC1B8ne180100ERSE_b, symObjAddr: 0xBE7C, symBinAddr: 0x10000E634, symSize: 0x48 }
  - { offset: 0x2753A, size: 0x8, addend: 0x0, symName: __ZNSt3__110unique_ptrINS_11__tree_nodeINS_12__value_typeINS_12basic_stringIcNS_11char_traitsIcEENS_9allocatorIcEEEENS_4pairIidEEEEPvEENS_22__tree_node_destructorINS6_ISD_EEEEEC1B8ne180100ILb1EvEEPSD_NS_16__dependent_typeINS_27__unique_ptr_deleter_sfinaeISG_EEXT_EE20__good_rval_ref_typeE, symObjAddr: 0xBEC4, symBinAddr: 0x10000E67C, symSize: 0x3C }
  - { offset: 0x2758B, size: 0x8, addend: 0x0, symName: __ZNSt3__116allocator_traitsINS_9allocatorINS_11__tree_nodeINS_12__value_typeINS_12basic_stringIcNS_11char_traitsIcEENS1_IcEEEENS_4pairIidEEEEPvEEEEE9constructB8ne180100INS9_IKS8_SA_EEJRKNS_21piecewise_construct_tENS_5tupleIJRSH_EEENSM_IJEEEEvEEvRSE_PT_DpOT0_, symObjAddr: 0xBF00, symBinAddr: 0x10000E6B8, symSize: 0x44 }
  - { offset: 0x2760A, size: 0x8, addend: 0x0, symName: __ZNKSt3__110unique_ptrINS_11__tree_nodeINS_12__value_typeINS_12basic_stringIcNS_11char_traitsIcEENS_9allocatorIcEEEENS_4pairIidEEEEPvEENS_22__tree_node_destructorINS6_ISD_EEEEEptB8ne180100Ev, symObjAddr: 0xBF44, symBinAddr: 0x10000E6FC, symSize: 0x28 }
  - { offset: 0x27630, size: 0x8, addend: 0x0, symName: __ZNSt3__110unique_ptrINS_11__tree_nodeINS_12__value_typeINS_12basic_stringIcNS_11char_traitsIcEENS_9allocatorIcEEEENS_4pairIidEEEEPvEENS_22__tree_node_destructorINS6_ISD_EEEEE11get_deleterB8ne180100Ev, symObjAddr: 0xBF6C, symBinAddr: 0x10000E724, symSize: 0x24 }
  - { offset: 0x27656, size: 0x8, addend: 0x0, symName: __ZNSt3__19allocatorINS_11__tree_nodeINS_12__value_typeINS_12basic_stringIcNS_11char_traitsIcEENS0_IcEEEENS_4pairIidEEEEPvEEE8allocateB8ne180100Em, symObjAddr: 0xBF90, symBinAddr: 0x10000E748, symSize: 0x5C }
  - { offset: 0x27695, size: 0x8, addend: 0x0, symName: __ZNSt3__116allocator_traitsINS_9allocatorINS_11__tree_nodeINS_12__value_typeINS_12basic_stringIcNS_11char_traitsIcEENS1_IcEEEENS_4pairIidEEEEPvEEEEE8max_sizeB8ne180100ISE_vEEmRKSE_, symObjAddr: 0xBFEC, symBinAddr: 0x10000E7A4, symSize: 0x24 }
  - { offset: 0x276C3, size: 0x8, addend: 0x0, symName: __ZNKSt3__19allocatorINS_11__tree_nodeINS_12__value_typeINS_12basic_stringIcNS_11char_traitsIcEENS0_IcEEEENS_4pairIidEEEEPvEEE8max_sizeB8ne180100Ev, symObjAddr: 0xC010, symBinAddr: 0x10000E7C8, symSize: 0x20 }
  - { offset: 0x276E9, size: 0x8, addend: 0x0, symName: __ZNSt3__122__tree_node_destructorINS_9allocatorINS_11__tree_nodeINS_12__value_typeINS_12basic_stringIcNS_11char_traitsIcEENS1_IcEEEENS_4pairIidEEEEPvEEEEEC2B8ne180100ERSE_b, symObjAddr: 0xC030, symBinAddr: 0x10000E7E8, symSize: 0x38 }
  - { offset: 0x27731, size: 0x8, addend: 0x0, symName: __ZNSt3__110unique_ptrINS_11__tree_nodeINS_12__value_typeINS_12basic_stringIcNS_11char_traitsIcEENS_9allocatorIcEEEENS_4pairIidEEEEPvEENS_22__tree_node_destructorINS6_ISD_EEEEEC2B8ne180100ILb1EvEEPSD_NS_16__dependent_typeINS_27__unique_ptr_deleter_sfinaeISG_EEXT_EE20__good_rval_ref_typeE, symObjAddr: 0xC068, symBinAddr: 0x10000E820, symSize: 0x48 }
  - { offset: 0x27782, size: 0x8, addend: 0x0, symName: __ZNSt3__117__compressed_pairIPNS_11__tree_nodeINS_12__value_typeINS_12basic_stringIcNS_11char_traitsIcEENS_9allocatorIcEEEENS_4pairIidEEEEPvEENS_22__tree_node_destructorINS6_ISD_EEEEEC1B8ne180100IRSE_SH_EEOT_OT0_, symObjAddr: 0xC0B0, symBinAddr: 0x10000E868, symSize: 0x3C }
  - { offset: 0x277DA, size: 0x8, addend: 0x0, symName: __ZNSt3__117__compressed_pairIPNS_11__tree_nodeINS_12__value_typeINS_12basic_stringIcNS_11char_traitsIcEENS_9allocatorIcEEEENS_4pairIidEEEEPvEENS_22__tree_node_destructorINS6_ISD_EEEEEC2B8ne180100IRSE_SH_EEOT_OT0_, symObjAddr: 0xC0EC, symBinAddr: 0x10000E8A4, symSize: 0x48 }
  - { offset: 0x27832, size: 0x8, addend: 0x0, symName: __ZNSt3__122__compressed_pair_elemIPNS_11__tree_nodeINS_12__value_typeINS_12basic_stringIcNS_11char_traitsIcEENS_9allocatorIcEEEENS_4pairIidEEEEPvEELi0ELb0EEC2B8ne180100IRSE_vEEOT_, symObjAddr: 0xC134, symBinAddr: 0x10000E8EC, symSize: 0x24 }
  - { offset: 0x27874, size: 0x8, addend: 0x0, symName: __ZNSt3__122__compressed_pair_elemINS_22__tree_node_destructorINS_9allocatorINS_11__tree_nodeINS_12__value_typeINS_12basic_stringIcNS_11char_traitsIcEENS2_IcEEEENS_4pairIidEEEEPvEEEEEELi1ELb0EEC2B8ne180100ISG_vEEOT_, symObjAddr: 0xC158, symBinAddr: 0x10000E910, symSize: 0x24 }
  - { offset: 0x278B6, size: 0x8, addend: 0x0, symName: __ZNSt3__19allocatorINS_11__tree_nodeINS_12__value_typeINS_12basic_stringIcNS_11char_traitsIcEENS0_IcEEEENS_4pairIidEEEEPvEEE9constructB8ne180100INS8_IKS7_S9_EEJRKNS_21piecewise_construct_tENS_5tupleIJRSF_EEENSK_IJEEEEEEvPT_DpOT0_, symObjAddr: 0xC17C, symBinAddr: 0x10000E934, symSize: 0x44 }
  - { offset: 0x27932, size: 0x8, addend: 0x0, symName: __ZNSt3__14pairIKNS_12basic_stringIcNS_11char_traitsIcEENS_9allocatorIcEEEENS0_IidEEEC1B8ne180100IJRS7_EJEEENS_21piecewise_construct_tENS_5tupleIJDpT_EEENSD_IJDpT0_EEE, symObjAddr: 0xC1C0, symBinAddr: 0x10000E978, symSize: 0x3C }
  - { offset: 0x27999, size: 0x8, addend: 0x0, symName: __ZNSt3__14pairIKNS_12basic_stringIcNS_11char_traitsIcEENS_9allocatorIcEEEENS0_IidEEEC1B8ne180100IJRS7_EJEJLm0EEJEEENS_21piecewise_construct_tERNS_5tupleIJDpT_EEERNSD_IJDpT0_EEENS_15__tuple_indicesIJXspT1_EEEENSM_IJXspT2_EEEE, symObjAddr: 0xC1FC, symBinAddr: 0x10000E9B4, symSize: 0x3C }
  - { offset: 0x27A29, size: 0x8, addend: 0x0, symName: __ZNSt3__14pairIKNS_12basic_stringIcNS_11char_traitsIcEENS_9allocatorIcEEEENS0_IidEEEC2B8ne180100IJRS7_EJEJLm0EEJEEENS_21piecewise_construct_tERNS_5tupleIJDpT_EEERNSD_IJDpT0_EEENS_15__tuple_indicesIJXspT1_EEEENSM_IJXspT2_EEEE, symObjAddr: 0xC238, symBinAddr: 0x10000E9F0, symSize: 0x50 }
  - { offset: 0x27AB9, size: 0x8, addend: 0x0, symName: __ZNKSt3__117__compressed_pairIPNS_11__tree_nodeINS_12__value_typeINS_12basic_stringIcNS_11char_traitsIcEENS_9allocatorIcEEEENS_4pairIidEEEEPvEENS_22__tree_node_destructorINS6_ISD_EEEEE5firstB8ne180100Ev, symObjAddr: 0xC288, symBinAddr: 0x10000EA40, symSize: 0x24 }
  - { offset: 0x27ADF, size: 0x8, addend: 0x0, symName: __ZNKSt3__122__compressed_pair_elemIPNS_11__tree_nodeINS_12__value_typeINS_12basic_stringIcNS_11char_traitsIcEENS_9allocatorIcEEEENS_4pairIidEEEEPvEELi0ELb0EE5__getB8ne180100Ev, symObjAddr: 0xC2AC, symBinAddr: 0x10000EA64, symSize: 0x14 }
  - { offset: 0x27B05, size: 0x8, addend: 0x0, symName: __ZNSt3__117__compressed_pairIPNS_11__tree_nodeINS_12__value_typeINS_12basic_stringIcNS_11char_traitsIcEENS_9allocatorIcEEEENS_4pairIidEEEEPvEENS_22__tree_node_destructorINS6_ISD_EEEEE6secondB8ne180100Ev, symObjAddr: 0xC2C0, symBinAddr: 0x10000EA78, symSize: 0x28 }
  - { offset: 0x27B2B, size: 0x8, addend: 0x0, symName: __ZNSt3__122__compressed_pair_elemINS_22__tree_node_destructorINS_9allocatorINS_11__tree_nodeINS_12__value_typeINS_12basic_stringIcNS_11char_traitsIcEENS2_IcEEEENS_4pairIidEEEEPvEEEEEELi1ELb0EE5__getB8ne180100Ev, symObjAddr: 0xC2E8, symBinAddr: 0x10000EAA0, symSize: 0x14 }
  - { offset: 0x27B51, size: 0x8, addend: 0x0, symName: __ZNSt3__16__treeINS_12__value_typeINS_12basic_stringIcNS_11char_traitsIcEENS_9allocatorIcEEEENS_4pairIidEEEENS_19__map_value_compareIS7_SA_NS_4lessIS7_EELb1EEENS5_ISA_EEE4sizeB8ne180100Ev, symObjAddr: 0xC2FC, symBinAddr: 0x10000EAB4, symSize: 0x28 }
  - { offset: 0x27B77, size: 0x8, addend: 0x0, symName: __ZNSt3__117__compressed_pairImNS_19__map_value_compareINS_12basic_stringIcNS_11char_traitsIcEENS_9allocatorIcEEEENS_12__value_typeIS7_NS_4pairIidEEEENS_4lessIS7_EELb1EEEE5firstB8ne180100Ev, symObjAddr: 0xC324, symBinAddr: 0x10000EADC, symSize: 0x24 }
  - { offset: 0x27B9D, size: 0x8, addend: 0x0, symName: __ZNSt3__117__compressed_pairIPNS_11__tree_nodeINS_12__value_typeINS_12basic_stringIcNS_11char_traitsIcEENS_9allocatorIcEEEENS_4pairIidEEEEPvEENS_22__tree_node_destructorINS6_ISD_EEEEE5firstB8ne180100Ev, symObjAddr: 0xC348, symBinAddr: 0x10000EB00, symSize: 0x24 }
  - { offset: 0x27BC3, size: 0x8, addend: 0x0, symName: __ZNSt3__122__compressed_pair_elemIPNS_11__tree_nodeINS_12__value_typeINS_12basic_stringIcNS_11char_traitsIcEENS_9allocatorIcEEEENS_4pairIidEEEEPvEELi0ELb0EE5__getB8ne180100Ev, symObjAddr: 0xC36C, symBinAddr: 0x10000EB24, symSize: 0x14 }
  - { offset: 0x27BE9, size: 0x8, addend: 0x0, symName: __ZNSt3__110unique_ptrINS_11__tree_nodeINS_12__value_typeINS_12basic_stringIcNS_11char_traitsIcEENS_9allocatorIcEEEENS_4pairIidEEEEPvEENS_22__tree_node_destructorINS6_ISD_EEEEED2B8ne180100Ev, symObjAddr: 0xC380, symBinAddr: 0x10000EB38, symSize: 0x30 }
  - { offset: 0x27C13, size: 0x8, addend: 0x0, symName: __ZNSt3__110unique_ptrINS_11__tree_nodeINS_12__value_typeINS_12basic_stringIcNS_11char_traitsIcEENS_9allocatorIcEEEENS_4pairIidEEEEPvEENS_22__tree_node_destructorINS6_ISD_EEEEE5resetB8ne180100EPSD_, symObjAddr: 0xC3B0, symBinAddr: 0x10000EB68, symSize: 0x78 }
  - { offset: 0x27C57, size: 0x8, addend: 0x0, symName: __ZNSt3__122__tree_node_destructorINS_9allocatorINS_11__tree_nodeINS_12__value_typeINS_12basic_stringIcNS_11char_traitsIcEENS1_IcEEEENS_4pairIidEEEEPvEEEEEclB8ne180100EPSD_, symObjAddr: 0xC428, symBinAddr: 0x10000EBE0, symSize: 0x98 }
  - { offset: 0x27C8C, size: 0x8, addend: 0x0, symName: __ZNSt3__115__tree_iteratorINS_12__value_typeINS_12basic_stringIcNS_11char_traitsIcEENS_9allocatorIcEEEENS_4pairIidEEEEPNS_11__tree_nodeISA_PvEElEC2B8ne180100ESE_, symObjAddr: 0xC4C0, symBinAddr: 0x10000EC78, symSize: 0x20 }
  - { offset: 0x27CC5, size: 0x8, addend: 0x0, symName: __ZNSt3__14pairINS_15__tree_iteratorINS_12__value_typeINS_12basic_stringIcNS_11char_traitsIcEENS_9allocatorIcEEEENS0_IidEEEEPNS_11__tree_nodeISA_PvEElEEbEC2B8ne180100ISF_RbLi0EEEOT_OT0_, symObjAddr: 0xC4E0, symBinAddr: 0x10000EC98, symSize: 0x38 }
  - { offset: 0x27D23, size: 0x8, addend: 0x0, symName: __ZNSt3__16__treeINS_12__value_typeIiNS_4pairINS_12basic_stringIcNS_11char_traitsIcEENS_9allocatorIcEEEES8_EEEENS_19__map_value_compareIiSA_NS_4lessIiEELb1EEENS6_ISA_EEE5beginB8ne180100Ev, symObjAddr: 0xC518, symBinAddr: 0x10000ECD0, symSize: 0x34 }
  - { offset: 0x27D49, size: 0x8, addend: 0x0, symName: __ZNSt3__114__map_iteratorINS_15__tree_iteratorINS_12__value_typeIiNS_4pairINS_12basic_stringIcNS_11char_traitsIcEENS_9allocatorIcEEEES9_EEEEPNS_11__tree_nodeISB_PvEElEEEC1B8ne180100ESG_, symObjAddr: 0xC54C, symBinAddr: 0x10000ED04, symSize: 0x34 }
  - { offset: 0x27D82, size: 0x8, addend: 0x0, symName: __ZNSt3__115__tree_iteratorINS_12__value_typeIiNS_4pairINS_12basic_stringIcNS_11char_traitsIcEENS_9allocatorIcEEEES8_EEEEPNS_11__tree_nodeISA_PvEElEC1B8ne180100EPNS_15__tree_end_nodeIPNS_16__tree_node_baseISC_EEEE, symObjAddr: 0xC580, symBinAddr: 0x10000ED38, symSize: 0x34 }
  - { offset: 0x27DBB, size: 0x8, addend: 0x0, symName: __ZNSt3__115__tree_iteratorINS_12__value_typeIiNS_4pairINS_12basic_stringIcNS_11char_traitsIcEENS_9allocatorIcEEEES8_EEEEPNS_11__tree_nodeISA_PvEElEC2B8ne180100EPNS_15__tree_end_nodeIPNS_16__tree_node_baseISC_EEEE, symObjAddr: 0xC5B4, symBinAddr: 0x10000ED6C, symSize: 0x20 }
  - { offset: 0x27DF4, size: 0x8, addend: 0x0, symName: __ZNSt3__114__map_iteratorINS_15__tree_iteratorINS_12__value_typeIiNS_4pairINS_12basic_stringIcNS_11char_traitsIcEENS_9allocatorIcEEEES9_EEEEPNS_11__tree_nodeISB_PvEElEEEC2B8ne180100ESG_, symObjAddr: 0xC5D4, symBinAddr: 0x10000ED8C, symSize: 0x20 }
  - { offset: 0x27E2D, size: 0x8, addend: 0x0, symName: __ZNSt3__16__treeINS_12__value_typeIiNS_4pairINS_12basic_stringIcNS_11char_traitsIcEENS_9allocatorIcEEEES8_EEEENS_19__map_value_compareIiSA_NS_4lessIiEELb1EEENS6_ISA_EEE3endB8ne180100Ev, symObjAddr: 0xC5F4, symBinAddr: 0x10000EDAC, symSize: 0x34 }
  - { offset: 0x27E53, size: 0x8, addend: 0x0, symName: __ZNSt3__115__tree_iteratorINS_12__value_typeIiNS_4pairINS_12basic_stringIcNS_11char_traitsIcEENS_9allocatorIcEEEES8_EEEEPNS_11__tree_nodeISA_PvEElEppB8ne180100Ev, symObjAddr: 0xC68C, symBinAddr: 0x10000EE44, symSize: 0x38 }
...
