---
triple:          'arm64-apple-darwin'
binary-path:     TextBuffer_public_tests.exe
relocations:
  - { offset: 0x2835, size: 0x8, addend: 0x0, symName: __ZNSt3__18distanceB8ne180100IN4ListIcE8IteratorEEENS_15iterator_traitsIT_E15difference_typeES5_S5_, symObjAddr: 0x1538, symBinAddr: 0x100002038, symSize: 0x4C }
  - { offset: 0x2878, size: 0x8, addend: 0x0, symName: __ZNSt3__110__distanceB8ne180100IN4ListIcE8IteratorEEENS_15iterator_traitsIT_E15difference_typeES5_S5_NS_18input_iterator_tagE, symObjAddr: 0x1788, symBinAddr: 0x100002288, symSize: 0x64 }
  - { offset: 0x28D3, size: 0x8, addend: 0x0, symName: __ZNSt3__119__allocate_at_leastB8ne180100INS_9allocatorIcEEEENS_19__allocation_resultINS_16allocator_traitsIT_E7pointerEEERS5_m, symObjAddr: 0x1974, symBinAddr: 0x100002474, symSize: 0x40 }
  - { offset: 0x2B02, size: 0x8, addend: 0x0, symName: __ZNSt3__120__throw_length_errorB8ne180100EPKc, symObjAddr: 0x1CFC, symBinAddr: 0x1000027FC, symSize: 0x64 }
  - { offset: 0x2B5D, size: 0x8, addend: 0x0, symName: __ZNSt3__117__libcpp_allocateB8ne180100Emm, symObjAddr: 0x1EB0, symBinAddr: 0x1000029B0, symSize: 0x60 }
  - { offset: 0x2BB7, size: 0x8, addend: 0x0, symName: __ZNSt3__124__is_overaligned_for_newB8ne180100Em, symObjAddr: 0x1F10, symBinAddr: 0x100002A10, symSize: 0x20 }
  - { offset: 0x2BE5, size: 0x8, addend: 0x0, symName: __ZNSt3__121__libcpp_operator_newB8ne180100IJmSt11align_val_tEEEPvDpT_, symObjAddr: 0x1F30, symBinAddr: 0x100002A30, symSize: 0x2C }
  - { offset: 0x2C32, size: 0x8, addend: 0x0, symName: __ZNSt3__121__libcpp_operator_newB8ne180100IJmEEEPvDpT_, symObjAddr: 0x1F5C, symBinAddr: 0x100002A5C, symSize: 0x24 }
  - { offset: 0x2C6B, size: 0x8, addend: 0x0, symName: __ZNSt3__119__libcpp_deallocateB8ne180100EPvmm, symObjAddr: 0x204C, symBinAddr: 0x100002B4C, symSize: 0x60 }
  - { offset: 0x2CD0, size: 0x8, addend: 0x0, symName: __ZNSt3__127__do_deallocate_handle_sizeB8ne180100IJSt11align_val_tEEEvPvmDpT_, symObjAddr: 0x20AC, symBinAddr: 0x100002BAC, symSize: 0x30 }
  - { offset: 0x2D23, size: 0x8, addend: 0x0, symName: __ZNSt3__127__do_deallocate_handle_sizeB8ne180100IJEEEvPvmDpT_, symObjAddr: 0x20DC, symBinAddr: 0x100002BDC, symSize: 0x28 }
  - { offset: 0x2D61, size: 0x8, addend: 0x0, symName: __ZNSt3__124__libcpp_operator_deleteB8ne180100IJPvSt11align_val_tEEEvDpT_, symObjAddr: 0x2104, symBinAddr: 0x100002C04, symSize: 0x2C }
  - { offset: 0x2DAA, size: 0x8, addend: 0x0, symName: __ZNSt3__124__libcpp_operator_deleteB8ne180100IJPvEEEvDpT_, symObjAddr: 0x2130, symBinAddr: 0x100002C30, symSize: 0x24 }
  - { offset: 0x3BF2, size: 0x8, addend: 0x0, symName: __ZSt28__throw_bad_array_new_lengthB8ne180100v, symObjAddr: 0x1E7C, symBinAddr: 0x10000297C, symSize: 0x34 }
  - { offset: 0x436D, size: 0x8, addend: 0x0, symName: __ZN10TextBufferC2Ev, symObjAddr: 0x0, symBinAddr: 0x100000B00, symSize: 0x84 }
  - { offset: 0x4397, size: 0x8, addend: 0x0, symName: __ZN4ListIcEC1Ev, symObjAddr: 0x84, symBinAddr: 0x100000B84, symSize: 0x2C }
  - { offset: 0x43C0, size: 0x8, addend: 0x0, symName: __ZNK4ListIcE3endEv, symObjAddr: 0xB0, symBinAddr: 0x100000BB0, symSize: 0x34 }
  - { offset: 0x43E6, size: 0x8, addend: 0x0, symName: __ZN4ListIcED1Ev, symObjAddr: 0xE4, symBinAddr: 0x100000BE4, symSize: 0x2C }
  - { offset: 0x440F, size: 0x8, addend: 0x0, symName: __ZN10TextBufferC1Ev, symObjAddr: 0x110, symBinAddr: 0x100000C10, symSize: 0x2C }
  - { offset: 0x4439, size: 0x8, addend: 0x0, symName: __ZN10TextBuffer7forwardEv, symObjAddr: 0x13C, symBinAddr: 0x100000C3C, symSize: 0xEC }
  - { offset: 0x446D, size: 0x8, addend: 0x0, symName: __ZNK4ListIcE8IteratoreqERKS1_, symObjAddr: 0x228, symBinAddr: 0x100000D28, symSize: 0x68 }
  - { offset: 0x449F, size: 0x8, addend: 0x0, symName: __ZNK4ListIcE8IteratordeEv, symObjAddr: 0x290, symBinAddr: 0x100000D90, symSize: 0x68 }
  - { offset: 0x44C3, size: 0x8, addend: 0x0, symName: __ZN4ListIcE8IteratorppEv, symObjAddr: 0x2F8, symBinAddr: 0x100000DF8, symSize: 0x6C }
  - { offset: 0x44E7, size: 0x8, addend: 0x0, symName: __ZN10TextBuffer8backwardEv, symObjAddr: 0x364, symBinAddr: 0x100000E64, symSize: 0xF0 }
  - { offset: 0x4529, size: 0x8, addend: 0x0, symName: __ZNK4ListIcE8IteratorneERKS1_, symObjAddr: 0x454, symBinAddr: 0x100000F54, symSize: 0x34 }
  - { offset: 0x455B, size: 0x8, addend: 0x0, symName: __ZNK4ListIcE5beginEv, symObjAddr: 0x488, symBinAddr: 0x100000F88, symSize: 0x34 }
  - { offset: 0x4581, size: 0x8, addend: 0x0, symName: __ZN4ListIcE8IteratormmEv, symObjAddr: 0x4BC, symBinAddr: 0x100000FBC, symSize: 0xF4 }
  - { offset: 0x45A5, size: 0x8, addend: 0x0, symName: __ZNK10TextBuffer14compute_columnEv, symObjAddr: 0x5B0, symBinAddr: 0x1000010B0, symSize: 0x9C }
  - { offset: 0x45EA, size: 0x8, addend: 0x0, symName: __ZN10TextBuffer6insertEc, symObjAddr: 0x64C, symBinAddr: 0x10000114C, symSize: 0x98 }
  - { offset: 0x461E, size: 0x8, addend: 0x0, symName: __ZN4ListIcE6insertENS0_8IteratorERKc, symObjAddr: 0x6E4, symBinAddr: 0x1000011E4, symSize: 0x158 }
  - { offset: 0x468D, size: 0x8, addend: 0x0, symName: __ZN10TextBuffer6removeEv, symObjAddr: 0x83C, symBinAddr: 0x10000133C, symSize: 0xB8 }
  - { offset: 0x46B3, size: 0x8, addend: 0x0, symName: __ZN4ListIcE5eraseENS0_8IteratorE, symObjAddr: 0x8F4, symBinAddr: 0x1000013F4, symSize: 0x16C }
  - { offset: 0x4714, size: 0x8, addend: 0x0, symName: __ZNK10TextBuffer9get_indexEv, symObjAddr: 0xA60, symBinAddr: 0x100001560, symSize: 0x54 }
  - { offset: 0x473A, size: 0x8, addend: 0x0, symName: __ZN10TextBuffer17move_to_row_startEv, symObjAddr: 0xAB4, symBinAddr: 0x1000015B4, symSize: 0xC0 }
  - { offset: 0x477C, size: 0x8, addend: 0x0, symName: __ZN10TextBuffer15move_to_row_endEv, symObjAddr: 0xB74, symBinAddr: 0x100001674, symSize: 0xBC }
  - { offset: 0x47A2, size: 0x8, addend: 0x0, symName: __ZN10TextBuffer14move_to_columnEi, symObjAddr: 0xC30, symBinAddr: 0x100001730, symSize: 0xE8 }
  - { offset: 0x47D6, size: 0x8, addend: 0x0, symName: __ZN10TextBuffer2upEv, symObjAddr: 0xD18, symBinAddr: 0x100001818, symSize: 0x108 }
  - { offset: 0x4818, size: 0x8, addend: 0x0, symName: __ZN10TextBuffer4downEv, symObjAddr: 0xE20, symBinAddr: 0x100001920, symSize: 0x158 }
  - { offset: 0x4868, size: 0x8, addend: 0x0, symName: __ZNK10TextBuffer9is_at_endEv, symObjAddr: 0xF78, symBinAddr: 0x100001A78, symSize: 0x48 }
  - { offset: 0x488E, size: 0x8, addend: 0x0, symName: __ZNK10TextBuffer14data_at_cursorEv, symObjAddr: 0xFC0, symBinAddr: 0x100001AC0, symSize: 0x64 }
  - { offset: 0x48B4, size: 0x8, addend: 0x0, symName: __ZNK10TextBuffer7get_rowEv, symObjAddr: 0x1024, symBinAddr: 0x100001B24, symSize: 0x18 }
  - { offset: 0x48DA, size: 0x8, addend: 0x0, symName: __ZNK10TextBuffer10get_columnEv, symObjAddr: 0x103C, symBinAddr: 0x100001B3C, symSize: 0x18 }
  - { offset: 0x4900, size: 0x8, addend: 0x0, symName: __ZNK10TextBuffer4sizeEv, symObjAddr: 0x1054, symBinAddr: 0x100001B54, symSize: 0x24 }
  - { offset: 0x4926, size: 0x8, addend: 0x0, symName: __ZNK4ListIcE4sizeEv, symObjAddr: 0x1078, symBinAddr: 0x100001B78, symSize: 0x18 }
  - { offset: 0x494C, size: 0x8, addend: 0x0, symName: __ZNK10TextBuffer9stringifyEv, symObjAddr: 0x1090, symBinAddr: 0x100001B90, symSize: 0x68 }
  - { offset: 0x4978, size: 0x8, addend: 0x0, symName: __ZNSt3__112basic_stringIcNS_11char_traitsIcEENS_9allocatorIcEEEC1B8ne180100IN4ListIcE8IteratorELi0EEET_SA_, symObjAddr: 0x10F8, symBinAddr: 0x100001BF8, symSize: 0x4C }
  - { offset: 0x49CD, size: 0x8, addend: 0x0, symName: __ZN4ListIcEC2Ev, symObjAddr: 0x1144, symBinAddr: 0x100001C44, symSize: 0x20 }
  - { offset: 0x49F6, size: 0x8, addend: 0x0, symName: __ZN4ListIcE8IteratorC1EPKS0_PNS0_4NodeE, symObjAddr: 0x1164, symBinAddr: 0x100001C64, symSize: 0x3C }
  - { offset: 0x4A3C, size: 0x8, addend: 0x0, symName: __ZN4ListIcE8IteratorC2EPKS0_PNS0_4NodeE, symObjAddr: 0x11A0, symBinAddr: 0x100001CA0, symSize: 0x2C }
  - { offset: 0x4A82, size: 0x8, addend: 0x0, symName: __ZN4ListIcED2Ev, symObjAddr: 0x11CC, symBinAddr: 0x100001CCC, symSize: 0x34 }
  - { offset: 0x4AAB, size: 0x8, addend: 0x0, symName: __ZN4ListIcE5clearEv, symObjAddr: 0x1200, symBinAddr: 0x100001D00, symSize: 0x44 }
  - { offset: 0x4AD1, size: 0x8, addend: 0x0, symName: __ZNK4ListIcE5emptyEv, symObjAddr: 0x1254, symBinAddr: 0x100001D54, symSize: 0x24 }
  - { offset: 0x4AF7, size: 0x8, addend: 0x0, symName: __ZN4ListIcE9pop_frontEv, symObjAddr: 0x1278, symBinAddr: 0x100001D78, symSize: 0xD0 }
  - { offset: 0x4B2C, size: 0x8, addend: 0x0, symName: __ZNSt3__112basic_stringIcNS_11char_traitsIcEENS_9allocatorIcEEEC2B8ne180100IN4ListIcE8IteratorELi0EEET_SA_, symObjAddr: 0x1348, symBinAddr: 0x100001E48, symSize: 0x6C }
  - { offset: 0x4B86, size: 0x8, addend: 0x0, symName: __ZNSt3__117__compressed_pairINS_12basic_stringIcNS_11char_traitsIcEENS_9allocatorIcEEE5__repES5_EC1B8ne180100INS_18__default_init_tagESA_EEOT_OT0_, symObjAddr: 0x13B4, symBinAddr: 0x100001EB4, symSize: 0x3C }
  - { offset: 0x4BDC, size: 0x8, addend: 0x0, symName: __ZNSt3__112basic_stringIcNS_11char_traitsIcEENS_9allocatorIcEEE6__initIN4ListIcE8IteratorELi0EEEvT_SA_, symObjAddr: 0x13F0, symBinAddr: 0x100001EF0, symSize: 0x8C }
  - { offset: 0x4C3E, size: 0x8, addend: 0x0, symName: __ZNSt3__117__compressed_pairINS_12basic_stringIcNS_11char_traitsIcEENS_9allocatorIcEEE5__repES5_EC2B8ne180100INS_18__default_init_tagESA_EEOT_OT0_, symObjAddr: 0x147C, symBinAddr: 0x100001F7C, symSize: 0x3C }
  - { offset: 0x4C94, size: 0x8, addend: 0x0, symName: __ZNSt3__122__compressed_pair_elemINS_12basic_stringIcNS_11char_traitsIcEENS_9allocatorIcEEE5__repELi0ELb0EEC2B8ne180100ENS_18__default_init_tagE, symObjAddr: 0x14B8, symBinAddr: 0x100001FB8, symSize: 0x14 }
  - { offset: 0x4CC6, size: 0x8, addend: 0x0, symName: __ZNSt3__122__compressed_pair_elemINS_9allocatorIcEELi1ELb1EEC2B8ne180100ENS_18__default_init_tagE, symObjAddr: 0x14CC, symBinAddr: 0x100001FCC, symSize: 0x2C }
  - { offset: 0x4CF8, size: 0x8, addend: 0x0, symName: __ZNSt3__19allocatorIcEC2B8ne180100Ev, symObjAddr: 0x14F8, symBinAddr: 0x100001FF8, symSize: 0x2C }
  - { offset: 0x4D20, size: 0x8, addend: 0x0, symName: __ZNSt3__116__non_trivial_ifILb1ENS_9allocatorIcEEEC2B8ne180100Ev, symObjAddr: 0x1524, symBinAddr: 0x100002024, symSize: 0x14 }
  - { offset: 0x4D48, size: 0x8, addend: 0x0, symName: __ZNSt3__112basic_stringIcNS_11char_traitsIcEENS_9allocatorIcEEE16__init_with_sizeB8ne180100IN4ListIcE8IteratorES9_EEvT_T0_m, symObjAddr: 0x1584, symBinAddr: 0x100002084, symSize: 0x204 }
  - { offset: 0x4DDA, size: 0x8, addend: 0x0, symName: __ZNKSt3__112basic_stringIcNS_11char_traitsIcEENS_9allocatorIcEEE8max_sizeB8ne180100Ev, symObjAddr: 0x17EC, symBinAddr: 0x1000022EC, symSize: 0xAC }
  - { offset: 0x4E2A, size: 0x8, addend: 0x0, symName: __ZNKSt3__112basic_stringIcNS_11char_traitsIcEENS_9allocatorIcEEE20__throw_length_errorB8ne180100Ev, symObjAddr: 0x1898, symBinAddr: 0x100002398, symSize: 0x1C }
  - { offset: 0x4E4E, size: 0x8, addend: 0x0, symName: __ZNSt3__112basic_stringIcNS_11char_traitsIcEENS_9allocatorIcEEE13__fits_in_ssoB8ne180100Em, symObjAddr: 0x18B4, symBinAddr: 0x1000023B4, symSize: 0x20 }
  - { offset: 0x4E71, size: 0x8, addend: 0x0, symName: __ZNSt3__112basic_stringIcNS_11char_traitsIcEENS_9allocatorIcEEE16__set_short_sizeB8ne180100Em, symObjAddr: 0x18D4, symBinAddr: 0x1000023D4, symSize: 0x78 }
  - { offset: 0x4EA4, size: 0x8, addend: 0x0, symName: __ZNSt3__112basic_stringIcNS_11char_traitsIcEENS_9allocatorIcEEE19__get_short_pointerB8ne180100Ev, symObjAddr: 0x194C, symBinAddr: 0x10000244C, symSize: 0x28 }
  - { offset: 0x4EC8, size: 0x8, addend: 0x0, symName: __ZNSt3__112basic_stringIcNS_11char_traitsIcEENS_9allocatorIcEEE7__allocB8ne180100Ev, symObjAddr: 0x19B4, symBinAddr: 0x1000024B4, symSize: 0x24 }
  - { offset: 0x4EEC, size: 0x8, addend: 0x0, symName: __ZNSt3__112basic_stringIcNS_11char_traitsIcEENS_9allocatorIcEEE11__recommendB8ne180100Em, symObjAddr: 0x19D8, symBinAddr: 0x1000024D8, symSize: 0x84 }
  - { offset: 0x4F1E, size: 0x8, addend: 0x0, symName: __ZNSt3__112basic_stringIcNS_11char_traitsIcEENS_9allocatorIcEEE16__begin_lifetimeB8ne180100EPcm, symObjAddr: 0x1A5C, symBinAddr: 0x10000255C, symSize: 0x14 }
  - { offset: 0x4F50, size: 0x8, addend: 0x0, symName: __ZNSt3__112basic_stringIcNS_11char_traitsIcEENS_9allocatorIcEEE18__set_long_pointerB8ne180100EPc, symObjAddr: 0x1A70, symBinAddr: 0x100002570, symSize: 0x38 }
  - { offset: 0x4F83, size: 0x8, addend: 0x0, symName: __ZNSt3__112basic_stringIcNS_11char_traitsIcEENS_9allocatorIcEEE14__set_long_capB8ne180100Em, symObjAddr: 0x1AA8, symBinAddr: 0x1000025A8, symSize: 0x70 }
  - { offset: 0x4FB6, size: 0x8, addend: 0x0, symName: __ZNSt3__112basic_stringIcNS_11char_traitsIcEENS_9allocatorIcEEE15__set_long_sizeB8ne180100Em, symObjAddr: 0x1B18, symBinAddr: 0x100002618, symSize: 0x38 }
  - { offset: 0x4FE9, size: 0x8, addend: 0x0, symName: __ZNSt3__111char_traitsIcE6assignB8ne180100ERcRKc, symObjAddr: 0x1B50, symBinAddr: 0x100002650, symSize: 0x24 }
  - { offset: 0x5019, size: 0x8, addend: 0x0, symName: __ZNKSt3__112basic_stringIcNS_11char_traitsIcEENS_9allocatorIcEEE9__is_longB8ne180100Ev, symObjAddr: 0x1B74, symBinAddr: 0x100002674, symSize: 0x38 }
  - { offset: 0x503D, size: 0x8, addend: 0x0, symName: __ZNSt3__116allocator_traitsINS_9allocatorIcEEE10deallocateB8ne180100ERS2_Pcm, symObjAddr: 0x1BAC, symBinAddr: 0x1000026AC, symSize: 0x34 }
  - { offset: 0x507E, size: 0x8, addend: 0x0, symName: __ZNSt3__112basic_stringIcNS_11char_traitsIcEENS_9allocatorIcEEE18__get_long_pointerB8ne180100Ev, symObjAddr: 0x1BE0, symBinAddr: 0x1000026E0, symSize: 0x28 }
  - { offset: 0x50A2, size: 0x8, addend: 0x0, symName: __ZNKSt3__112basic_stringIcNS_11char_traitsIcEENS_9allocatorIcEEE14__get_long_capB8ne180100Ev, symObjAddr: 0x1C08, symBinAddr: 0x100002708, symSize: 0x30 }
  - { offset: 0x50C6, size: 0x8, addend: 0x0, symName: __ZNKSt3__112basic_stringIcNS_11char_traitsIcEENS_9allocatorIcEEE14__annotate_newB8ne180100Em, symObjAddr: 0x1C38, symBinAddr: 0x100002738, symSize: 0x14 }
  - { offset: 0x5103, size: 0x8, addend: 0x0, symName: __ZNSt3__116allocator_traitsINS_9allocatorIcEEE8max_sizeB8ne180100IS2_vEEmRKS2_, symObjAddr: 0x1C4C, symBinAddr: 0x10000274C, symSize: 0x24 }
  - { offset: 0x5130, size: 0x8, addend: 0x0, symName: __ZNKSt3__112basic_stringIcNS_11char_traitsIcEENS_9allocatorIcEEE7__allocB8ne180100Ev, symObjAddr: 0x1C70, symBinAddr: 0x100002770, symSize: 0x24 }
  - { offset: 0x5154, size: 0x8, addend: 0x0, symName: __ZNSt3__114numeric_limitsImE3maxB8ne180100Ev, symObjAddr: 0x1C94, symBinAddr: 0x100002794, symSize: 0x14 }
  - { offset: 0x5167, size: 0x8, addend: 0x0, symName: __ZNKSt3__19allocatorIcE8max_sizeB8ne180100Ev, symObjAddr: 0x1CA8, symBinAddr: 0x1000027A8, symSize: 0x14 }
  - { offset: 0x518B, size: 0x8, addend: 0x0, symName: __ZNKSt3__117__compressed_pairINS_12basic_stringIcNS_11char_traitsIcEENS_9allocatorIcEEE5__repES5_E6secondB8ne180100Ev, symObjAddr: 0x1CBC, symBinAddr: 0x1000027BC, symSize: 0x24 }
  - { offset: 0x51AF, size: 0x8, addend: 0x0, symName: __ZNKSt3__122__compressed_pair_elemINS_9allocatorIcEELi1ELb1EE5__getB8ne180100Ev, symObjAddr: 0x1CE0, symBinAddr: 0x1000027E0, symSize: 0x14 }
  - { offset: 0x51D3, size: 0x8, addend: 0x0, symName: __ZNSt3__123__libcpp_numeric_limitsImLb1EE3maxB8ne180100Ev, symObjAddr: 0x1CF4, symBinAddr: 0x1000027F4, symSize: 0x8 }
  - { offset: 0x51E6, size: 0x8, addend: 0x0, symName: __ZNSt12length_errorC1B8ne180100EPKc, symObjAddr: 0x1D60, symBinAddr: 0x100002860, symSize: 0x34 }
  - { offset: 0x521C, size: 0x8, addend: 0x0, symName: __ZNSt12length_errorC2B8ne180100EPKc, symObjAddr: 0x1D94, symBinAddr: 0x100002894, symSize: 0x44 }
  - { offset: 0x5252, size: 0x8, addend: 0x0, symName: __ZNSt3__117__compressed_pairINS_12basic_stringIcNS_11char_traitsIcEENS_9allocatorIcEEE5__repES5_E5firstB8ne180100Ev, symObjAddr: 0x1DD8, symBinAddr: 0x1000028D8, symSize: 0x24 }
  - { offset: 0x5276, size: 0x8, addend: 0x0, symName: __ZNSt3__122__compressed_pair_elemINS_12basic_stringIcNS_11char_traitsIcEENS_9allocatorIcEEE5__repELi0ELb0EE5__getB8ne180100Ev, symObjAddr: 0x1DFC, symBinAddr: 0x1000028FC, symSize: 0x14 }
  - { offset: 0x529A, size: 0x8, addend: 0x0, symName: __ZNSt3__114pointer_traitsIPcE10pointer_toB8ne180100ERc, symObjAddr: 0x1E10, symBinAddr: 0x100002910, symSize: 0x14 }
  - { offset: 0x52BC, size: 0x8, addend: 0x0, symName: __ZNSt3__19allocatorIcE8allocateB8ne180100Em, symObjAddr: 0x1E24, symBinAddr: 0x100002924, symSize: 0x58 }
  - { offset: 0x52EE, size: 0x8, addend: 0x0, symName: __ZNSt3__117__compressed_pairINS_12basic_stringIcNS_11char_traitsIcEENS_9allocatorIcEEE5__repES5_E6secondB8ne180100Ev, symObjAddr: 0x1F80, symBinAddr: 0x100002A80, symSize: 0x24 }
  - { offset: 0x5312, size: 0x8, addend: 0x0, symName: __ZNSt3__122__compressed_pair_elemINS_9allocatorIcEELi1ELb1EE5__getB8ne180100Ev, symObjAddr: 0x1FA4, symBinAddr: 0x100002AA4, symSize: 0x14 }
  - { offset: 0x5336, size: 0x8, addend: 0x0, symName: __ZNSt3__112basic_stringIcNS_11char_traitsIcEENS_9allocatorIcEEE10__align_itB8ne180100ILm8EEEmm, symObjAddr: 0x1FB8, symBinAddr: 0x100002AB8, symSize: 0x1C }
  - { offset: 0x5363, size: 0x8, addend: 0x0, symName: __ZNKSt3__117__compressed_pairINS_12basic_stringIcNS_11char_traitsIcEENS_9allocatorIcEEE5__repES5_E5firstB8ne180100Ev, symObjAddr: 0x1FD4, symBinAddr: 0x100002AD4, symSize: 0x24 }
  - { offset: 0x5387, size: 0x8, addend: 0x0, symName: __ZNKSt3__122__compressed_pair_elemINS_12basic_stringIcNS_11char_traitsIcEENS_9allocatorIcEEE5__repELi0ELb0EE5__getB8ne180100Ev, symObjAddr: 0x1FF8, symBinAddr: 0x100002AF8, symSize: 0x14 }
  - { offset: 0x53AB, size: 0x8, addend: 0x0, symName: __ZNSt3__19allocatorIcE10deallocateB8ne180100EPcm, symObjAddr: 0x200C, symBinAddr: 0x100002B0C, symSize: 0x40 }
  - { offset: 0x77C7, size: 0x8, addend: 0x0, symName: __ZL24register_test_new_editor, symObjAddr: 0x6A0A2, symBinAddr: 0x100014000, symSize: 0x0 }
  - { offset: 0x10643, size: 0x8, addend: 0x0, symName: __ZNSt3__124__put_character_sequenceB8ne180100IcNS_11char_traitsIcEEEERNS_13basic_ostreamIT_T0_EES7_PKS4_m, symObjAddr: 0x4B20, symBinAddr: 0x100007430, symSize: 0x1EC }
  - { offset: 0x11000, size: 0x8, addend: 0x0, symName: __ZNSt3__1ltB8ne180100IcNS_11char_traitsIcEENS_9allocatorIcEEEEbRKNS_12basic_stringIT_T0_T1_EESB_, symObjAddr: 0x2854, symBinAddr: 0x1000054A8, symSize: 0x38 }
  - { offset: 0x11058, size: 0x8, addend: 0x0, symName: __ZNSt3__13minB8ne180100ImEERKT_S3_S3_, symObjAddr: 0x2B34, symBinAddr: 0x100005788, symSize: 0x2C }
  - { offset: 0x1109C, size: 0x8, addend: 0x0, symName: __ZNSt3__112__to_addressB8ne180100IKcEEPT_S3_, symObjAddr: 0x2C3C, symBinAddr: 0x100005810, symSize: 0x14 }
  - { offset: 0x11104, size: 0x8, addend: 0x0, symName: __ZNSt3__13minB8ne180100ImNS_6__lessIvvEEEERKT_S5_S5_T0_, symObjAddr: 0x2D08, symBinAddr: 0x1000058DC, symSize: 0x54 }
  - { offset: 0x111A5, size: 0x8, addend: 0x0, symName: __ZNSt3__17launderB8ne180100IKNS_4pairIKNS_12basic_stringIcNS_11char_traitsIcEENS_9allocatorIcEEEEN19unit_test_framework8TestCaseEEEEEPT_SE_, symObjAddr: 0x2DF8, symBinAddr: 0x1000059CC, symSize: 0x24 }
  - { offset: 0x111DC, size: 0x8, addend: 0x0, symName: __ZNSt3__19__launderB8ne180100IKNS_4pairIKNS_12basic_stringIcNS_11char_traitsIcEENS_9allocatorIcEEEEN19unit_test_framework8TestCaseEEEEEPT_SE_, symObjAddr: 0x2E1C, symBinAddr: 0x1000059F0, symSize: 0x14 }
  - { offset: 0x11231, size: 0x8, addend: 0x0, symName: __ZNSt3__17launderB8ne180100INS_4pairIKNS_12basic_stringIcNS_11char_traitsIcEENS_9allocatorIcEEEEN19unit_test_framework8TestCaseEEEEEPT_SD_, symObjAddr: 0x35F8, symBinAddr: 0x10000607C, symSize: 0x24 }
  - { offset: 0x11268, size: 0x8, addend: 0x0, symName: __ZNSt3__19__launderB8ne180100INS_4pairIKNS_12basic_stringIcNS_11char_traitsIcEENS_9allocatorIcEEEEN19unit_test_framework8TestCaseEEEEEPT_SD_, symObjAddr: 0x361C, symBinAddr: 0x1000060A0, symSize: 0x14 }
  - { offset: 0x1129F, size: 0x8, addend: 0x0, symName: __ZNSt3__127__tree_balance_after_insertB8ne180100IPNS_16__tree_node_baseIPvEEEEvT_S5_, symObjAddr: 0x36B8, symBinAddr: 0x10000613C, symSize: 0x32C }
  - { offset: 0x1131C, size: 0x8, addend: 0x0, symName: __ZNSt3__120__tree_is_left_childB8ne180100IPNS_16__tree_node_baseIPvEEEEbT_, symObjAddr: 0x3A24, symBinAddr: 0x1000064A8, symSize: 0x2C }
  - { offset: 0x11352, size: 0x8, addend: 0x0, symName: __ZNSt3__118__tree_left_rotateB8ne180100IPNS_16__tree_node_baseIPvEEEEvT_, symObjAddr: 0x3A50, symBinAddr: 0x1000064D4, symSize: 0xD8 }
  - { offset: 0x11391, size: 0x8, addend: 0x0, symName: __ZNSt3__119__tree_right_rotateB8ne180100IPNS_16__tree_node_baseIPvEEEEvT_, symObjAddr: 0x3B28, symBinAddr: 0x1000065AC, symSize: 0xCC }
  - { offset: 0x113D4, size: 0x8, addend: 0x0, symName: __ZNSt3__112__destroy_atB8ne180100INS_4pairIKNS_12basic_stringIcNS_11char_traitsIcEENS_9allocatorIcEEEEN19unit_test_framework8TestCaseEEELi0EEEvPT_, symObjAddr: 0x3E20, symBinAddr: 0x1000068A4, symSize: 0x24 }
  - { offset: 0x11790, size: 0x8, addend: 0x0, symName: __ZNSt3__1lsB8ne180100INS_11char_traitsIcEEEERNS_13basic_ostreamIcT_EES6_PKc, symObjAddr: 0x4860, symBinAddr: 0x100007170, symSize: 0x48 }
  - { offset: 0x117E1, size: 0x8, addend: 0x0, symName: __ZNSt3__116__pad_and_outputB8ne180100IcNS_11char_traitsIcEEEENS_19ostreambuf_iteratorIT_T0_EES6_PKS4_S8_S8_RNS_8ios_baseES4_, symObjAddr: 0x4D5C, symBinAddr: 0x10000766C, symSize: 0x240 }
  - { offset: 0x118B2, size: 0x8, addend: 0x0, symName: __ZNSt3__112__to_addressB8ne180100IcEEPT_S2_, symObjAddr: 0x5258, symBinAddr: 0x100007ADC, symSize: 0x14 }
  - { offset: 0x118E7, size: 0x8, addend: 0x0, symName: __ZNSt3__19use_facetB8ne180100INS_5ctypeIcEEEERKT_RKNS_6localeE, symObjAddr: 0x5460, symBinAddr: 0x100007C80, symSize: 0x2C }
  - { offset: 0x11DBE, size: 0x8, addend: 0x0, symName: __ZNSt3__118__constexpr_strlenB8ne180100EPKc, symObjAddr: 0x54F8, symBinAddr: 0x100007D18, symSize: 0x24 }
  - { offset: 0x11DEA, size: 0x8, addend: 0x0, symName: __ZNSt3__1eqB8ne180100IcNS_11char_traitsIcEENS_9allocatorIcEEEEbRKNS_12basic_stringIT_T0_T1_EEPKS6_, symObjAddr: 0x5828, symBinAddr: 0x100008048, symSize: 0xAC }
  - { offset: 0x11E51, size: 0x8, addend: 0x0, symName: __ZNSt3__1lsB8ne180100IcNS_11char_traitsIcEENS_9allocatorIcEEEERNS_13basic_ostreamIT_T0_EES9_RKNS_12basic_stringIS6_S7_T1_EE, symObjAddr: 0x5908, symBinAddr: 0x100008128, symSize: 0x4C }
  - { offset: 0x11EAA, size: 0x8, addend: 0x0, symName: __ZNSt3__15beginB8ne180100IKcLm1EEEPT_RAT0__S2_, symObjAddr: 0x5B04, symBinAddr: 0x100008324, symSize: 0x14 }
  - { offset: 0x11EEA, size: 0x8, addend: 0x0, symName: __ZNSt3__13endB8ne180100IKcLm1EEEPT_RAT0__S2_, symObjAddr: 0x5B18, symBinAddr: 0x100008338, symSize: 0x18 }
  - { offset: 0x11F29, size: 0x8, addend: 0x0, symName: __ZNSt3__1lsB8ne180100INS_11char_traitsIcEEEERNS_13basic_ostreamIcT_EES6_c, symObjAddr: 0x5B9C, symBinAddr: 0x1000083BC, symSize: 0x34 }
  - { offset: 0x11F70, size: 0x8, addend: 0x0, symName: __ZNSt3__15beginB8ne180100IKcLm4EEEPT_RAT0__S2_, symObjAddr: 0x6494, symBinAddr: 0x100008B1C, symSize: 0x14 }
  - { offset: 0x11FB0, size: 0x8, addend: 0x0, symName: __ZNSt3__13endB8ne180100IKcLm4EEEPT_RAT0__S2_, symObjAddr: 0x64A8, symBinAddr: 0x100008B30, symSize: 0x18 }
  - { offset: 0x11FF0, size: 0x8, addend: 0x0, symName: __ZNSt3__15beginB8ne180100IKcLm3EEEPT_RAT0__S2_, symObjAddr: 0x6704, symBinAddr: 0x100008D8C, symSize: 0x14 }
  - { offset: 0x12030, size: 0x8, addend: 0x0, symName: __ZNSt3__13endB8ne180100IKcLm3EEEPT_RAT0__S2_, symObjAddr: 0x6718, symBinAddr: 0x100008DA0, symSize: 0x18 }
  - { offset: 0x12070, size: 0x8, addend: 0x0, symName: __ZNSt3__15beginB8ne180100IKcLm10EEEPT_RAT0__S2_, symObjAddr: 0x6C8C, symBinAddr: 0x100009314, symSize: 0x14 }
  - { offset: 0x120B0, size: 0x8, addend: 0x0, symName: __ZNSt3__13endB8ne180100IKcLm10EEEPT_RAT0__S2_, symObjAddr: 0x6CA0, symBinAddr: 0x100009328, symSize: 0x18 }
  - { offset: 0x120EF, size: 0x8, addend: 0x0, symName: __ZNSt3__14endlB8ne180100IcNS_11char_traitsIcEEEERNS_13basic_ostreamIT_T0_EES7_, symObjAddr: 0x7180, symBinAddr: 0x100009808, symSize: 0x58 }
  - { offset: 0x1212F, size: 0x8, addend: 0x0, symName: __ZNSt3__1neB8ne180100IPNS_12basic_stringIcNS_11char_traitsIcEENS_9allocatorIcEEEEEEbRKNS_11__wrap_iterIT_EESC_, symObjAddr: 0x7A68, symBinAddr: 0x10000A0F0, symSize: 0x34 }
  - { offset: 0x12172, size: 0x8, addend: 0x0, symName: __ZNSt3__1eqB8ne180100ERKNS_14__map_iteratorINS_15__tree_iteratorINS_12__value_typeINS_12basic_stringIcNS_11char_traitsIcEENS_9allocatorIcEEEEN19unit_test_framework8TestCaseEEEPNS_11__tree_nodeISB_PvEElEEEESJ_, symObjAddr: 0x7AB4, symBinAddr: 0x10000A13C, symSize: 0x30 }
  - { offset: 0x121AF, size: 0x8, addend: 0x0, symName: __ZNSt3__13endB8ne180100INS_3mapINS_12basic_stringIcNS_11char_traitsIcEENS_9allocatorIcEEEEN19unit_test_framework8TestCaseENS_4lessIS7_EENS5_INS_4pairIKS7_S9_EEEEEEEEDTcldtfp_3endEERT_, symObjAddr: 0x7B24, symBinAddr: 0x10000A1AC, symSize: 0x2C }
  - { offset: 0x121E4, size: 0x8, addend: 0x0, symName: __ZNSt3__1plB8ne180100IcNS_11char_traitsIcEENS_9allocatorIcEEEENS_12basic_stringIT_T0_T1_EEOS9_PKS6_, symObjAddr: 0x7B50, symBinAddr: 0x10000A1D8, symSize: 0x40 }
  - { offset: 0x1223C, size: 0x8, addend: 0x0, symName: __ZNSt3__18count_ifB8ne180100INS_14__map_iteratorINS_15__tree_iteratorINS_12__value_typeINS_12basic_stringIcNS_11char_traitsIcEENS_9allocatorIcEEEEN19unit_test_framework8TestCaseEEEPNS_11__tree_nodeISC_PvEElEEEEZNSA_9TestSuite9run_testsEiPPcEUlNS_4pairIS9_SB_EEE_EENS_15iterator_traitsIT_E15difference_typeESQ_SQ_T0_, symObjAddr: 0x8104, symBinAddr: 0x10000A78C, symSize: 0xC4 }
  - { offset: 0x122A4, size: 0x8, addend: 0x0, symName: __ZNSt3__18count_ifB8ne180100INS_14__map_iteratorINS_15__tree_iteratorINS_12__value_typeINS_12basic_stringIcNS_11char_traitsIcEENS_9allocatorIcEEEEN19unit_test_framework8TestCaseEEEPNS_11__tree_nodeISC_PvEElEEEEZNSA_9TestSuite9run_testsEiPPcEUlNS_4pairIS9_SB_EEE0_EENS_15iterator_traitsIT_E15difference_typeESQ_SQ_T0_, symObjAddr: 0x8238, symBinAddr: 0x10000A8C0, symSize: 0xC4 }
  - { offset: 0x1230C, size: 0x8, addend: 0x0, symName: __ZNSt3__1eqB8ne180100IcNS_11char_traitsIcEENS_9allocatorIcEEEEbPKT_RKNS_12basic_stringIS5_T0_T1_EE, symObjAddr: 0x84CC, symBinAddr: 0x10000AB54, symSize: 0xAC }
  - { offset: 0x12373, size: 0x8, addend: 0x0, symName: __ZNSt3__15flushB8ne180100IcNS_11char_traitsIcEEEERNS_13basic_ostreamIT_T0_EES7_, symObjAddr: 0x8604, symBinAddr: 0x10000AC8C, symSize: 0x28 }
  - { offset: 0x123B3, size: 0x8, addend: 0x0, symName: __ZNSt3__19transformB8ne180100INS_14__map_iteratorINS_15__tree_iteratorINS_12__value_typeINS_12basic_stringIcNS_11char_traitsIcEENS_9allocatorIcEEEEN19unit_test_framework8TestCaseEEEPNS_11__tree_nodeISC_PvEElEEEENS_20back_insert_iteratorINS_6vectorIS9_NS7_IS9_EEEEEEZNSA_9TestSuite21get_test_names_to_runEiPPcEUlRKNS_4pairIS9_SB_EEE_EET0_T_SX_SW_T1_, symObjAddr: 0x8760, symBinAddr: 0x10000ADE8, symSize: 0x104 }
  - { offset: 0x12424, size: 0x8, addend: 0x0, symName: __ZNSt3__15beginB8ne180100INS_3mapINS_12basic_stringIcNS_11char_traitsIcEENS_9allocatorIcEEEEN19unit_test_framework8TestCaseENS_4lessIS7_EENS5_INS_4pairIKS7_S9_EEEEEEEEDTcldtfp_5beginEERT_, symObjAddr: 0x8864, symBinAddr: 0x10000AEEC, symSize: 0x2C }
  - { offset: 0x12459, size: 0x8, addend: 0x0, symName: __ZNSt3__113back_inserterB8ne180100INS_6vectorINS_12basic_stringIcNS_11char_traitsIcEENS_9allocatorIcEEEENS5_IS7_EEEEEENS_20back_insert_iteratorIT_EERSB_, symObjAddr: 0x8890, symBinAddr: 0x10000AF18, symSize: 0x2C }
  - { offset: 0x1248E, size: 0x8, addend: 0x0, symName: __ZNSt3__1neB8ne180100ERKNS_14__map_iteratorINS_15__tree_iteratorINS_12__value_typeINS_12basic_stringIcNS_11char_traitsIcEENS_9allocatorIcEEEEN19unit_test_framework8TestCaseEEEPNS_11__tree_nodeISB_PvEElEEEESJ_, symObjAddr: 0x88BC, symBinAddr: 0x10000AF44, symSize: 0x30 }
  - { offset: 0x124CB, size: 0x8, addend: 0x0, symName: __ZNSt3__1neB8ne180100ERKNS_15__tree_iteratorINS_12__value_typeINS_12basic_stringIcNS_11char_traitsIcEENS_9allocatorIcEEEEN19unit_test_framework8TestCaseEEEPNS_11__tree_nodeISA_PvEElEESH_, symObjAddr: 0x8940, symBinAddr: 0x10000AFC8, symSize: 0x34 }
  - { offset: 0x12508, size: 0x8, addend: 0x0, symName: __ZNSt3__1eqB8ne180100ERKNS_15__tree_iteratorINS_12__value_typeINS_12basic_stringIcNS_11char_traitsIcEENS_9allocatorIcEEEEN19unit_test_framework8TestCaseEEEPNS_11__tree_nodeISA_PvEElEESH_, symObjAddr: 0x8974, symBinAddr: 0x10000AFFC, symSize: 0x30 }
  - { offset: 0x12578, size: 0x8, addend: 0x0, symName: __ZNSt3__116__tree_next_iterB8ne180100IPNS_15__tree_end_nodeIPNS_16__tree_node_baseIPvEEEES5_EET_T0_, symObjAddr: 0x8A34, symBinAddr: 0x10000B0BC, symSize: 0x80 }
  - { offset: 0x125B7, size: 0x8, addend: 0x0, symName: __ZNSt3__110__tree_minB8ne180100IPNS_16__tree_node_baseIPvEEEET_S5_, symObjAddr: 0x8AB4, symBinAddr: 0x10000B13C, symSize: 0x40 }
  - { offset: 0x125ED, size: 0x8, addend: 0x0, symName: __ZNSt3__112__to_addressB8ne180100INS_12basic_stringIcNS_11char_traitsIcEENS_9allocatorIcEEEEEEPT_S8_, symObjAddr: 0x8E2C, symBinAddr: 0x10000B4B4, symSize: 0x14 }
  - { offset: 0x12622, size: 0x8, addend: 0x0, symName: __ZNSt3__13maxB8ne180100ImEERKT_S3_S3_, symObjAddr: 0x9230, symBinAddr: 0x10000B8B8, symSize: 0x2C }
  - { offset: 0x1284F, size: 0x8, addend: 0x0, symName: __ZNSt3__13maxB8ne180100ImNS_6__lessIvvEEEERKT_S5_S5_T0_, symObjAddr: 0x9450, symBinAddr: 0x10000B9FC, symSize: 0x54 }
  - { offset: 0x128A9, size: 0x8, addend: 0x0, symName: __ZNSt3__119__allocate_at_leastB8ne180100INS_9allocatorINS_12basic_stringIcNS_11char_traitsIcEENS1_IcEEEEEEEENS_19__allocation_resultINS_16allocator_traitsIT_E7pointerEEERSA_m, symObjAddr: 0x95C0, symBinAddr: 0x10000BB6C, symSize: 0x40 }
  - { offset: 0x128EC, size: 0x8, addend: 0x0, symName: __ZNSt3__142__uninitialized_allocator_move_if_noexceptB8ne180100INS_9allocatorINS_12basic_stringIcNS_11char_traitsIcEENS1_IcEEEEEENS_16reverse_iteratorIPS6_EESA_SA_EET2_RT_T0_T1_SB_, symObjAddr: 0x9788, symBinAddr: 0x10000BD34, symSize: 0x12C }
  - { offset: 0x1298D, size: 0x8, addend: 0x0, symName: __ZNSt3__14swapB8ne180100IPNS_12basic_stringIcNS_11char_traitsIcEENS_9allocatorIcEEEEEENS_9enable_ifIXaasr21is_move_constructibleIT_EE5valuesr18is_move_assignableIS9_EE5valueEvE4typeERS9_SC_, symObjAddr: 0x9900, symBinAddr: 0x10000BEAC, symSize: 0x3C }
  - { offset: 0x129DE, size: 0x8, addend: 0x0, symName: __ZNSt3__122__make_exception_guardB8ne180100INS_29_AllocatorDestroyRangeReverseINS_9allocatorINS_12basic_stringIcNS_11char_traitsIcEENS2_IcEEEEEENS_16reverse_iteratorIPS7_EEEEEENS_28__exception_guard_exceptionsIT_EESE_, symObjAddr: 0x9950, symBinAddr: 0x10000BEFC, symSize: 0x4C }
  - { offset: 0x12A14, size: 0x8, addend: 0x0, symName: __ZNSt3__1neB8ne180100IPNS_12basic_stringIcNS_11char_traitsIcEENS_9allocatorIcEEEES7_EEbRKNS_16reverse_iteratorIT_EERKNS8_IT0_EE, symObjAddr: 0x99E0, symBinAddr: 0x10000BF8C, symSize: 0x48 }
  - { offset: 0x12A60, size: 0x8, addend: 0x0, symName: __ZNSt3__112__to_addressB8ne180100INS_16reverse_iteratorIPNS_12basic_stringIcNS_11char_traitsIcEENS_9allocatorIcEEEEEEvEEu7__decayIDTclsr19__to_address_helperIT_EE6__callclsr3stdE7declvalIRKSA_EEEEESC_, symObjAddr: 0x9A28, symBinAddr: 0x10000BFD4, symSize: 0x24 }
  - { offset: 0x12AC0, size: 0x8, addend: 0x0, symName: __ZNSt3__119__allocator_destroyB8ne180100INS_9allocatorINS_12basic_stringIcNS_11char_traitsIcEENS1_IcEEEEEENS_16reverse_iteratorINS8_IPS6_EEEESB_EEvRT_T0_T1_, symObjAddr: 0x9CD8, symBinAddr: 0x10000C284, symSize: 0x70 }
  - { offset: 0x12B25, size: 0x8, addend: 0x0, symName: __ZNSt3__1neB8ne180100INS_16reverse_iteratorIPNS_12basic_stringIcNS_11char_traitsIcEENS_9allocatorIcEEEEEES9_EEbRKNS1_IT_EERKNS1_IT0_EE, symObjAddr: 0x9D84, symBinAddr: 0x10000C330, symSize: 0x60 }
  - { offset: 0x12B71, size: 0x8, addend: 0x0, symName: __ZNSt3__112__to_addressB8ne180100INS_16reverse_iteratorINS1_IPNS_12basic_stringIcNS_11char_traitsIcEENS_9allocatorIcEEEEEEEEvEEu7__decayIDTclsr19__to_address_helperIT_EE6__callclsr3stdE7declvalIRKSB_EEEEESD_, symObjAddr: 0x9E10, symBinAddr: 0x10000C3BC, symSize: 0x24 }
  - { offset: 0x12CAC, size: 0x8, addend: 0x0, symName: __ZNSt3__1eqB8ne180100IPNS_12basic_stringIcNS_11char_traitsIcEENS_9allocatorIcEEEEEEbRKNS_11__wrap_iterIT_EESC_, symObjAddr: 0xA938, symBinAddr: 0x10000CEE4, symSize: 0x48 }
  - { offset: 0x12CEF, size: 0x8, addend: 0x0, symName: __ZNSt3__120__throw_out_of_rangeB8ne180100EPKc, symObjAddr: 0xABE4, symBinAddr: 0x10000D190, symSize: 0x64 }
  - { offset: 0x13D9B, size: 0x8, addend: 0x0, symName: __ZL20register_test_insert, symObjAddr: 0x6A0A3, symBinAddr: 0x100014001, symSize: 0x0 }
  - { offset: 0x13DB5, size: 0x8, addend: 0x0, symName: __ZL24register_test_insert_row, symObjAddr: 0x6A0A4, symBinAddr: 0x100014002, symSize: 0x0 }
  - { offset: 0x13DCF, size: 0x8, addend: 0x0, symName: __ZL24register_test_insert_col, symObjAddr: 0x6A0A5, symBinAddr: 0x100014003, symSize: 0x0 }
  - { offset: 0x13DE9, size: 0x8, addend: 0x0, symName: __ZL35register_test_insert_multiple_chars, symObjAddr: 0x6A0A6, symBinAddr: 0x100014004, symSize: 0x0 }
  - { offset: 0x13E03, size: 0x8, addend: 0x0, symName: __ZL28register_test_insert_newline, symObjAddr: 0x6A0A7, symBinAddr: 0x100014005, symSize: 0x0 }
  - { offset: 0x13E1D, size: 0x8, addend: 0x0, symName: __ZL20register_test_remove, symObjAddr: 0x6A0A8, symBinAddr: 0x100014006, symSize: 0x0 }
  - { offset: 0x13E37, size: 0x8, addend: 0x0, symName: __ZL31register_test_move_to_row_start, symObjAddr: 0x6A0A9, symBinAddr: 0x100014007, symSize: 0x0 }
  - { offset: 0x13E51, size: 0x8, addend: 0x0, symName: __ZL29register_test_move_to_row_end, symObjAddr: 0x6A0AA, symBinAddr: 0x100014008, symSize: 0x0 }
  - { offset: 0x13E6B, size: 0x8, addend: 0x0, symName: __ZL28register_test_move_to_column, symObjAddr: 0x6A0AB, symBinAddr: 0x100014009, symSize: 0x0 }
  - { offset: 0x13E85, size: 0x8, addend: 0x0, symName: __ZL16register_test_up, symObjAddr: 0x6A0AC, symBinAddr: 0x10001400A, symSize: 0x0 }
  - { offset: 0x13EAB, size: 0x8, addend: 0x0, symName: __ZL18register_test_down, symObjAddr: 0x6A0AD, symBinAddr: 0x10001400B, symSize: 0x0 }
  - { offset: 0x13EC5, size: 0x8, addend: 0x0, symName: __ZL18register_test_size, symObjAddr: 0x6A0AE, symBinAddr: 0x10001400C, symSize: 0x0 }
  - { offset: 0x13EDF, size: 0x8, addend: 0x0, symName: __ZL23register_test_is_at_end, symObjAddr: 0x6A0AF, symBinAddr: 0x10001400D, symSize: 0x0 }
  - { offset: 0x13EF9, size: 0x8, addend: 0x0, symName: __ZL23register_test_stringify, symObjAddr: 0x6A0B0, symBinAddr: 0x10001400E, symSize: 0x0 }
  - { offset: 0x13F13, size: 0x8, addend: 0x0, symName: __ZL9destroyer, symObjAddr: 0x6A0B1, symBinAddr: 0x10001400F, symSize: 0x0 }
  - { offset: 0x13F2C, size: 0x8, addend: 0x0, symName: __ZN19unit_test_framework9TestSuite10incompleteE, symObjAddr: 0x6A0B8, symBinAddr: 0x100014010, symSize: 0x0 }
  - { offset: 0x14774, size: 0x8, addend: 0x0, symName: __ZN19unit_test_framework9TestSuite8instanceE, symObjAddr: 0x6A0C0, symBinAddr: 0x100014018, symSize: 0x0 }
  - { offset: 0x147C8, size: 0x8, addend: 0x0, symName: __ZNSt3__16vectorINS_12basic_stringIcNS_11char_traitsIcEENS_9allocatorIcEEEENS4_IS6_EEE26__swap_out_circular_bufferERNS_14__split_bufferIS6_RS7_EE, symObjAddr: 0x9038, symBinAddr: 0x10000B6C0, symSize: 0x110 }
  - { offset: 0x148A4, size: 0x8, addend: 0x0, symName: __ZNSt3__112basic_stringIcNS_11char_traitsIcEENS_9allocatorIcEEEC1B8ne180100ILi0EEEPKc, symObjAddr: 0x0, symBinAddr: 0x100002C54, symSize: 0x34 }
  - { offset: 0x148E2, size: 0x8, addend: 0x0, symName: __ZL15test_new_editorv, symObjAddr: 0x34, symBinAddr: 0x100002C88, symSize: 0x178 }
  - { offset: 0x1490A, size: 0x8, addend: 0x0, symName: __ZN19unit_test_framework14TestRegistererC1ERKNSt3__112basic_stringIcNS1_11char_traitsIcEENS1_9allocatorIcEEEEPFvvE, symObjAddr: 0x1AC, symBinAddr: 0x100002E00, symSize: 0x3C }
  - { offset: 0x14951, size: 0x8, addend: 0x0, symName: __ZL11test_insertv, symObjAddr: 0x1E8, symBinAddr: 0x100002E3C, symSize: 0xA4 }
  - { offset: 0x1497A, size: 0x8, addend: 0x0, symName: __ZL15test_insert_rowv, symObjAddr: 0x28C, symBinAddr: 0x100002EE0, symSize: 0xE4 }
  - { offset: 0x149A3, size: 0x8, addend: 0x0, symName: __ZL15test_insert_colv, symObjAddr: 0x370, symBinAddr: 0x100002FC4, symSize: 0xE0 }
  - { offset: 0x149CC, size: 0x8, addend: 0x0, symName: __ZL26test_insert_multiple_charsv, symObjAddr: 0x450, symBinAddr: 0x1000030A4, symSize: 0x204 }
  - { offset: 0x149F5, size: 0x8, addend: 0x0, symName: __ZL19test_insert_newlinev, symObjAddr: 0x654, symBinAddr: 0x1000032A8, symSize: 0x1AC }
  - { offset: 0x14A1E, size: 0x8, addend: 0x0, symName: __ZL11test_removev, symObjAddr: 0x800, symBinAddr: 0x100003454, symSize: 0x228 }
  - { offset: 0x14A47, size: 0x8, addend: 0x0, symName: __ZL22test_move_to_row_startv, symObjAddr: 0xA28, symBinAddr: 0x10000367C, symSize: 0xFC }
  - { offset: 0x14A70, size: 0x8, addend: 0x0, symName: __ZL20test_move_to_row_endv, symObjAddr: 0xB24, symBinAddr: 0x100003778, symSize: 0x180 }
  - { offset: 0x14A99, size: 0x8, addend: 0x0, symName: __ZL19test_move_to_columnv, symObjAddr: 0xCA4, symBinAddr: 0x1000038F8, symSize: 0x380 }
  - { offset: 0x14B50, size: 0x8, addend: 0x0, symName: __ZL7test_upv, symObjAddr: 0x1024, symBinAddr: 0x100003C78, symSize: 0x1E4 }
  - { offset: 0x14BB1, size: 0x8, addend: 0x0, symName: __ZL9test_downv, symObjAddr: 0x1208, symBinAddr: 0x100003E5C, symSize: 0x184 }
  - { offset: 0x14C12, size: 0x8, addend: 0x0, symName: __ZL9test_sizev, symObjAddr: 0x138C, symBinAddr: 0x100003FE0, symSize: 0xD0 }
  - { offset: 0x14C3B, size: 0x8, addend: 0x0, symName: __ZL14test_is_at_endv, symObjAddr: 0x145C, symBinAddr: 0x1000040B0, symSize: 0xB4 }
  - { offset: 0x14C64, size: 0x8, addend: 0x0, symName: __ZL14test_stringifyv, symObjAddr: 0x1510, symBinAddr: 0x100004164, symSize: 0x16C }
  - { offset: 0x14C8D, size: 0x8, addend: 0x0, symName: _main, symObjAddr: 0x167C, symBinAddr: 0x1000042D0, symSize: 0x34 }
  - { offset: 0x14CC3, size: 0x8, addend: 0x0, symName: __ZN19unit_test_framework9TestSuite3getEv, symObjAddr: 0x16B0, symBinAddr: 0x100004304, symSize: 0x80 }
  - { offset: 0x14CD6, size: 0x8, addend: 0x0, symName: __ZN19unit_test_framework9TestSuite9run_testsEiPPc, symObjAddr: 0x1730, symBinAddr: 0x100004384, symSize: 0x694 }
  - { offset: 0x14E9D, size: 0x8, addend: 0x0, symName: __ZN19unit_test_framework18TestSuiteDestroyerD1Ev, symObjAddr: 0x1DC4, symBinAddr: 0x100004A18, symSize: 0x2C }
  - { offset: 0x14EC5, size: 0x8, addend: 0x0, symName: __ZN19unit_test_framework14TestRegistererC2ERKNSt3__112basic_stringIcNS1_11char_traitsIcEENS1_9allocatorIcEEEEPFvvE, symObjAddr: 0x1DF0, symBinAddr: 0x100004A44, symSize: 0x40 }
  - { offset: 0x14F0B, size: 0x8, addend: 0x0, symName: __ZN19unit_test_framework9TestSuite8add_testERKNSt3__112basic_stringIcNS1_11char_traitsIcEENS1_9allocatorIcEEEEPFvvE, symObjAddr: 0x1E30, symBinAddr: 0x100004A84, symSize: 0xD8 }
  - { offset: 0x14F4D, size: 0x8, addend: 0x0, symName: __ZNSt3__13mapINS_12basic_stringIcNS_11char_traitsIcEENS_9allocatorIcEEEEN19unit_test_framework8TestCaseENS_4lessIS6_EENS4_INS_4pairIKS6_S8_EEEEE6insertB8ne180100EOSD_, symObjAddr: 0x1F08, symBinAddr: 0x100004B5C, symSize: 0x4C }
  - { offset: 0x14F80, size: 0x8, addend: 0x0, symName: __ZN19unit_test_framework8TestCaseC1ERKNSt3__112basic_stringIcNS1_11char_traitsIcEENS1_9allocatorIcEEEEPFvvE, symObjAddr: 0x1F54, symBinAddr: 0x100004BA8, symSize: 0x3C }
  - { offset: 0x14FCB, size: 0x8, addend: 0x0, symName: __ZNSt3__14pairIKNS_12basic_stringIcNS_11char_traitsIcEENS_9allocatorIcEEEEN19unit_test_framework8TestCaseEEC1B8ne180100IRS7_S9_Li0EEEOT_OT0_, symObjAddr: 0x1F90, symBinAddr: 0x100004BE4, symSize: 0x3C }
  - { offset: 0x15027, size: 0x8, addend: 0x0, symName: __ZNSt3__14pairIKNS_12basic_stringIcNS_11char_traitsIcEENS_9allocatorIcEEEEN19unit_test_framework8TestCaseEED1Ev, symObjAddr: 0x1FCC, symBinAddr: 0x100004C20, symSize: 0x2C }
  - { offset: 0x15052, size: 0x8, addend: 0x0, symName: __ZN19unit_test_framework8TestCaseD1Ev, symObjAddr: 0x1FF8, symBinAddr: 0x100004C4C, symSize: 0x2C }
  - { offset: 0x1507D, size: 0x8, addend: 0x0, symName: __ZNSt3__16__treeINS_12__value_typeINS_12basic_stringIcNS_11char_traitsIcEENS_9allocatorIcEEEEN19unit_test_framework8TestCaseEEENS_19__map_value_compareIS7_SA_NS_4lessIS7_EELb1EEENS5_ISA_EEE15__insert_uniqueB8ne180100EONS_4pairIKS7_S9_EE, symObjAddr: 0x2024, symBinAddr: 0x100004C78, symSize: 0x50 }
  - { offset: 0x150B0, size: 0x8, addend: 0x0, symName: __ZNSt3__14pairINS_14__map_iteratorINS_15__tree_iteratorINS_12__value_typeINS_12basic_stringIcNS_11char_traitsIcEENS_9allocatorIcEEEEN19unit_test_framework8TestCaseEEEPNS_11__tree_nodeISC_PvEElEEEEbEC1B8ne180100ISH_bLi0EEEONS0_IT_T0_EE, symObjAddr: 0x2074, symBinAddr: 0x100004CC8, symSize: 0x34 }
  - { offset: 0x150FE, size: 0x8, addend: 0x0, symName: __ZNSt3__16__treeINS_12__value_typeINS_12basic_stringIcNS_11char_traitsIcEENS_9allocatorIcEEEEN19unit_test_framework8TestCaseEEENS_19__map_value_compareIS7_SA_NS_4lessIS7_EELb1EEENS5_ISA_EEE25__emplace_unique_key_argsIS7_JNS_4pairIKS7_S9_EEEEENSI_INS_15__tree_iteratorISA_PNS_11__tree_nodeISA_PvEElEEbEERKT_DpOT0_, symObjAddr: 0x20A8, symBinAddr: 0x100004CFC, symSize: 0xF0 }
  - { offset: 0x151A9, size: 0x8, addend: 0x0, symName: __ZNSt3__122__tree_key_value_typesINS_12__value_typeINS_12basic_stringIcNS_11char_traitsIcEENS_9allocatorIcEEEEN19unit_test_framework8TestCaseEEEE9__get_keyB8ne180100INS_4pairIKS7_S9_EELi0EEERSE_RT_, symObjAddr: 0x2198, symBinAddr: 0x100004DEC, symSize: 0x14 }
  - { offset: 0x151DB, size: 0x8, addend: 0x0, symName: __ZNSt3__16__treeINS_12__value_typeINS_12basic_stringIcNS_11char_traitsIcEENS_9allocatorIcEEEEN19unit_test_framework8TestCaseEEENS_19__map_value_compareIS7_SA_NS_4lessIS7_EELb1EEENS5_ISA_EEE12__find_equalIS7_EERPNS_16__tree_node_baseIPvEERPNS_15__tree_end_nodeISL_EERKT_, symObjAddr: 0x21AC, symBinAddr: 0x100004E00, symSize: 0x184 }
  - { offset: 0x15246, size: 0x8, addend: 0x0, symName: __ZNSt3__16__treeINS_12__value_typeINS_12basic_stringIcNS_11char_traitsIcEENS_9allocatorIcEEEEN19unit_test_framework8TestCaseEEENS_19__map_value_compareIS7_SA_NS_4lessIS7_EELb1EEENS5_ISA_EEE16__construct_nodeIJNS_4pairIKS7_S9_EEEEENS_10unique_ptrINS_11__tree_nodeISA_PvEENS_22__tree_node_destructorINS5_ISO_EEEEEEDpOT_, symObjAddr: 0x2330, symBinAddr: 0x100004F84, symSize: 0x110 }
  - { offset: 0x152A5, size: 0x8, addend: 0x0, symName: __ZNSt3__16__treeINS_12__value_typeINS_12basic_stringIcNS_11char_traitsIcEENS_9allocatorIcEEEEN19unit_test_framework8TestCaseEEENS_19__map_value_compareIS7_SA_NS_4lessIS7_EELb1EEENS5_ISA_EEE16__insert_node_atEPNS_15__tree_end_nodeIPNS_16__tree_node_baseIPvEEEERSL_SL_, symObjAddr: 0x2440, symBinAddr: 0x100005094, symSize: 0xCC }
  - { offset: 0x152F8, size: 0x8, addend: 0x0, symName: __ZNKSt3__110unique_ptrINS_11__tree_nodeINS_12__value_typeINS_12basic_stringIcNS_11char_traitsIcEENS_9allocatorIcEEEEN19unit_test_framework8TestCaseEEEPvEENS_22__tree_node_destructorINS6_ISD_EEEEE3getB8ne180100Ev, symObjAddr: 0x250C, symBinAddr: 0x100005160, symSize: 0x28 }
  - { offset: 0x1531C, size: 0x8, addend: 0x0, symName: __ZNSt3__110unique_ptrINS_11__tree_nodeINS_12__value_typeINS_12basic_stringIcNS_11char_traitsIcEENS_9allocatorIcEEEEN19unit_test_framework8TestCaseEEEPvEENS_22__tree_node_destructorINS6_ISD_EEEEE7releaseB8ne180100Ev, symObjAddr: 0x2534, symBinAddr: 0x100005188, symSize: 0x44 }
  - { offset: 0x1534F, size: 0x8, addend: 0x0, symName: __ZNSt3__110unique_ptrINS_11__tree_nodeINS_12__value_typeINS_12basic_stringIcNS_11char_traitsIcEENS_9allocatorIcEEEEN19unit_test_framework8TestCaseEEEPvEENS_22__tree_node_destructorINS6_ISD_EEEEED1B8ne180100Ev, symObjAddr: 0x2578, symBinAddr: 0x1000051CC, symSize: 0x2C }
  - { offset: 0x15377, size: 0x8, addend: 0x0, symName: __ZNSt3__115__tree_iteratorINS_12__value_typeINS_12basic_stringIcNS_11char_traitsIcEENS_9allocatorIcEEEEN19unit_test_framework8TestCaseEEEPNS_11__tree_nodeISA_PvEElEC1B8ne180100ESE_, symObjAddr: 0x25A4, symBinAddr: 0x1000051F8, symSize: 0x34 }
  - { offset: 0x153B8, size: 0x8, addend: 0x0, symName: __ZNSt3__14pairINS_15__tree_iteratorINS_12__value_typeINS_12basic_stringIcNS_11char_traitsIcEENS_9allocatorIcEEEEN19unit_test_framework8TestCaseEEEPNS_11__tree_nodeISB_PvEElEEbEC1B8ne180100ISG_RbLi0EEEOT_OT0_, symObjAddr: 0x25D8, symBinAddr: 0x10000522C, symSize: 0x3C }
  - { offset: 0x15414, size: 0x8, addend: 0x0, symName: __ZNKSt3__16__treeINS_12__value_typeINS_12basic_stringIcNS_11char_traitsIcEENS_9allocatorIcEEEEN19unit_test_framework8TestCaseEEENS_19__map_value_compareIS7_SA_NS_4lessIS7_EELb1EEENS5_ISA_EEE6__rootB8ne180100Ev, symObjAddr: 0x2614, symBinAddr: 0x100005268, symSize: 0x28 }
  - { offset: 0x15438, size: 0x8, addend: 0x0, symName: __ZNKSt3__16__treeINS_12__value_typeINS_12basic_stringIcNS_11char_traitsIcEENS_9allocatorIcEEEEN19unit_test_framework8TestCaseEEENS_19__map_value_compareIS7_SA_NS_4lessIS7_EELb1EEENS5_ISA_EEE10__root_ptrB8ne180100Ev, symObjAddr: 0x263C, symBinAddr: 0x100005290, symSize: 0x24 }
  - { offset: 0x1545C, size: 0x8, addend: 0x0, symName: __ZNSt3__16__treeINS_12__value_typeINS_12basic_stringIcNS_11char_traitsIcEENS_9allocatorIcEEEEN19unit_test_framework8TestCaseEEENS_19__map_value_compareIS7_SA_NS_4lessIS7_EELb1EEENS5_ISA_EEE10value_compB8ne180100Ev, symObjAddr: 0x2660, symBinAddr: 0x1000052B4, symSize: 0x28 }
  - { offset: 0x15480, size: 0x8, addend: 0x0, symName: __ZNKSt3__119__map_value_compareINS_12basic_stringIcNS_11char_traitsIcEENS_9allocatorIcEEEENS_12__value_typeIS6_N19unit_test_framework8TestCaseEEENS_4lessIS6_EELb1EEclB8ne180100ERKS6_RKSA_, symObjAddr: 0x2688, symBinAddr: 0x1000052DC, symSize: 0x50 }
  - { offset: 0x154C2, size: 0x8, addend: 0x0, symName: __ZNKSt3__119__map_value_compareINS_12basic_stringIcNS_11char_traitsIcEENS_9allocatorIcEEEENS_12__value_typeIS6_N19unit_test_framework8TestCaseEEENS_4lessIS6_EELb1EEclB8ne180100ERKSA_RKS6_, symObjAddr: 0x26D8, symBinAddr: 0x10000532C, symSize: 0x48 }
  - { offset: 0x15504, size: 0x8, addend: 0x0, symName: __ZNSt3__16__treeINS_12__value_typeINS_12basic_stringIcNS_11char_traitsIcEENS_9allocatorIcEEEEN19unit_test_framework8TestCaseEEENS_19__map_value_compareIS7_SA_NS_4lessIS7_EELb1EEENS5_ISA_EEE10__end_nodeB8ne180100Ev, symObjAddr: 0x2720, symBinAddr: 0x100005374, symSize: 0x2C }
  - { offset: 0x15528, size: 0x8, addend: 0x0, symName: __ZNKSt3__16__treeINS_12__value_typeINS_12basic_stringIcNS_11char_traitsIcEENS_9allocatorIcEEEEN19unit_test_framework8TestCaseEEENS_19__map_value_compareIS7_SA_NS_4lessIS7_EELb1EEENS5_ISA_EEE10__end_nodeB8ne180100Ev, symObjAddr: 0x274C, symBinAddr: 0x1000053A0, symSize: 0x2C }
  - { offset: 0x1554C, size: 0x8, addend: 0x0, symName: __ZNSt3__114pointer_traitsIPNS_15__tree_end_nodeIPNS_16__tree_node_baseIPvEEEEE10pointer_toB8ne180100ERS6_, symObjAddr: 0x2778, symBinAddr: 0x1000053CC, symSize: 0x14 }
  - { offset: 0x1556E, size: 0x8, addend: 0x0, symName: __ZNKSt3__117__compressed_pairINS_15__tree_end_nodeIPNS_16__tree_node_baseIPvEEEENS_9allocatorINS_11__tree_nodeINS_12__value_typeINS_12basic_stringIcNS_11char_traitsIcEENS7_IcEEEEN19unit_test_framework8TestCaseEEES3_EEEEE5firstB8ne180100Ev, symObjAddr: 0x278C, symBinAddr: 0x1000053E0, symSize: 0x24 }
  - { offset: 0x15592, size: 0x8, addend: 0x0, symName: __ZNKSt3__122__compressed_pair_elemINS_15__tree_end_nodeIPNS_16__tree_node_baseIPvEEEELi0ELb0EE5__getB8ne180100Ev, symObjAddr: 0x27B0, symBinAddr: 0x100005404, symSize: 0x14 }
  - { offset: 0x155B6, size: 0x8, addend: 0x0, symName: __ZNSt3__117__compressed_pairImNS_19__map_value_compareINS_12basic_stringIcNS_11char_traitsIcEENS_9allocatorIcEEEENS_12__value_typeIS7_N19unit_test_framework8TestCaseEEENS_4lessIS7_EELb1EEEE6secondB8ne180100Ev, symObjAddr: 0x27C4, symBinAddr: 0x100005418, symSize: 0x24 }
  - { offset: 0x155DA, size: 0x8, addend: 0x0, symName: __ZNSt3__122__compressed_pair_elemINS_19__map_value_compareINS_12basic_stringIcNS_11char_traitsIcEENS_9allocatorIcEEEENS_12__value_typeIS7_N19unit_test_framework8TestCaseEEENS_4lessIS7_EELb1EEELi1ELb1EE5__getB8ne180100Ev, symObjAddr: 0x27E8, symBinAddr: 0x10000543C, symSize: 0x14 }
  - { offset: 0x155FE, size: 0x8, addend: 0x0, symName: __ZNKSt3__14lessINS_12basic_stringIcNS_11char_traitsIcEENS_9allocatorIcEEEEEclB8ne180100ERKS6_S9_, symObjAddr: 0x27FC, symBinAddr: 0x100005450, symSize: 0x34 }
  - { offset: 0x15640, size: 0x8, addend: 0x0, symName: __ZNKSt3__112__value_typeINS_12basic_stringIcNS_11char_traitsIcEENS_9allocatorIcEEEEN19unit_test_framework8TestCaseEE11__get_valueB8ne180100Ev, symObjAddr: 0x2830, symBinAddr: 0x100005484, symSize: 0x24 }
  - { offset: 0x15664, size: 0x8, addend: 0x0, symName: __ZNKSt3__112basic_stringIcNS_11char_traitsIcEENS_9allocatorIcEEE7compareB8ne180100ERKS5_, symObjAddr: 0x288C, symBinAddr: 0x1000054E0, symSize: 0x4C }
  - { offset: 0x15699, size: 0x8, addend: 0x0, symName: __ZNKSt3__112basic_stringIcNS_11char_traitsIcEENS_9allocatorIcEEE7compareINS_17basic_string_viewIcS2_EELi0EEEiRKT_, symObjAddr: 0x28D8, symBinAddr: 0x10000552C, symSize: 0x12C }
  - { offset: 0x1571A, size: 0x8, addend: 0x0, symName: __ZNKSt3__112basic_stringIcNS_11char_traitsIcEENS_9allocatorIcEEEcvNS_17basic_string_viewIcS2_EEB8ne180100Ev, symObjAddr: 0x2A04, symBinAddr: 0x100005658, symSize: 0x50 }
  - { offset: 0x1573E, size: 0x8, addend: 0x0, symName: __ZNKSt3__112basic_stringIcNS_11char_traitsIcEENS_9allocatorIcEEE4sizeB8ne180100Ev, symObjAddr: 0x2A54, symBinAddr: 0x1000056A8, symSize: 0x54 }
  - { offset: 0x15762, size: 0x8, addend: 0x0, symName: __ZNKSt3__117basic_string_viewIcNS_11char_traitsIcEEE4sizeB8ne180100Ev, symObjAddr: 0x2AA8, symBinAddr: 0x1000056FC, symSize: 0x18 }
  - { offset: 0x15786, size: 0x8, addend: 0x0, symName: __ZNSt3__111char_traitsIcE7compareB8ne180100EPKcS3_m, symObjAddr: 0x2AC0, symBinAddr: 0x100005714, symSize: 0x34 }
  - { offset: 0x157C4, size: 0x8, addend: 0x0, symName: __ZNKSt3__112basic_stringIcNS_11char_traitsIcEENS_9allocatorIcEEE4dataB8ne180100Ev, symObjAddr: 0x2AF4, symBinAddr: 0x100005748, symSize: 0x28 }
  - { offset: 0x157E8, size: 0x8, addend: 0x0, symName: __ZNKSt3__117basic_string_viewIcNS_11char_traitsIcEEE4dataB8ne180100Ev, symObjAddr: 0x2B1C, symBinAddr: 0x100005770, symSize: 0x18 }
  - { offset: 0x1580C, size: 0x8, addend: 0x0, symName: __ZNKSt3__112basic_stringIcNS_11char_traitsIcEENS_9allocatorIcEEE15__get_long_sizeB8ne180100Ev, symObjAddr: 0x2BA8, symBinAddr: 0x1000057B4, symSize: 0x28 }
  - { offset: 0x15830, size: 0x8, addend: 0x0, symName: __ZNKSt3__112basic_stringIcNS_11char_traitsIcEENS_9allocatorIcEEE16__get_short_sizeB8ne180100Ev, symObjAddr: 0x2BD0, symBinAddr: 0x1000057DC, symSize: 0x34 }
  - { offset: 0x15854, size: 0x8, addend: 0x0, symName: __ZNKSt3__112basic_stringIcNS_11char_traitsIcEENS_9allocatorIcEEE13__get_pointerB8ne180100Ev, symObjAddr: 0x2C50, symBinAddr: 0x100005824, symSize: 0x54 }
  - { offset: 0x15878, size: 0x8, addend: 0x0, symName: __ZNKSt3__112basic_stringIcNS_11char_traitsIcEENS_9allocatorIcEEE18__get_long_pointerB8ne180100Ev, symObjAddr: 0x2CA4, symBinAddr: 0x100005878, symSize: 0x28 }
  - { offset: 0x1589C, size: 0x8, addend: 0x0, symName: __ZNKSt3__112basic_stringIcNS_11char_traitsIcEENS_9allocatorIcEEE19__get_short_pointerB8ne180100Ev, symObjAddr: 0x2CCC, symBinAddr: 0x1000058A0, symSize: 0x28 }
  - { offset: 0x158C0, size: 0x8, addend: 0x0, symName: __ZNSt3__114pointer_traitsIPKcE10pointer_toB8ne180100ERS1_, symObjAddr: 0x2CF4, symBinAddr: 0x1000058C8, symSize: 0x14 }
  - { offset: 0x158EC, size: 0x8, addend: 0x0, symName: __ZNKSt3__16__lessIvvEclB8ne180100ImmEEbRKT_RKT0_, symObjAddr: 0x2D5C, symBinAddr: 0x100005930, symSize: 0x34 }
  - { offset: 0x1593E, size: 0x8, addend: 0x0, symName: __ZNSt3__117basic_string_viewIcNS_11char_traitsIcEEEC1B8ne180100EPKcm, symObjAddr: 0x2D90, symBinAddr: 0x100005964, symSize: 0x3C }
  - { offset: 0x15984, size: 0x8, addend: 0x0, symName: __ZNSt3__117basic_string_viewIcNS_11char_traitsIcEEEC2B8ne180100EPKcm, symObjAddr: 0x2DCC, symBinAddr: 0x1000059A0, symSize: 0x2C }
  - { offset: 0x159CA, size: 0x8, addend: 0x0, symName: __ZNSt3__117__compressed_pairINS_15__tree_end_nodeIPNS_16__tree_node_baseIPvEEEENS_9allocatorINS_11__tree_nodeINS_12__value_typeINS_12basic_stringIcNS_11char_traitsIcEENS7_IcEEEEN19unit_test_framework8TestCaseEEES3_EEEEE5firstB8ne180100Ev, symObjAddr: 0x2E30, symBinAddr: 0x100005A04, symSize: 0x24 }
  - { offset: 0x159EE, size: 0x8, addend: 0x0, symName: __ZNSt3__122__compressed_pair_elemINS_15__tree_end_nodeIPNS_16__tree_node_baseIPvEEEELi0ELb0EE5__getB8ne180100Ev, symObjAddr: 0x2E54, symBinAddr: 0x100005A28, symSize: 0x14 }
  - { offset: 0x15A12, size: 0x8, addend: 0x0, symName: __ZNSt3__16__treeINS_12__value_typeINS_12basic_stringIcNS_11char_traitsIcEENS_9allocatorIcEEEEN19unit_test_framework8TestCaseEEENS_19__map_value_compareIS7_SA_NS_4lessIS7_EELb1EEENS5_ISA_EEE12__node_allocB8ne180100Ev, symObjAddr: 0x2E68, symBinAddr: 0x100005A3C, symSize: 0x28 }
  - { offset: 0x15A36, size: 0x8, addend: 0x0, symName: __ZNSt3__116allocator_traitsINS_9allocatorINS_11__tree_nodeINS_12__value_typeINS_12basic_stringIcNS_11char_traitsIcEENS1_IcEEEEN19unit_test_framework8TestCaseEEEPvEEEEE8allocateB8ne180100ERSE_m, symObjAddr: 0x2E90, symBinAddr: 0x100005A64, symSize: 0x2C }
  - { offset: 0x15A68, size: 0x8, addend: 0x0, symName: __ZNSt3__122__tree_node_destructorINS_9allocatorINS_11__tree_nodeINS_12__value_typeINS_12basic_stringIcNS_11char_traitsIcEENS1_IcEEEEN19unit_test_framework8TestCaseEEEPvEEEEEC1B8ne180100ERSE_b, symObjAddr: 0x2EBC, symBinAddr: 0x100005A90, symSize: 0x48 }
  - { offset: 0x15AB3, size: 0x8, addend: 0x0, symName: __ZNSt3__110unique_ptrINS_11__tree_nodeINS_12__value_typeINS_12basic_stringIcNS_11char_traitsIcEENS_9allocatorIcEEEEN19unit_test_framework8TestCaseEEEPvEENS_22__tree_node_destructorINS6_ISD_EEEEEC1B8ne180100ILb1EvEEPSD_NS_16__dependent_typeINS_27__unique_ptr_deleter_sfinaeISG_EEXT_EE20__good_rval_ref_typeE, symObjAddr: 0x2F04, symBinAddr: 0x100005AD8, symSize: 0x3C }
  - { offset: 0x15B02, size: 0x8, addend: 0x0, symName: __ZNSt3__116allocator_traitsINS_9allocatorINS_11__tree_nodeINS_12__value_typeINS_12basic_stringIcNS_11char_traitsIcEENS1_IcEEEEN19unit_test_framework8TestCaseEEEPvEEEEE9constructB8ne180100INS_4pairIKS8_SA_EEJSJ_EvEEvRSE_PT_DpOT0_, symObjAddr: 0x2F40, symBinAddr: 0x100005B14, symSize: 0x34 }
  - { offset: 0x15B58, size: 0x8, addend: 0x0, symName: __ZNSt3__122__tree_key_value_typesINS_12__value_typeINS_12basic_stringIcNS_11char_traitsIcEENS_9allocatorIcEEEEN19unit_test_framework8TestCaseEEEE9__get_ptrB8ne180100ERSA_, symObjAddr: 0x2F74, symBinAddr: 0x100005B48, symSize: 0x24 }
  - { offset: 0x15B7B, size: 0x8, addend: 0x0, symName: __ZNKSt3__110unique_ptrINS_11__tree_nodeINS_12__value_typeINS_12basic_stringIcNS_11char_traitsIcEENS_9allocatorIcEEEEN19unit_test_framework8TestCaseEEEPvEENS_22__tree_node_destructorINS6_ISD_EEEEEptB8ne180100Ev, symObjAddr: 0x2F98, symBinAddr: 0x100005B6C, symSize: 0x28 }
  - { offset: 0x15B9F, size: 0x8, addend: 0x0, symName: __ZNSt3__110unique_ptrINS_11__tree_nodeINS_12__value_typeINS_12basic_stringIcNS_11char_traitsIcEENS_9allocatorIcEEEEN19unit_test_framework8TestCaseEEEPvEENS_22__tree_node_destructorINS6_ISD_EEEEE11get_deleterB8ne180100Ev, symObjAddr: 0x2FC0, symBinAddr: 0x100005B94, symSize: 0x24 }
  - { offset: 0x15BC3, size: 0x8, addend: 0x0, symName: __ZNSt3__117__compressed_pairINS_15__tree_end_nodeIPNS_16__tree_node_baseIPvEEEENS_9allocatorINS_11__tree_nodeINS_12__value_typeINS_12basic_stringIcNS_11char_traitsIcEENS7_IcEEEEN19unit_test_framework8TestCaseEEES3_EEEEE6secondB8ne180100Ev, symObjAddr: 0x2FE4, symBinAddr: 0x100005BB8, symSize: 0x24 }
  - { offset: 0x15BE7, size: 0x8, addend: 0x0, symName: __ZNSt3__122__compressed_pair_elemINS_9allocatorINS_11__tree_nodeINS_12__value_typeINS_12basic_stringIcNS_11char_traitsIcEENS1_IcEEEEN19unit_test_framework8TestCaseEEEPvEEEELi1ELb1EE5__getB8ne180100Ev, symObjAddr: 0x3008, symBinAddr: 0x100005BDC, symSize: 0x14 }
  - { offset: 0x15C0B, size: 0x8, addend: 0x0, symName: __ZNSt3__19allocatorINS_11__tree_nodeINS_12__value_typeINS_12basic_stringIcNS_11char_traitsIcEENS0_IcEEEEN19unit_test_framework8TestCaseEEEPvEEE8allocateB8ne180100Em, symObjAddr: 0x301C, symBinAddr: 0x100005BF0, symSize: 0x5C }
  - { offset: 0x15C47, size: 0x8, addend: 0x0, symName: __ZNSt3__116allocator_traitsINS_9allocatorINS_11__tree_nodeINS_12__value_typeINS_12basic_stringIcNS_11char_traitsIcEENS1_IcEEEEN19unit_test_framework8TestCaseEEEPvEEEEE8max_sizeB8ne180100ISE_vEEmRKSE_, symObjAddr: 0x3078, symBinAddr: 0x100005C4C, symSize: 0x24 }
  - { offset: 0x15C74, size: 0x8, addend: 0x0, symName: __ZNKSt3__19allocatorINS_11__tree_nodeINS_12__value_typeINS_12basic_stringIcNS_11char_traitsIcEENS0_IcEEEEN19unit_test_framework8TestCaseEEEPvEEE8max_sizeB8ne180100Ev, symObjAddr: 0x3130, symBinAddr: 0x100005C70, symSize: 0x18 }
  - { offset: 0x15C98, size: 0x8, addend: 0x0, symName: __ZNSt3__122__tree_node_destructorINS_9allocatorINS_11__tree_nodeINS_12__value_typeINS_12basic_stringIcNS_11char_traitsIcEENS1_IcEEEEN19unit_test_framework8TestCaseEEEPvEEEEEC2B8ne180100ERSE_b, symObjAddr: 0x31B8, symBinAddr: 0x100005C88, symSize: 0x38 }
  - { offset: 0x15CDE, size: 0x8, addend: 0x0, symName: __ZNSt3__110unique_ptrINS_11__tree_nodeINS_12__value_typeINS_12basic_stringIcNS_11char_traitsIcEENS_9allocatorIcEEEEN19unit_test_framework8TestCaseEEEPvEENS_22__tree_node_destructorINS6_ISD_EEEEEC2B8ne180100ILb1EvEEPSD_NS_16__dependent_typeINS_27__unique_ptr_deleter_sfinaeISG_EEXT_EE20__good_rval_ref_typeE, symObjAddr: 0x31F0, symBinAddr: 0x100005CC0, symSize: 0x48 }
  - { offset: 0x15D2D, size: 0x8, addend: 0x0, symName: __ZNSt3__117__compressed_pairIPNS_11__tree_nodeINS_12__value_typeINS_12basic_stringIcNS_11char_traitsIcEENS_9allocatorIcEEEEN19unit_test_framework8TestCaseEEEPvEENS_22__tree_node_destructorINS6_ISD_EEEEEC1B8ne180100IRSE_SH_EEOT_OT0_, symObjAddr: 0x3238, symBinAddr: 0x100005D08, symSize: 0x3C }
  - { offset: 0x15D83, size: 0x8, addend: 0x0, symName: __ZNSt3__117__compressed_pairIPNS_11__tree_nodeINS_12__value_typeINS_12basic_stringIcNS_11char_traitsIcEENS_9allocatorIcEEEEN19unit_test_framework8TestCaseEEEPvEENS_22__tree_node_destructorINS6_ISD_EEEEEC2B8ne180100IRSE_SH_EEOT_OT0_, symObjAddr: 0x3274, symBinAddr: 0x100005D44, symSize: 0x48 }
  - { offset: 0x15DD9, size: 0x8, addend: 0x0, symName: __ZNSt3__122__compressed_pair_elemIPNS_11__tree_nodeINS_12__value_typeINS_12basic_stringIcNS_11char_traitsIcEENS_9allocatorIcEEEEN19unit_test_framework8TestCaseEEEPvEELi0ELb0EEC2B8ne180100IRSE_vEEOT_, symObjAddr: 0x32BC, symBinAddr: 0x100005D8C, symSize: 0x24 }
  - { offset: 0x15E19, size: 0x8, addend: 0x0, symName: __ZNSt3__122__compressed_pair_elemINS_22__tree_node_destructorINS_9allocatorINS_11__tree_nodeINS_12__value_typeINS_12basic_stringIcNS_11char_traitsIcEENS2_IcEEEEN19unit_test_framework8TestCaseEEEPvEEEEEELi1ELb0EEC2B8ne180100ISG_vEEOT_, symObjAddr: 0x32E0, symBinAddr: 0x100005DB0, symSize: 0x24 }
  - { offset: 0x15E59, size: 0x8, addend: 0x0, symName: __ZNSt3__19allocatorINS_11__tree_nodeINS_12__value_typeINS_12basic_stringIcNS_11char_traitsIcEENS0_IcEEEEN19unit_test_framework8TestCaseEEEPvEEE9constructB8ne180100INS_4pairIKS7_S9_EEJSH_EEEvPT_DpOT0_, symObjAddr: 0x3304, symBinAddr: 0x100005DD4, symSize: 0x30 }
  - { offset: 0x15EAD, size: 0x8, addend: 0x0, symName: __ZNSt3__14pairIKNS_12basic_stringIcNS_11char_traitsIcEENS_9allocatorIcEEEEN19unit_test_framework8TestCaseEEC1B8ne180100EOSA_, symObjAddr: 0x3334, symBinAddr: 0x100005E04, symSize: 0x34 }
  - { offset: 0x15EDF, size: 0x8, addend: 0x0, symName: __ZNSt3__14pairIKNS_12basic_stringIcNS_11char_traitsIcEENS_9allocatorIcEEEEN19unit_test_framework8TestCaseEEC2B8ne180100EOSA_, symObjAddr: 0x3368, symBinAddr: 0x100005E38, symSize: 0x48 }
  - { offset: 0x15F12, size: 0x8, addend: 0x0, symName: __ZN19unit_test_framework8TestCaseC1EOS0_, symObjAddr: 0x33B0, symBinAddr: 0x100005E80, symSize: 0x34 }
  - { offset: 0x15F47, size: 0x8, addend: 0x0, symName: __ZN19unit_test_framework8TestCaseC2EOS0_, symObjAddr: 0x33E4, symBinAddr: 0x100005EB4, symSize: 0x68 }
  - { offset: 0x15F7B, size: 0x8, addend: 0x0, symName: __ZNSt3__112basic_stringIcNS_11char_traitsIcEENS_9allocatorIcEEEC1B8ne180100EOS5_, symObjAddr: 0x344C, symBinAddr: 0x100005F1C, symSize: 0x34 }
  - { offset: 0x15FB2, size: 0x8, addend: 0x0, symName: __ZNSt3__112basic_stringIcNS_11char_traitsIcEENS_9allocatorIcEEEC2B8ne180100EOS5_, symObjAddr: 0x3480, symBinAddr: 0x100005F50, symSize: 0xB8 }
  - { offset: 0x16019, size: 0x8, addend: 0x0, symName: __ZZNSt3__112basic_stringIcNS_11char_traitsIcEENS_9allocatorIcEEEC1B8ne180100EOS5_ENKUlRS5_E_clES7_, symObjAddr: 0x3538, symBinAddr: 0x100006008, symSize: 0x40 }
  - { offset: 0x16050, size: 0x8, addend: 0x0, symName: __ZNKSt3__112basic_stringIcNS_11char_traitsIcEENS_9allocatorIcEEE17__annotate_deleteB8ne180100Ev, symObjAddr: 0x35B0, symBinAddr: 0x100006048, symSize: 0x10 }
  - { offset: 0x16074, size: 0x8, addend: 0x0, symName: __ZNSt3__112__value_typeINS_12basic_stringIcNS_11char_traitsIcEENS_9allocatorIcEEEEN19unit_test_framework8TestCaseEE11__get_valueB8ne180100Ev, symObjAddr: 0x35D4, symBinAddr: 0x100006058, symSize: 0x24 }
  - { offset: 0x16098, size: 0x8, addend: 0x0, symName: __ZNKSt3__117__compressed_pairIPNS_11__tree_nodeINS_12__value_typeINS_12basic_stringIcNS_11char_traitsIcEENS_9allocatorIcEEEEN19unit_test_framework8TestCaseEEEPvEENS_22__tree_node_destructorINS6_ISD_EEEEE5firstB8ne180100Ev, symObjAddr: 0x3630, symBinAddr: 0x1000060B4, symSize: 0x24 }
  - { offset: 0x160BC, size: 0x8, addend: 0x0, symName: __ZNKSt3__122__compressed_pair_elemIPNS_11__tree_nodeINS_12__value_typeINS_12basic_stringIcNS_11char_traitsIcEENS_9allocatorIcEEEEN19unit_test_framework8TestCaseEEEPvEELi0ELb0EE5__getB8ne180100Ev, symObjAddr: 0x3654, symBinAddr: 0x1000060D8, symSize: 0x14 }
  - { offset: 0x160E0, size: 0x8, addend: 0x0, symName: __ZNSt3__117__compressed_pairIPNS_11__tree_nodeINS_12__value_typeINS_12basic_stringIcNS_11char_traitsIcEENS_9allocatorIcEEEEN19unit_test_framework8TestCaseEEEPvEENS_22__tree_node_destructorINS6_ISD_EEEEE6secondB8ne180100Ev, symObjAddr: 0x3668, symBinAddr: 0x1000060EC, symSize: 0x28 }
  - { offset: 0x16104, size: 0x8, addend: 0x0, symName: __ZNSt3__122__compressed_pair_elemINS_22__tree_node_destructorINS_9allocatorINS_11__tree_nodeINS_12__value_typeINS_12basic_stringIcNS_11char_traitsIcEENS2_IcEEEEN19unit_test_framework8TestCaseEEEPvEEEEEELi1ELb0EE5__getB8ne180100Ev, symObjAddr: 0x3690, symBinAddr: 0x100006114, symSize: 0x14 }
  - { offset: 0x16128, size: 0x8, addend: 0x0, symName: __ZNSt3__16__treeINS_12__value_typeINS_12basic_stringIcNS_11char_traitsIcEENS_9allocatorIcEEEEN19unit_test_framework8TestCaseEEENS_19__map_value_compareIS7_SA_NS_4lessIS7_EELb1EEENS5_ISA_EEE12__begin_nodeB8ne180100Ev, symObjAddr: 0x36A4, symBinAddr: 0x100006128, symSize: 0x14 }
  - { offset: 0x1614C, size: 0x8, addend: 0x0, symName: __ZNSt3__16__treeINS_12__value_typeINS_12basic_stringIcNS_11char_traitsIcEENS_9allocatorIcEEEEN19unit_test_framework8TestCaseEEENS_19__map_value_compareIS7_SA_NS_4lessIS7_EELb1EEENS5_ISA_EEE4sizeB8ne180100Ev, symObjAddr: 0x39E4, symBinAddr: 0x100006468, symSize: 0x28 }
  - { offset: 0x16170, size: 0x8, addend: 0x0, symName: __ZNKSt3__116__tree_node_baseIPvE15__parent_unsafeB8ne180100Ev, symObjAddr: 0x3A0C, symBinAddr: 0x100006490, symSize: 0x18 }
  - { offset: 0x16194, size: 0x8, addend: 0x0, symName: __ZNSt3__116__tree_node_baseIPvE12__set_parentB8ne180100EPS2_, symObjAddr: 0x3BF4, symBinAddr: 0x100006678, symSize: 0x20 }
  - { offset: 0x161C7, size: 0x8, addend: 0x0, symName: __ZNSt3__117__compressed_pairImNS_19__map_value_compareINS_12basic_stringIcNS_11char_traitsIcEENS_9allocatorIcEEEENS_12__value_typeIS7_N19unit_test_framework8TestCaseEEENS_4lessIS7_EELb1EEEE5firstB8ne180100Ev, symObjAddr: 0x3C14, symBinAddr: 0x100006698, symSize: 0x24 }
  - { offset: 0x161EB, size: 0x8, addend: 0x0, symName: __ZNSt3__122__compressed_pair_elemImLi0ELb0EE5__getB8ne180100Ev, symObjAddr: 0x3C38, symBinAddr: 0x1000066BC, symSize: 0x14 }
  - { offset: 0x1620F, size: 0x8, addend: 0x0, symName: __ZNSt3__117__compressed_pairIPNS_11__tree_nodeINS_12__value_typeINS_12basic_stringIcNS_11char_traitsIcEENS_9allocatorIcEEEEN19unit_test_framework8TestCaseEEEPvEENS_22__tree_node_destructorINS6_ISD_EEEEE5firstB8ne180100Ev, symObjAddr: 0x3C4C, symBinAddr: 0x1000066D0, symSize: 0x24 }
  - { offset: 0x16233, size: 0x8, addend: 0x0, symName: __ZNSt3__122__compressed_pair_elemIPNS_11__tree_nodeINS_12__value_typeINS_12basic_stringIcNS_11char_traitsIcEENS_9allocatorIcEEEEN19unit_test_framework8TestCaseEEEPvEELi0ELb0EE5__getB8ne180100Ev, symObjAddr: 0x3C70, symBinAddr: 0x1000066F4, symSize: 0x14 }
  - { offset: 0x16257, size: 0x8, addend: 0x0, symName: __ZNSt3__110unique_ptrINS_11__tree_nodeINS_12__value_typeINS_12basic_stringIcNS_11char_traitsIcEENS_9allocatorIcEEEEN19unit_test_framework8TestCaseEEEPvEENS_22__tree_node_destructorINS6_ISD_EEEEED2B8ne180100Ev, symObjAddr: 0x3C84, symBinAddr: 0x100006708, symSize: 0x30 }
  - { offset: 0x1627F, size: 0x8, addend: 0x0, symName: __ZNSt3__110unique_ptrINS_11__tree_nodeINS_12__value_typeINS_12basic_stringIcNS_11char_traitsIcEENS_9allocatorIcEEEEN19unit_test_framework8TestCaseEEEPvEENS_22__tree_node_destructorINS6_ISD_EEEEE5resetB8ne180100EPSD_, symObjAddr: 0x3CB4, symBinAddr: 0x100006738, symSize: 0x78 }
  - { offset: 0x162C1, size: 0x8, addend: 0x0, symName: __ZNSt3__122__tree_node_destructorINS_9allocatorINS_11__tree_nodeINS_12__value_typeINS_12basic_stringIcNS_11char_traitsIcEENS1_IcEEEEN19unit_test_framework8TestCaseEEEPvEEEEEclB8ne180100EPSD_, symObjAddr: 0x3D2C, symBinAddr: 0x1000067B0, symSize: 0x98 }
  - { offset: 0x162F4, size: 0x8, addend: 0x0, symName: __ZNSt3__116allocator_traitsINS_9allocatorINS_11__tree_nodeINS_12__value_typeINS_12basic_stringIcNS_11char_traitsIcEENS1_IcEEEEN19unit_test_framework8TestCaseEEEPvEEEEE7destroyB8ne180100INS_4pairIKS8_SA_EEvvEEvRSE_PT_, symObjAddr: 0x3DC4, symBinAddr: 0x100006848, symSize: 0x28 }
  - { offset: 0x1632E, size: 0x8, addend: 0x0, symName: __ZNSt3__116allocator_traitsINS_9allocatorINS_11__tree_nodeINS_12__value_typeINS_12basic_stringIcNS_11char_traitsIcEENS1_IcEEEEN19unit_test_framework8TestCaseEEEPvEEEEE10deallocateB8ne180100ERSE_PSD_m, symObjAddr: 0x3DEC, symBinAddr: 0x100006870, symSize: 0x34 }
  - { offset: 0x1636F, size: 0x8, addend: 0x0, symName: __ZNSt3__19allocatorINS_11__tree_nodeINS_12__value_typeINS_12basic_stringIcNS_11char_traitsIcEENS0_IcEEEEN19unit_test_framework8TestCaseEEEPvEEE10deallocateB8ne180100EPSC_m, symObjAddr: 0x3E44, symBinAddr: 0x1000068C8, symSize: 0x44 }
  - { offset: 0x163AF, size: 0x8, addend: 0x0, symName: __ZNSt3__115__tree_iteratorINS_12__value_typeINS_12basic_stringIcNS_11char_traitsIcEENS_9allocatorIcEEEEN19unit_test_framework8TestCaseEEEPNS_11__tree_nodeISA_PvEElEC2B8ne180100ESE_, symObjAddr: 0x3F90, symBinAddr: 0x10000690C, symSize: 0x20 }
  - { offset: 0x163E6, size: 0x8, addend: 0x0, symName: __ZNSt3__14pairINS_15__tree_iteratorINS_12__value_typeINS_12basic_stringIcNS_11char_traitsIcEENS_9allocatorIcEEEEN19unit_test_framework8TestCaseEEEPNS_11__tree_nodeISB_PvEElEEbEC2B8ne180100ISG_RbLi0EEEOT_OT0_, symObjAddr: 0x3FB0, symBinAddr: 0x10000692C, symSize: 0x38 }
  - { offset: 0x16442, size: 0x8, addend: 0x0, symName: __ZNSt3__14pairINS_14__map_iteratorINS_15__tree_iteratorINS_12__value_typeINS_12basic_stringIcNS_11char_traitsIcEENS_9allocatorIcEEEEN19unit_test_framework8TestCaseEEEPNS_11__tree_nodeISC_PvEElEEEEbEC2B8ne180100ISH_bLi0EEEONS0_IT_T0_EE, symObjAddr: 0x3FE8, symBinAddr: 0x100006964, symSize: 0x50 }
  - { offset: 0x16490, size: 0x8, addend: 0x0, symName: __ZNSt3__114__map_iteratorINS_15__tree_iteratorINS_12__value_typeINS_12basic_stringIcNS_11char_traitsIcEENS_9allocatorIcEEEEN19unit_test_framework8TestCaseEEEPNS_11__tree_nodeISB_PvEElEEEC1B8ne180100ESG_, symObjAddr: 0x4038, symBinAddr: 0x1000069B4, symSize: 0x34 }
  - { offset: 0x164C7, size: 0x8, addend: 0x0, symName: __ZNSt3__114__map_iteratorINS_15__tree_iteratorINS_12__value_typeINS_12basic_stringIcNS_11char_traitsIcEENS_9allocatorIcEEEEN19unit_test_framework8TestCaseEEEPNS_11__tree_nodeISB_PvEElEEEC2B8ne180100ESG_, symObjAddr: 0x406C, symBinAddr: 0x1000069E8, symSize: 0x20 }
  - { offset: 0x164FE, size: 0x8, addend: 0x0, symName: __ZN19unit_test_framework8TestCaseC2ERKNSt3__112basic_stringIcNS1_11char_traitsIcEENS1_9allocatorIcEEEEPFvvE, symObjAddr: 0x408C, symBinAddr: 0x100006A08, symSize: 0x58 }
  - { offset: 0x16544, size: 0x8, addend: 0x0, symName: __ZNSt3__112basic_stringIcNS_11char_traitsIcEENS_9allocatorIcEEEC1B8ne180100Ev, symObjAddr: 0x40E4, symBinAddr: 0x100006A60, symSize: 0x2C }
  - { offset: 0x1656C, size: 0x8, addend: 0x0, symName: __ZNSt3__112basic_stringIcNS_11char_traitsIcEENS_9allocatorIcEEEC2B8ne180100Ev, symObjAddr: 0x4110, symBinAddr: 0x100006A8C, symSize: 0x48 }
  - { offset: 0x1659E, size: 0x8, addend: 0x0, symName: __ZNSt3__117__compressed_pairINS_12basic_stringIcNS_11char_traitsIcEENS_9allocatorIcEEE5__repES5_EC1B8ne180100INS_16__value_init_tagENS_18__default_init_tagEEEOT_OT0_, symObjAddr: 0x4158, symBinAddr: 0x100006AD4, symSize: 0x3C }
  - { offset: 0x165F4, size: 0x8, addend: 0x0, symName: __ZNSt3__117__compressed_pairINS_12basic_stringIcNS_11char_traitsIcEENS_9allocatorIcEEE5__repES5_EC2B8ne180100INS_16__value_init_tagENS_18__default_init_tagEEEOT_OT0_, symObjAddr: 0x4194, symBinAddr: 0x100006B10, symSize: 0x3C }
  - { offset: 0x1664A, size: 0x8, addend: 0x0, symName: __ZNSt3__122__compressed_pair_elemINS_12basic_stringIcNS_11char_traitsIcEENS_9allocatorIcEEE5__repELi0ELb0EEC2B8ne180100ENS_16__value_init_tagE, symObjAddr: 0x41D0, symBinAddr: 0x100006B4C, symSize: 0x20 }
  - { offset: 0x1667C, size: 0x8, addend: 0x0, symName: __ZNSt3__14pairIKNS_12basic_stringIcNS_11char_traitsIcEENS_9allocatorIcEEEEN19unit_test_framework8TestCaseEEC2B8ne180100IRS7_S9_Li0EEEOT_OT0_, symObjAddr: 0x425C, symBinAddr: 0x100006B6C, symSize: 0x48 }
  - { offset: 0x166D8, size: 0x8, addend: 0x0, symName: __ZNSt3__14pairIKNS_12basic_stringIcNS_11char_traitsIcEENS_9allocatorIcEEEEN19unit_test_framework8TestCaseEED2Ev, symObjAddr: 0x42A4, symBinAddr: 0x100006BB4, symSize: 0x38 }
  - { offset: 0x16703, size: 0x8, addend: 0x0, symName: __ZN19unit_test_framework8TestCaseD2Ev, symObjAddr: 0x42DC, symBinAddr: 0x100006BEC, symSize: 0x44 }
  - { offset: 0x1672E, size: 0x8, addend: 0x0, symName: __ZN19unit_test_framework10Assertions11assert_trueEbiPKc, symObjAddr: 0x4320, symBinAddr: 0x100006C30, symSize: 0x148 }
  - { offset: 0x16784, size: 0x8, addend: 0x0, symName: __ZN19unit_test_framework10Assertions12assert_equalIiiEEvOT_OT0_iPKc, symObjAddr: 0x4468, symBinAddr: 0x100006D78, symSize: 0x174 }
  - { offset: 0x16811, size: 0x8, addend: 0x0, symName: __ZN19unit_test_framework10Assertions12assert_equalINSt3__112basic_stringIcNS2_11char_traitsIcEENS2_9allocatorIcEEEERA1_KcEEvOT_OT0_iPS9_, symObjAddr: 0x45DC, symBinAddr: 0x100006EEC, symSize: 0x174 }
  - { offset: 0x16A78, size: 0x8, addend: 0x0, symName: __ZN10TextBufferD1Ev, symObjAddr: 0x4750, symBinAddr: 0x100007060, symSize: 0x2C }
  - { offset: 0x16AF2, size: 0x8, addend: 0x0, symName: __ZNSt3__119basic_ostringstreamIcNS_11char_traitsIcEENS_9allocatorIcEEEC1B8ne180100Ev, symObjAddr: 0x477C, symBinAddr: 0x10000708C, symSize: 0xE4 }
  - { offset: 0x16B1A, size: 0x8, addend: 0x0, symName: __ZNKSt3__119basic_ostringstreamIcNS_11char_traitsIcEENS_9allocatorIcEEE3strB8ne180100Ev, symObjAddr: 0x48A8, symBinAddr: 0x1000071B8, symSize: 0x30 }
  - { offset: 0x16B4D, size: 0x8, addend: 0x0, symName: __ZN19unit_test_framework11TestFailureC1ENSt3__112basic_stringIcNS1_11char_traitsIcEENS1_9allocatorIcEEEEiPKc, symObjAddr: 0x48D8, symBinAddr: 0x1000071E8, symSize: 0x44 }
  - { offset: 0x16BA0, size: 0x8, addend: 0x0, symName: __ZN19unit_test_framework11TestFailureD1Ev, symObjAddr: 0x491C, symBinAddr: 0x10000722C, symSize: 0x2C }
  - { offset: 0x16BD0, size: 0x8, addend: 0x0, symName: __ZNSt3__119basic_ostringstreamIcNS_11char_traitsIcEENS_9allocatorIcEEED1Ev, symObjAddr: 0x4948, symBinAddr: 0x100007258, symSize: 0x40 }
  - { offset: 0x16BFB, size: 0x8, addend: 0x0, symName: __ZNSt3__19basic_iosIcNS_11char_traitsIcEEEC2B8ne180100Ev, symObjAddr: 0x4988, symBinAddr: 0x100007298, symSize: 0x3C }
  - { offset: 0x16C23, size: 0x8, addend: 0x0, symName: __ZNSt3__113basic_ostreamIcNS_11char_traitsIcEEEC2B8ne180100EPNS_15basic_streambufIcS2_EE, symObjAddr: 0x49C4, symBinAddr: 0x1000072D4, symSize: 0x60 }
  - { offset: 0x16C65, size: 0x8, addend: 0x0, symName: __ZNSt3__115basic_stringbufIcNS_11char_traitsIcEENS_9allocatorIcEEEC1B8ne180100Ej, symObjAddr: 0x4A24, symBinAddr: 0x100007334, symSize: 0x34 }
  - { offset: 0x16C9C, size: 0x8, addend: 0x0, symName: __ZNSt3__18ios_baseC2B8ne180100Ev, symObjAddr: 0x4A58, symBinAddr: 0x100007368, symSize: 0x24 }
  - { offset: 0x16CC4, size: 0x8, addend: 0x0, symName: __ZNSt3__19basic_iosIcNS_11char_traitsIcEEE4initB8ne180100EPNS_15basic_streambufIcS2_EE, symObjAddr: 0x4A7C, symBinAddr: 0x10000738C, symSize: 0x44 }
  - { offset: 0x16CF9, size: 0x8, addend: 0x0, symName: __ZNSt3__111char_traitsIcE3eofB8ne180100Ev, symObjAddr: 0x4AC0, symBinAddr: 0x1000073D0, symSize: 0x8 }
  - { offset: 0x16D0C, size: 0x8, addend: 0x0, symName: __ZNSt3__115basic_stringbufIcNS_11char_traitsIcEENS_9allocatorIcEEEC2B8ne180100Ej, symObjAddr: 0x4AC8, symBinAddr: 0x1000073D8, symSize: 0x58 }
  - { offset: 0x16D43, size: 0x8, addend: 0x0, symName: __ZNSt3__111char_traitsIcE6lengthB8ne180100EPKc, symObjAddr: 0x4D0C, symBinAddr: 0x10000761C, symSize: 0x34 }
  - { offset: 0x16D83, size: 0x8, addend: 0x0, symName: __ZNKSt3__113basic_ostreamIcNS_11char_traitsIcEEE6sentrycvbB8ne180100Ev, symObjAddr: 0x4D40, symBinAddr: 0x100007650, symSize: 0x1C }
  - { offset: 0x16DA7, size: 0x8, addend: 0x0, symName: __ZNSt3__119ostreambuf_iteratorIcNS_11char_traitsIcEEEC1B8ne180100ERNS_13basic_ostreamIcS2_EE, symObjAddr: 0x4F9C, symBinAddr: 0x1000078AC, symSize: 0x34 }
  - { offset: 0x16DDD, size: 0x8, addend: 0x0, symName: __ZNKSt3__18ios_base5flagsB8ne180100Ev, symObjAddr: 0x4FD0, symBinAddr: 0x1000078E0, symSize: 0x18 }
  - { offset: 0x16E03, size: 0x8, addend: 0x0, symName: __ZNKSt3__19basic_iosIcNS_11char_traitsIcEEE4fillB8ne180100Ev, symObjAddr: 0x4FE8, symBinAddr: 0x1000078F8, symSize: 0x64 }
  - { offset: 0x16E29, size: 0x8, addend: 0x0, symName: __ZNKSt3__119ostreambuf_iteratorIcNS_11char_traitsIcEEE6failedB8ne180100Ev, symObjAddr: 0x504C, symBinAddr: 0x10000795C, symSize: 0x24 }
  - { offset: 0x16E4D, size: 0x8, addend: 0x0, symName: __ZNSt3__19basic_iosIcNS_11char_traitsIcEEE8setstateB8ne180100Ej, symObjAddr: 0x5070, symBinAddr: 0x100007980, symSize: 0x2C }
  - { offset: 0x16E80, size: 0x8, addend: 0x0, symName: __ZNKSt3__18ios_base5widthB8ne180100Ev, symObjAddr: 0x509C, symBinAddr: 0x1000079AC, symSize: 0x18 }
  - { offset: 0x16EA6, size: 0x8, addend: 0x0, symName: __ZNSt3__115basic_streambufIcNS_11char_traitsIcEEE5sputnB8ne180100EPKcl, symObjAddr: 0x50B4, symBinAddr: 0x1000079C4, symSize: 0x3C }
  - { offset: 0x16EE6, size: 0x8, addend: 0x0, symName: __ZNSt3__112basic_stringIcNS_11char_traitsIcEENS_9allocatorIcEEEC1B8ne180100Emc, symObjAddr: 0x50F0, symBinAddr: 0x100007A00, symSize: 0x3C }
  - { offset: 0x16F2C, size: 0x8, addend: 0x0, symName: __ZNSt3__112basic_stringIcNS_11char_traitsIcEENS_9allocatorIcEEE4dataB8ne180100Ev, symObjAddr: 0x512C, symBinAddr: 0x100007A3C, symSize: 0x28 }
  - { offset: 0x16F50, size: 0x8, addend: 0x0, symName: __ZNSt3__18ios_base5widthB8ne180100El, symObjAddr: 0x5154, symBinAddr: 0x100007A64, symSize: 0x2C }
  - { offset: 0x16F94, size: 0x8, addend: 0x0, symName: __ZNSt3__112basic_stringIcNS_11char_traitsIcEENS_9allocatorIcEEEC2B8ne180100Emc, symObjAddr: 0x5180, symBinAddr: 0x100007A90, symSize: 0x4C }
  - { offset: 0x16FDA, size: 0x8, addend: 0x0, symName: __ZNSt3__112basic_stringIcNS_11char_traitsIcEENS_9allocatorIcEEE13__get_pointerB8ne180100Ev, symObjAddr: 0x526C, symBinAddr: 0x100007AF0, symSize: 0x54 }
  - { offset: 0x16FFE, size: 0x8, addend: 0x0, symName: __ZNSt3__119ostreambuf_iteratorIcNS_11char_traitsIcEEEC2B8ne180100ERNS_13basic_ostreamIcS2_EE, symObjAddr: 0x5324, symBinAddr: 0x100007B44, symSize: 0x54 }
  - { offset: 0x17034, size: 0x8, addend: 0x0, symName: __ZNKSt3__19basic_iosIcNS_11char_traitsIcEEE5rdbufB8ne180100Ev, symObjAddr: 0x5378, symBinAddr: 0x100007B98, symSize: 0x24 }
  - { offset: 0x1705A, size: 0x8, addend: 0x0, symName: __ZNKSt3__18ios_base5rdbufB8ne180100Ev, symObjAddr: 0x539C, symBinAddr: 0x100007BBC, symSize: 0x18 }
  - { offset: 0x1707E, size: 0x8, addend: 0x0, symName: __ZNSt3__111char_traitsIcE11eq_int_typeB8ne180100Eii, symObjAddr: 0x53B4, symBinAddr: 0x100007BD4, symSize: 0x28 }
  - { offset: 0x170B0, size: 0x8, addend: 0x0, symName: __ZNKSt3__19basic_iosIcNS_11char_traitsIcEEE5widenB8ne180100Ec, symObjAddr: 0x53DC, symBinAddr: 0x100007BFC, symSize: 0x84 }
  - { offset: 0x1711C, size: 0x8, addend: 0x0, symName: __ZNKSt3__15ctypeIcE5widenB8ne180100Ec, symObjAddr: 0x548C, symBinAddr: 0x100007CAC, symSize: 0x38 }
  - { offset: 0x1714F, size: 0x8, addend: 0x0, symName: __ZNSt3__18ios_base8setstateB8ne180100Ej, symObjAddr: 0x54C4, symBinAddr: 0x100007CE4, symSize: 0x34 }
  - { offset: 0x17184, size: 0x8, addend: 0x0, symName: __ZN19unit_test_framework11TestFailureC2ENSt3__112basic_stringIcNS1_11char_traitsIcEENS1_9allocatorIcEEEEiPKc, symObjAddr: 0x551C, symBinAddr: 0x100007D3C, symSize: 0x4C }
  - { offset: 0x171D7, size: 0x8, addend: 0x0, symName: __ZN19unit_test_framework11TestFailureD2Ev, symObjAddr: 0x5568, symBinAddr: 0x100007D88, symSize: 0x2C }
  - { offset: 0x17202, size: 0x8, addend: 0x0, symName: __ZNSt3__119basic_ostringstreamIcNS_11char_traitsIcEENS_9allocatorIcEEED2Ev, symObjAddr: 0x5594, symBinAddr: 0x100007DB4, symSize: 0x64 }
  - { offset: 0x1723A, size: 0x8, addend: 0x0, symName: __ZTv0_n24_NSt3__119basic_ostringstreamIcNS_11char_traitsIcEENS_9allocatorIcEEED1Ev, symObjAddr: 0x55F8, symBinAddr: 0x100007E18, symSize: 0x28 }
  - { offset: 0x17256, size: 0x8, addend: 0x0, symName: __ZNSt3__115basic_stringbufIcNS_11char_traitsIcEENS_9allocatorIcEEED1Ev, symObjAddr: 0x5620, symBinAddr: 0x100007E40, symSize: 0x2C }
  - { offset: 0x17282, size: 0x8, addend: 0x0, symName: __ZNSt3__115basic_stringbufIcNS_11char_traitsIcEENS_9allocatorIcEEED2Ev, symObjAddr: 0x564C, symBinAddr: 0x100007E6C, symSize: 0x48 }
  - { offset: 0x172B2, size: 0x8, addend: 0x0, symName: __ZN19unit_test_framework10Assertions11safe_equalsIiivE6equalsERKiS4_, symObjAddr: 0x5694, symBinAddr: 0x100007EB4, symSize: 0x30 }
  - { offset: 0x172E4, size: 0x8, addend: 0x0, symName: __ZN19unit_test_framework10Diagnostic5printIiEERNSt3__113basic_ostreamIcNS2_11char_traitsIcEEEES7_RKT_, symObjAddr: 0x56C4, symBinAddr: 0x100007EE4, symSize: 0x34 }
  - { offset: 0x1731D, size: 0x8, addend: 0x0, symName: __ZN19unit_test_framework10Assertions18safe_equals_helperIiiEEbRKT_RKT0_, symObjAddr: 0x56F8, symBinAddr: 0x100007F18, symSize: 0x30 }
  - { offset: 0x17361, size: 0x8, addend: 0x0, symName: __ZN19unit_test_framework10Diagnostic12print_helperIiEERDTlsfp_fp0_ERNSt3__113basic_ostreamIcNS4_11char_traitsIcEEEERKT_ii, symObjAddr: 0x5728, symBinAddr: 0x100007F48, symSize: 0x38 }
  - { offset: 0x173AE, size: 0x8, addend: 0x0, symName: __ZN19unit_test_framework10Assertions11safe_equalsINSt3__112basic_stringIcNS2_11char_traitsIcEENS2_9allocatorIcEEEERA1_KcvE6equalsERKS8_SB_, symObjAddr: 0x5760, symBinAddr: 0x100007F80, symSize: 0x30 }
  - { offset: 0x173E0, size: 0x8, addend: 0x0, symName: __ZN19unit_test_framework10Diagnostic5printINSt3__112basic_stringIcNS2_11char_traitsIcEENS2_9allocatorIcEEEEEERNS2_13basic_ostreamIcS5_EESB_RKT_, symObjAddr: 0x5790, symBinAddr: 0x100007FB0, symSize: 0x34 }
  - { offset: 0x17419, size: 0x8, addend: 0x0, symName: __ZN19unit_test_framework10Diagnostic5printIA1_cEERNSt3__113basic_ostreamIcNS3_11char_traitsIcEEEES8_RKT_, symObjAddr: 0x57C4, symBinAddr: 0x100007FE4, symSize: 0x34 }
  - { offset: 0x17452, size: 0x8, addend: 0x0, symName: __ZN19unit_test_framework10Assertions18safe_equals_helperINSt3__112basic_stringIcNS2_11char_traitsIcEENS2_9allocatorIcEEEEA1_cEEbRKT_RKT0_, symObjAddr: 0x57F8, symBinAddr: 0x100008018, symSize: 0x30 }
  - { offset: 0x17496, size: 0x8, addend: 0x0, symName: __ZN19unit_test_framework10Diagnostic12print_helperINSt3__112basic_stringIcNS2_11char_traitsIcEENS2_9allocatorIcEEEEEERDTlsfp_fp0_ERNS2_13basic_ostreamIcS5_EERKT_ii, symObjAddr: 0x58D4, symBinAddr: 0x1000080F4, symSize: 0x34 }
  - { offset: 0x174E8, size: 0x8, addend: 0x0, symName: __ZN19unit_test_framework10Diagnostic12print_helperILm1EEERNSt3__113basic_ostreamIcNS2_11char_traitsIcEEEES7_RAT__Kcii, symObjAddr: 0x5954, symBinAddr: 0x100008174, symSize: 0xA4 }
  - { offset: 0x17559, size: 0x8, addend: 0x0, symName: __ZN19unit_test_framework10Diagnostic21print_sequence_helperIA1_cEERDTcl5printfp_cmdeclsr3stdE5beginfp0_Edeclsr3stdE3endfp0_EEERNSt3__113basic_ostreamIcNS5_11char_traitsIcEEEERKT_, symObjAddr: 0x59F8, symBinAddr: 0x100008218, symSize: 0x10C }
  - { offset: 0x175A0, size: 0x8, addend: 0x0, symName: __ZN19unit_test_framework10Diagnostic5printIcEERNSt3__113basic_ostreamIcNS2_11char_traitsIcEEEES7_RKT_, symObjAddr: 0x5B30, symBinAddr: 0x100008350, symSize: 0x34 }
  - { offset: 0x175D9, size: 0x8, addend: 0x0, symName: __ZN19unit_test_framework10Diagnostic12print_helperIcEERDTlsfp_fp0_ERNSt3__113basic_ostreamIcNS4_11char_traitsIcEEEERKT_ii, symObjAddr: 0x5B64, symBinAddr: 0x100008384, symSize: 0x38 }
  - { offset: 0x17626, size: 0x8, addend: 0x0, symName: __ZN10TextBufferD2Ev, symObjAddr: 0x5BD0, symBinAddr: 0x1000083F0, symSize: 0x2C }
  - { offset: 0x17655, size: 0x8, addend: 0x0, symName: __ZN19unit_test_framework10Assertions12assert_equalIccEEvOT_OT0_iPKc, symObjAddr: 0x5D94, symBinAddr: 0x10000841C, symSize: 0x174 }
  - { offset: 0x176C7, size: 0x8, addend: 0x0, symName: __ZN19unit_test_framework10Assertions11safe_equalsIccvE6equalsERKcS4_, symObjAddr: 0x5F08, symBinAddr: 0x100008590, symSize: 0x30 }
  - { offset: 0x176F9, size: 0x8, addend: 0x0, symName: __ZN19unit_test_framework10Assertions18safe_equals_helperIccEEbRKT_RKT0_, symObjAddr: 0x5F38, symBinAddr: 0x1000085C0, symSize: 0x30 }
  - { offset: 0x17753, size: 0x8, addend: 0x0, symName: __ZN19unit_test_framework10Assertions12assert_equalINSt3__112basic_stringIcNS2_11char_traitsIcEENS2_9allocatorIcEEEERA4_KcEEvOT_OT0_iPS9_, symObjAddr: 0x5F68, symBinAddr: 0x1000085F0, symSize: 0x174 }
  - { offset: 0x177DB, size: 0x8, addend: 0x0, symName: __ZN19unit_test_framework10Assertions12assert_equalINSt3__112basic_stringIcNS2_11char_traitsIcEENS2_9allocatorIcEEEERA3_KcEEvOT_OT0_iPS9_, symObjAddr: 0x60DC, symBinAddr: 0x100008764, symSize: 0x174 }
  - { offset: 0x1784D, size: 0x8, addend: 0x0, symName: __ZN19unit_test_framework10Assertions11safe_equalsINSt3__112basic_stringIcNS2_11char_traitsIcEENS2_9allocatorIcEEEERA4_KcvE6equalsERKS8_SB_, symObjAddr: 0x6250, symBinAddr: 0x1000088D8, symSize: 0x30 }
  - { offset: 0x1787F, size: 0x8, addend: 0x0, symName: __ZN19unit_test_framework10Diagnostic5printIA4_cEERNSt3__113basic_ostreamIcNS3_11char_traitsIcEEEES8_RKT_, symObjAddr: 0x6280, symBinAddr: 0x100008908, symSize: 0x34 }
  - { offset: 0x178B8, size: 0x8, addend: 0x0, symName: __ZN19unit_test_framework10Assertions18safe_equals_helperINSt3__112basic_stringIcNS2_11char_traitsIcEENS2_9allocatorIcEEEEA4_cEEbRKT_RKT0_, symObjAddr: 0x62B4, symBinAddr: 0x10000893C, symSize: 0x30 }
  - { offset: 0x17901, size: 0x8, addend: 0x0, symName: __ZN19unit_test_framework10Diagnostic12print_helperILm4EEERNSt3__113basic_ostreamIcNS2_11char_traitsIcEEEES7_RAT__Kcii, symObjAddr: 0x62E4, symBinAddr: 0x10000896C, symSize: 0xA4 }
  - { offset: 0x17972, size: 0x8, addend: 0x0, symName: __ZN19unit_test_framework10Diagnostic21print_sequence_helperIA4_cEERDTcl5printfp_cmdeclsr3stdE5beginfp0_Edeclsr3stdE3endfp0_EEERNSt3__113basic_ostreamIcNS5_11char_traitsIcEEEERKT_, symObjAddr: 0x6388, symBinAddr: 0x100008A10, symSize: 0x10C }
  - { offset: 0x179B9, size: 0x8, addend: 0x0, symName: __ZN19unit_test_framework10Assertions11safe_equalsINSt3__112basic_stringIcNS2_11char_traitsIcEENS2_9allocatorIcEEEERA3_KcvE6equalsERKS8_SB_, symObjAddr: 0x64C0, symBinAddr: 0x100008B48, symSize: 0x30 }
  - { offset: 0x179EB, size: 0x8, addend: 0x0, symName: __ZN19unit_test_framework10Diagnostic5printIA3_cEERNSt3__113basic_ostreamIcNS3_11char_traitsIcEEEES8_RKT_, symObjAddr: 0x64F0, symBinAddr: 0x100008B78, symSize: 0x34 }
  - { offset: 0x17A24, size: 0x8, addend: 0x0, symName: __ZN19unit_test_framework10Assertions18safe_equals_helperINSt3__112basic_stringIcNS2_11char_traitsIcEENS2_9allocatorIcEEEEA3_cEEbRKT_RKT0_, symObjAddr: 0x6524, symBinAddr: 0x100008BAC, symSize: 0x30 }
  - { offset: 0x17A6D, size: 0x8, addend: 0x0, symName: __ZN19unit_test_framework10Diagnostic12print_helperILm3EEERNSt3__113basic_ostreamIcNS2_11char_traitsIcEEEES7_RAT__Kcii, symObjAddr: 0x6554, symBinAddr: 0x100008BDC, symSize: 0xA4 }
  - { offset: 0x17ADE, size: 0x8, addend: 0x0, symName: __ZN19unit_test_framework10Diagnostic21print_sequence_helperIA3_cEERDTcl5printfp_cmdeclsr3stdE5beginfp0_Edeclsr3stdE3endfp0_EEERNSt3__113basic_ostreamIcNS5_11char_traitsIcEEEERKT_, symObjAddr: 0x65F8, symBinAddr: 0x100008C80, symSize: 0x10C }
  - { offset: 0x17B2A, size: 0x8, addend: 0x0, symName: __ZN19unit_test_framework10Assertions12assert_equalIiRiEEvOT_OT0_iPKc, symObjAddr: 0x6730, symBinAddr: 0x100008DB8, symSize: 0x174 }
  - { offset: 0x17B9C, size: 0x8, addend: 0x0, symName: __ZN19unit_test_framework10Assertions11safe_equalsIiRivE6equalsERKiS2_, symObjAddr: 0x68A4, symBinAddr: 0x100008F2C, symSize: 0x30 }
  - { offset: 0x17BE4, size: 0x8, addend: 0x0, symName: __ZN19unit_test_framework10Assertions12assert_equalINSt3__112basic_stringIcNS2_11char_traitsIcEENS2_9allocatorIcEEEERA10_KcEEvOT_OT0_iPS9_, symObjAddr: 0x68D4, symBinAddr: 0x100008F5C, symSize: 0x174 }
  - { offset: 0x17C56, size: 0x8, addend: 0x0, symName: __ZN19unit_test_framework10Assertions11safe_equalsINSt3__112basic_stringIcNS2_11char_traitsIcEENS2_9allocatorIcEEEERA10_KcvE6equalsERKS8_SB_, symObjAddr: 0x6A48, symBinAddr: 0x1000090D0, symSize: 0x30 }
  - { offset: 0x17C88, size: 0x8, addend: 0x0, symName: __ZN19unit_test_framework10Diagnostic5printIA10_cEERNSt3__113basic_ostreamIcNS3_11char_traitsIcEEEES8_RKT_, symObjAddr: 0x6A78, symBinAddr: 0x100009100, symSize: 0x34 }
  - { offset: 0x17CC1, size: 0x8, addend: 0x0, symName: __ZN19unit_test_framework10Assertions18safe_equals_helperINSt3__112basic_stringIcNS2_11char_traitsIcEENS2_9allocatorIcEEEEA10_cEEbRKT_RKT0_, symObjAddr: 0x6AAC, symBinAddr: 0x100009134, symSize: 0x30 }
  - { offset: 0x17D0A, size: 0x8, addend: 0x0, symName: __ZN19unit_test_framework10Diagnostic12print_helperILm10EEERNSt3__113basic_ostreamIcNS2_11char_traitsIcEEEES7_RAT__Kcii, symObjAddr: 0x6ADC, symBinAddr: 0x100009164, symSize: 0xA4 }
  - { offset: 0x17D7B, size: 0x8, addend: 0x0, symName: __ZN19unit_test_framework10Diagnostic21print_sequence_helperIA10_cEERDTcl5printfp_cmdeclsr3stdE5beginfp0_Edeclsr3stdE3endfp0_EEERNSt3__113basic_ostreamIcNS5_11char_traitsIcEEEERKT_, symObjAddr: 0x6B80, symBinAddr: 0x100009208, symSize: 0x10C }
  - { offset: 0x17DC2, size: 0x8, addend: 0x0, symName: __ZN19unit_test_framework9TestSuiteC1Ev, symObjAddr: 0x6CB8, symBinAddr: 0x100009340, symSize: 0x2C }
  - { offset: 0x17DEA, size: 0x8, addend: 0x0, symName: __ZN19unit_test_framework9TestSuiteC2Ev, symObjAddr: 0x6CE4, symBinAddr: 0x10000936C, symSize: 0x68 }
  - { offset: 0x17E56, size: 0x8, addend: 0x0, symName: __ZNSt3__13mapINS_12basic_stringIcNS_11char_traitsIcEENS_9allocatorIcEEEEN19unit_test_framework8TestCaseENS_4lessIS6_EENS4_INS_4pairIKS6_S8_EEEEEC1B8ne180100Ev, symObjAddr: 0x6D4C, symBinAddr: 0x1000093D4, symSize: 0x2C }
  - { offset: 0x17E89, size: 0x8, addend: 0x0, symName: __ZZN19unit_test_framework9TestSuiteC1EvENKUlvE_cvPFvvEEv, symObjAddr: 0x6D78, symBinAddr: 0x100009400, symSize: 0x18 }
  - { offset: 0x17EB4, size: 0x8, addend: 0x0, symName: __ZNSt3__13mapINS_12basic_stringIcNS_11char_traitsIcEENS_9allocatorIcEEEEN19unit_test_framework8TestCaseENS_4lessIS6_EENS4_INS_4pairIKS6_S8_EEEEED1B8ne180100Ev, symObjAddr: 0x6D90, symBinAddr: 0x100009418, symSize: 0x2C }
  - { offset: 0x17EDC, size: 0x8, addend: 0x0, symName: __ZNSt3__13mapINS_12basic_stringIcNS_11char_traitsIcEENS_9allocatorIcEEEEN19unit_test_framework8TestCaseENS_4lessIS6_EENS4_INS_4pairIKS6_S8_EEEEEC2B8ne180100Ev, symObjAddr: 0x6DBC, symBinAddr: 0x100009444, symSize: 0x40 }
  - { offset: 0x17F04, size: 0x8, addend: 0x0, symName: __ZNSt3__119__map_value_compareINS_12basic_stringIcNS_11char_traitsIcEENS_9allocatorIcEEEENS_12__value_typeIS6_N19unit_test_framework8TestCaseEEENS_4lessIS6_EELb1EEC1B8ne180100ESC_, symObjAddr: 0x6DFC, symBinAddr: 0x100009484, symSize: 0x2C }
  - { offset: 0x17F3B, size: 0x8, addend: 0x0, symName: __ZNSt3__16__treeINS_12__value_typeINS_12basic_stringIcNS_11char_traitsIcEENS_9allocatorIcEEEEN19unit_test_framework8TestCaseEEENS_19__map_value_compareIS7_SA_NS_4lessIS7_EELb1EEENS5_ISA_EEEC1ERKSE_, symObjAddr: 0x6E28, symBinAddr: 0x1000094B0, symSize: 0x34 }
  - { offset: 0x17F74, size: 0x8, addend: 0x0, symName: __ZNSt3__119__map_value_compareINS_12basic_stringIcNS_11char_traitsIcEENS_9allocatorIcEEEENS_12__value_typeIS6_N19unit_test_framework8TestCaseEEENS_4lessIS6_EELb1EEC2B8ne180100ESC_, symObjAddr: 0x6E5C, symBinAddr: 0x1000094E4, symSize: 0x14 }
  - { offset: 0x17FAB, size: 0x8, addend: 0x0, symName: __ZNSt3__16__treeINS_12__value_typeINS_12basic_stringIcNS_11char_traitsIcEENS_9allocatorIcEEEEN19unit_test_framework8TestCaseEEENS_19__map_value_compareIS7_SA_NS_4lessIS7_EELb1EEENS5_ISA_EEEC2ERKSE_, symObjAddr: 0x6E70, symBinAddr: 0x1000094F8, symSize: 0x7C }
  - { offset: 0x17FE4, size: 0x8, addend: 0x0, symName: __ZNSt3__117__compressed_pairINS_15__tree_end_nodeIPNS_16__tree_node_baseIPvEEEENS_9allocatorINS_11__tree_nodeINS_12__value_typeINS_12basic_stringIcNS_11char_traitsIcEENS7_IcEEEEN19unit_test_framework8TestCaseEEES3_EEEEEC1B8ne180100ILb1EvEEv, symObjAddr: 0x6EEC, symBinAddr: 0x100009574, symSize: 0x2C }
  - { offset: 0x18017, size: 0x8, addend: 0x0, symName: __ZNSt3__117__compressed_pairImNS_19__map_value_compareINS_12basic_stringIcNS_11char_traitsIcEENS_9allocatorIcEEEENS_12__value_typeIS7_N19unit_test_framework8TestCaseEEENS_4lessIS7_EELb1EEEEC1B8ne180100IiRKSE_EEOT_OT0_, symObjAddr: 0x6F18, symBinAddr: 0x1000095A0, symSize: 0x3C }
  - { offset: 0x1806D, size: 0x8, addend: 0x0, symName: __ZNSt3__117__compressed_pairINS_15__tree_end_nodeIPNS_16__tree_node_baseIPvEEEENS_9allocatorINS_11__tree_nodeINS_12__value_typeINS_12basic_stringIcNS_11char_traitsIcEENS7_IcEEEEN19unit_test_framework8TestCaseEEES3_EEEEEC2B8ne180100ILb1EvEEv, symObjAddr: 0x6F54, symBinAddr: 0x1000095DC, symSize: 0x34 }
  - { offset: 0x180A0, size: 0x8, addend: 0x0, symName: __ZNSt3__122__compressed_pair_elemINS_15__tree_end_nodeIPNS_16__tree_node_baseIPvEEEELi0ELb0EEC2B8ne180100ENS_16__value_init_tagE, symObjAddr: 0x6F88, symBinAddr: 0x100009610, symSize: 0x2C }
  - { offset: 0x180D2, size: 0x8, addend: 0x0, symName: __ZNSt3__122__compressed_pair_elemINS_9allocatorINS_11__tree_nodeINS_12__value_typeINS_12basic_stringIcNS_11char_traitsIcEENS1_IcEEEEN19unit_test_framework8TestCaseEEEPvEEEELi1ELb1EEC2B8ne180100ENS_16__value_init_tagE, symObjAddr: 0x6FB4, symBinAddr: 0x10000963C, symSize: 0x2C }
  - { offset: 0x18104, size: 0x8, addend: 0x0, symName: __ZNSt3__115__tree_end_nodeIPNS_16__tree_node_baseIPvEEEC1B8ne180100Ev, symObjAddr: 0x6FE0, symBinAddr: 0x100009668, symSize: 0x2C }
  - { offset: 0x1812C, size: 0x8, addend: 0x0, symName: __ZNSt3__115__tree_end_nodeIPNS_16__tree_node_baseIPvEEEC2B8ne180100Ev, symObjAddr: 0x700C, symBinAddr: 0x100009694, symSize: 0x18 }
  - { offset: 0x18154, size: 0x8, addend: 0x0, symName: __ZNSt3__19allocatorINS_11__tree_nodeINS_12__value_typeINS_12basic_stringIcNS_11char_traitsIcEENS0_IcEEEEN19unit_test_framework8TestCaseEEEPvEEEC2B8ne180100Ev, symObjAddr: 0x7024, symBinAddr: 0x1000096AC, symSize: 0x2C }
  - { offset: 0x1817C, size: 0x8, addend: 0x0, symName: __ZNSt3__116__non_trivial_ifILb1ENS_9allocatorINS_11__tree_nodeINS_12__value_typeINS_12basic_stringIcNS_11char_traitsIcEENS1_IcEEEEN19unit_test_framework8TestCaseEEEPvEEEEEC2B8ne180100Ev, symObjAddr: 0x7050, symBinAddr: 0x1000096D8, symSize: 0x14 }
  - { offset: 0x181A4, size: 0x8, addend: 0x0, symName: __ZNSt3__117__compressed_pairImNS_19__map_value_compareINS_12basic_stringIcNS_11char_traitsIcEENS_9allocatorIcEEEENS_12__value_typeIS7_N19unit_test_framework8TestCaseEEENS_4lessIS7_EELb1EEEEC2B8ne180100IiRKSE_EEOT_OT0_, symObjAddr: 0x7064, symBinAddr: 0x1000096EC, symSize: 0x44 }
  - { offset: 0x181FA, size: 0x8, addend: 0x0, symName: __ZNSt3__122__compressed_pair_elemImLi0ELb0EEC2B8ne180100IivEEOT_, symObjAddr: 0x70A8, symBinAddr: 0x100009730, symSize: 0x24 }
  - { offset: 0x1823A, size: 0x8, addend: 0x0, symName: __ZNSt3__122__compressed_pair_elemINS_19__map_value_compareINS_12basic_stringIcNS_11char_traitsIcEENS_9allocatorIcEEEENS_12__value_typeIS7_N19unit_test_framework8TestCaseEEENS_4lessIS7_EELb1EEELi1ELb1EEC2B8ne180100IRKSE_vEEOT_, symObjAddr: 0x70CC, symBinAddr: 0x100009754, symSize: 0x18 }
  - { offset: 0x1827B, size: 0x8, addend: 0x0, symName: __ZZN19unit_test_framework9TestSuiteC1EvENUlvE_8__invokeEv, symObjAddr: 0x70E4, symBinAddr: 0x10000976C, symSize: 0x20 }
  - { offset: 0x18295, size: 0x8, addend: 0x0, symName: __ZZN19unit_test_framework9TestSuiteC1EvENKUlvE_clEv, symObjAddr: 0x7104, symBinAddr: 0x10000978C, symSize: 0x50 }
  - { offset: 0x182BD, size: 0x8, addend: 0x0, symName: __ZNSt3__113basic_ostreamIcNS_11char_traitsIcEEElsB8ne180100EPFRS3_S4_E, symObjAddr: 0x7154, symBinAddr: 0x1000097DC, symSize: 0x2C }
  - { offset: 0x182EF, size: 0x8, addend: 0x0, symName: __ZNSt3__13mapINS_12basic_stringIcNS_11char_traitsIcEENS_9allocatorIcEEEEN19unit_test_framework8TestCaseENS_4lessIS6_EENS4_INS_4pairIKS6_S8_EEEEED2B8ne180100Ev, symObjAddr: 0x71D8, symBinAddr: 0x100009860, symSize: 0x2C }
  - { offset: 0x18317, size: 0x8, addend: 0x0, symName: __ZNSt3__16__treeINS_12__value_typeINS_12basic_stringIcNS_11char_traitsIcEENS_9allocatorIcEEEEN19unit_test_framework8TestCaseEEENS_19__map_value_compareIS7_SA_NS_4lessIS7_EELb1EEENS5_ISA_EEED1Ev, symObjAddr: 0x7204, symBinAddr: 0x10000988C, symSize: 0x2C }
  - { offset: 0x18341, size: 0x8, addend: 0x0, symName: __ZNSt3__16__treeINS_12__value_typeINS_12basic_stringIcNS_11char_traitsIcEENS_9allocatorIcEEEEN19unit_test_framework8TestCaseEEENS_19__map_value_compareIS7_SA_NS_4lessIS7_EELb1EEENS5_ISA_EEED2Ev, symObjAddr: 0x7230, symBinAddr: 0x1000098B8, symSize: 0x38 }
  - { offset: 0x1836B, size: 0x8, addend: 0x0, symName: __ZNSt3__16__treeINS_12__value_typeINS_12basic_stringIcNS_11char_traitsIcEENS_9allocatorIcEEEEN19unit_test_framework8TestCaseEEENS_19__map_value_compareIS7_SA_NS_4lessIS7_EELb1EEENS5_ISA_EEE7destroyEPNS_11__tree_nodeISA_PvEE, symObjAddr: 0x7268, symBinAddr: 0x1000098F0, symSize: 0xAC }
  - { offset: 0x183BB, size: 0x8, addend: 0x0, symName: __ZN19unit_test_framework11SetCompleteC1ERb, symObjAddr: 0x7314, symBinAddr: 0x10000999C, symSize: 0x34 }
  - { offset: 0x183F1, size: 0x8, addend: 0x0, symName: __ZNSt3__16vectorINS_12basic_stringIcNS_11char_traitsIcEENS_9allocatorIcEEEENS4_IS6_EEEC1B8ne180100Ev, symObjAddr: 0x7348, symBinAddr: 0x1000099D0, symSize: 0x2C }
  - { offset: 0x18419, size: 0x8, addend: 0x0, symName: __ZN19unit_test_framework9TestSuite21get_test_names_to_runEiPPc, symObjAddr: 0x7374, symBinAddr: 0x1000099FC, symSize: 0x634 }
  - { offset: 0x184A9, size: 0x8, addend: 0x0, symName: __ZNSt3__16vectorINS_12basic_stringIcNS_11char_traitsIcEENS_9allocatorIcEEEENS4_IS6_EEEaSB8ne180100EOS8_, symObjAddr: 0x79A8, symBinAddr: 0x10000A030, symSize: 0x34 }
  - { offset: 0x184DE, size: 0x8, addend: 0x0, symName: __ZNSt3__16vectorINS_12basic_stringIcNS_11char_traitsIcEENS_9allocatorIcEEEENS4_IS6_EEED1B8ne180100Ev, symObjAddr: 0x79DC, symBinAddr: 0x10000A064, symSize: 0x2C }
  - { offset: 0x18506, size: 0x8, addend: 0x0, symName: __ZNSt3__16vectorINS_12basic_stringIcNS_11char_traitsIcEENS_9allocatorIcEEEENS4_IS6_EEE5beginB8ne180100Ev, symObjAddr: 0x7A08, symBinAddr: 0x10000A090, symSize: 0x30 }
  - { offset: 0x1852C, size: 0x8, addend: 0x0, symName: __ZNSt3__16vectorINS_12basic_stringIcNS_11char_traitsIcEENS_9allocatorIcEEEENS4_IS6_EEE3endB8ne180100Ev, symObjAddr: 0x7A38, symBinAddr: 0x10000A0C0, symSize: 0x30 }
  - { offset: 0x18552, size: 0x8, addend: 0x0, symName: __ZNKSt3__111__wrap_iterIPNS_12basic_stringIcNS_11char_traitsIcEENS_9allocatorIcEEEEEdeB8ne180100Ev, symObjAddr: 0x7A9C, symBinAddr: 0x10000A124, symSize: 0x18 }
  - { offset: 0x18576, size: 0x8, addend: 0x0, symName: __ZNSt3__13mapINS_12basic_stringIcNS_11char_traitsIcEENS_9allocatorIcEEEEN19unit_test_framework8TestCaseENS_4lessIS6_EENS4_INS_4pairIKS6_S8_EEEEE4findB8ne180100ERSC_, symObjAddr: 0x7AE4, symBinAddr: 0x10000A16C, symSize: 0x40 }
  - { offset: 0x185A9, size: 0x8, addend: 0x0, symName: __ZNSt3__111__wrap_iterIPNS_12basic_stringIcNS_11char_traitsIcEENS_9allocatorIcEEEEEppB8ne180100Ev, symObjAddr: 0x7B90, symBinAddr: 0x10000A218, symSize: 0x20 }
  - { offset: 0x185CD, size: 0x8, addend: 0x0, symName: __ZNSt3__13mapINS_12basic_stringIcNS_11char_traitsIcEENS_9allocatorIcEEEEN19unit_test_framework8TestCaseENS_4lessIS6_EENS4_INS_4pairIKS6_S8_EEEEE2atERSC_, symObjAddr: 0x7BB0, symBinAddr: 0x10000A238, symSize: 0x6C }
  - { offset: 0x18620, size: 0x8, addend: 0x0, symName: __ZN19unit_test_framework8TestCase3runEb, symObjAddr: 0x7C1C, symBinAddr: 0x10000A2A4, symSize: 0x368 }
  - { offset: 0x18689, size: 0x8, addend: 0x0, symName: __ZN19unit_test_framework8TestCase5printEb, symObjAddr: 0x7F84, symBinAddr: 0x10000A60C, symSize: 0x180 }
  - { offset: 0x186BC, size: 0x8, addend: 0x0, symName: __ZNSt3__13mapINS_12basic_stringIcNS_11char_traitsIcEENS_9allocatorIcEEEEN19unit_test_framework8TestCaseENS_4lessIS6_EENS4_INS_4pairIKS6_S8_EEEEE5beginB8ne180100Ev, symObjAddr: 0x81C8, symBinAddr: 0x10000A850, symSize: 0x38 }
  - { offset: 0x186E0, size: 0x8, addend: 0x0, symName: __ZNSt3__13mapINS_12basic_stringIcNS_11char_traitsIcEENS_9allocatorIcEEEEN19unit_test_framework8TestCaseENS_4lessIS6_EENS4_INS_4pairIKS6_S8_EEEEE3endB8ne180100Ev, symObjAddr: 0x8200, symBinAddr: 0x10000A888, symSize: 0x38 }
  - { offset: 0x18704, size: 0x8, addend: 0x0, symName: __ZNKSt3__16vectorINS_12basic_stringIcNS_11char_traitsIcEENS_9allocatorIcEEEENS4_IS6_EEE4sizeB8ne180100Ev, symObjAddr: 0x82FC, symBinAddr: 0x10000A984, symSize: 0x28 }
  - { offset: 0x18728, size: 0x8, addend: 0x0, symName: __ZN19unit_test_framework11SetCompleteD1Ev, symObjAddr: 0x8324, symBinAddr: 0x10000A9AC, symSize: 0x2C }
  - { offset: 0x18750, size: 0x8, addend: 0x0, symName: __ZN19unit_test_framework11SetCompleteC2ERb, symObjAddr: 0x8350, symBinAddr: 0x10000A9D8, symSize: 0x2C }
  - { offset: 0x18786, size: 0x8, addend: 0x0, symName: __ZNSt3__16vectorINS_12basic_stringIcNS_11char_traitsIcEENS_9allocatorIcEEEENS4_IS6_EEEC2B8ne180100Ev, symObjAddr: 0x837C, symBinAddr: 0x10000AA04, symSize: 0x4C }
  - { offset: 0x187B3, size: 0x8, addend: 0x0, symName: __ZNSt3__117__compressed_pairIPNS_12basic_stringIcNS_11char_traitsIcEENS_9allocatorIcEEEENS4_IS6_EEEC1B8ne180100IDnNS_18__default_init_tagEEEOT_OT0_, symObjAddr: 0x83C8, symBinAddr: 0x10000AA50, symSize: 0x3C }
  - { offset: 0x18809, size: 0x8, addend: 0x0, symName: __ZNSt3__117__compressed_pairIPNS_12basic_stringIcNS_11char_traitsIcEENS_9allocatorIcEEEENS4_IS6_EEEC2B8ne180100IDnNS_18__default_init_tagEEEOT_OT0_, symObjAddr: 0x8404, symBinAddr: 0x10000AA8C, symSize: 0x40 }
  - { offset: 0x1885F, size: 0x8, addend: 0x0, symName: __ZNSt3__122__compressed_pair_elemIPNS_12basic_stringIcNS_11char_traitsIcEENS_9allocatorIcEEEELi0ELb0EEC2B8ne180100IDnvEEOT_, symObjAddr: 0x8444, symBinAddr: 0x10000AACC, symSize: 0x1C }
  - { offset: 0x1889F, size: 0x8, addend: 0x0, symName: __ZNSt3__122__compressed_pair_elemINS_9allocatorINS_12basic_stringIcNS_11char_traitsIcEENS1_IcEEEEEELi1ELb1EEC2B8ne180100ENS_18__default_init_tagE, symObjAddr: 0x8460, symBinAddr: 0x10000AAE8, symSize: 0x2C }
  - { offset: 0x188D1, size: 0x8, addend: 0x0, symName: __ZNSt3__19allocatorINS_12basic_stringIcNS_11char_traitsIcEENS0_IcEEEEEC2B8ne180100Ev, symObjAddr: 0x848C, symBinAddr: 0x10000AB14, symSize: 0x2C }
  - { offset: 0x188F9, size: 0x8, addend: 0x0, symName: __ZNSt3__116__non_trivial_ifILb1ENS_9allocatorINS_12basic_stringIcNS_11char_traitsIcEENS1_IcEEEEEEEC2B8ne180100Ev, symObjAddr: 0x84B8, symBinAddr: 0x10000AB40, symSize: 0x14 }
  - { offset: 0x18921, size: 0x8, addend: 0x0, symName: __ZN19unit_test_framework9TestSuite16print_test_namesERNSt3__113basic_ostreamIcNS1_11char_traitsIcEEEE, symObjAddr: 0x8578, symBinAddr: 0x10000AC00, symSize: 0x8C }
  - { offset: 0x189AB, size: 0x8, addend: 0x0, symName: __ZN19unit_test_framework9ExitSuiteC1Ei, symObjAddr: 0x862C, symBinAddr: 0x10000ACB4, symSize: 0x34 }
  - { offset: 0x189E1, size: 0x8, addend: 0x0, symName: __ZN19unit_test_framework9ExitSuiteD1Ev, symObjAddr: 0x8660, symBinAddr: 0x10000ACE8, symSize: 0x2C }
  - { offset: 0x18A0B, size: 0x8, addend: 0x0, symName: __ZN19unit_test_framework9TestSuite17enable_quiet_modeEv, symObjAddr: 0x868C, symBinAddr: 0x10000AD14, symSize: 0x1C }
  - { offset: 0x18A2F, size: 0x8, addend: 0x0, symName: __ZNSt3__16vectorINS_12basic_stringIcNS_11char_traitsIcEENS_9allocatorIcEEEENS4_IS6_EEE9push_backB8ne180100EOS6_, symObjAddr: 0x86A8, symBinAddr: 0x10000AD30, symSize: 0x90 }
  - { offset: 0x18A73, size: 0x8, addend: 0x0, symName: __ZNKSt3__16vectorINS_12basic_stringIcNS_11char_traitsIcEENS_9allocatorIcEEEENS4_IS6_EEE5emptyB8ne180100Ev, symObjAddr: 0x8738, symBinAddr: 0x10000ADC0, symSize: 0x28 }
  - { offset: 0x18A97, size: 0x8, addend: 0x0, symName: __ZNKSt3__114__map_iteratorINS_15__tree_iteratorINS_12__value_typeINS_12basic_stringIcNS_11char_traitsIcEENS_9allocatorIcEEEEN19unit_test_framework8TestCaseEEEPNS_11__tree_nodeISB_PvEElEEEdeB8ne180100Ev, symObjAddr: 0x88EC, symBinAddr: 0x10000AF74, symSize: 0x28 }
  - { offset: 0x18ABB, size: 0x8, addend: 0x0, symName: __ZNSt3__114__map_iteratorINS_15__tree_iteratorINS_12__value_typeINS_12basic_stringIcNS_11char_traitsIcEENS_9allocatorIcEEEEN19unit_test_framework8TestCaseEEEPNS_11__tree_nodeISB_PvEElEEEppB8ne180100Ev, symObjAddr: 0x8914, symBinAddr: 0x10000AF9C, symSize: 0x2C }
  - { offset: 0x18ADF, size: 0x8, addend: 0x0, symName: __ZNKSt3__115__tree_iteratorINS_12__value_typeINS_12basic_stringIcNS_11char_traitsIcEENS_9allocatorIcEEEEN19unit_test_framework8TestCaseEEEPNS_11__tree_nodeISA_PvEElEptB8ne180100Ev, symObjAddr: 0x89A4, symBinAddr: 0x10000B02C, symSize: 0x2C }
  - { offset: 0x18B03, size: 0x8, addend: 0x0, symName: __ZNSt3__114pointer_traitsIPNS_12__value_typeINS_12basic_stringIcNS_11char_traitsIcEENS_9allocatorIcEEEEN19unit_test_framework8TestCaseEEEE10pointer_toB8ne180100ERSA_, symObjAddr: 0x89D0, symBinAddr: 0x10000B058, symSize: 0x14 }
  - { offset: 0x18B25, size: 0x8, addend: 0x0, symName: __ZNKSt3__115__tree_iteratorINS_12__value_typeINS_12basic_stringIcNS_11char_traitsIcEENS_9allocatorIcEEEEN19unit_test_framework8TestCaseEEEPNS_11__tree_nodeISA_PvEElE8__get_npB8ne180100Ev, symObjAddr: 0x89E4, symBinAddr: 0x10000B06C, symSize: 0x18 }
  - { offset: 0x18B49, size: 0x8, addend: 0x0, symName: __ZNSt3__115__tree_iteratorINS_12__value_typeINS_12basic_stringIcNS_11char_traitsIcEENS_9allocatorIcEEEEN19unit_test_framework8TestCaseEEEPNS_11__tree_nodeISA_PvEElEppB8ne180100Ev, symObjAddr: 0x89FC, symBinAddr: 0x10000B084, symSize: 0x38 }
  - { offset: 0x18B6D, size: 0x8, addend: 0x0, symName: __ZN19unit_test_framework9ExitSuiteC2Ei, symObjAddr: 0x8AF4, symBinAddr: 0x10000B17C, symSize: 0x48 }
  - { offset: 0x18BA3, size: 0x8, addend: 0x0, symName: __ZNSt9exceptionC2B8ne180100Ev, symObjAddr: 0x8B3C, symBinAddr: 0x10000B1C4, symSize: 0x24 }
  - { offset: 0x18BCB, size: 0x8, addend: 0x0, symName: __ZN19unit_test_framework9ExitSuiteD0Ev, symObjAddr: 0x8B60, symBinAddr: 0x10000B1E8, symSize: 0x30 }
  - { offset: 0x18BF5, size: 0x8, addend: 0x0, symName: __ZN19unit_test_framework9ExitSuiteD2Ev, symObjAddr: 0x8B90, symBinAddr: 0x10000B218, symSize: 0x2C }
  - { offset: 0x18C1F, size: 0x8, addend: 0x0, symName: __ZNSt3__16vectorINS_12basic_stringIcNS_11char_traitsIcEENS_9allocatorIcEEEENS4_IS6_EEE9__end_capB8ne180100Ev, symObjAddr: 0x8BBC, symBinAddr: 0x10000B244, symSize: 0x28 }
  - { offset: 0x18C43, size: 0x8, addend: 0x0, symName: __ZNSt3__16vectorINS_12basic_stringIcNS_11char_traitsIcEENS_9allocatorIcEEEENS4_IS6_EEE22__construct_one_at_endB8ne180100IJS6_EEEvDpOT_, symObjAddr: 0x8BE4, symBinAddr: 0x10000B26C, symSize: 0x90 }
  - { offset: 0x18C90, size: 0x8, addend: 0x0, symName: __ZNSt3__16vectorINS_12basic_stringIcNS_11char_traitsIcEENS_9allocatorIcEEEENS4_IS6_EEE21__push_back_slow_pathIS6_EEPS6_OT_, symObjAddr: 0x8C74, symBinAddr: 0x10000B2FC, symSize: 0xE8 }
  - { offset: 0x18CEC, size: 0x8, addend: 0x0, symName: __ZNSt3__117__compressed_pairIPNS_12basic_stringIcNS_11char_traitsIcEENS_9allocatorIcEEEENS4_IS6_EEE5firstB8ne180100Ev, symObjAddr: 0x8D5C, symBinAddr: 0x10000B3E4, symSize: 0x24 }
  - { offset: 0x18D10, size: 0x8, addend: 0x0, symName: __ZNSt3__122__compressed_pair_elemIPNS_12basic_stringIcNS_11char_traitsIcEENS_9allocatorIcEEEELi0ELb0EE5__getB8ne180100Ev, symObjAddr: 0x8D80, symBinAddr: 0x10000B408, symSize: 0x14 }
  - { offset: 0x18D4D, size: 0x8, addend: 0x0, symName: __ZNSt3__16vectorINS_12basic_stringIcNS_11char_traitsIcEENS_9allocatorIcEEEENS4_IS6_EEE21_ConstructTransactionC1B8ne180100ERS8_m, symObjAddr: 0x8D94, symBinAddr: 0x10000B41C, symSize: 0x3C }
  - { offset: 0x18D93, size: 0x8, addend: 0x0, symName: __ZNSt3__116allocator_traitsINS_9allocatorINS_12basic_stringIcNS_11char_traitsIcEENS1_IcEEEEEEE9constructB8ne180100IS6_JS6_EvEEvRS7_PT_DpOT0_, symObjAddr: 0x8DD0, symBinAddr: 0x10000B458, symSize: 0x34 }
  - { offset: 0x18DE9, size: 0x8, addend: 0x0, symName: __ZNSt3__16vectorINS_12basic_stringIcNS_11char_traitsIcEENS_9allocatorIcEEEENS4_IS6_EEE7__allocB8ne180100Ev, symObjAddr: 0x8E04, symBinAddr: 0x10000B48C, symSize: 0x28 }
  - { offset: 0x18E0D, size: 0x8, addend: 0x0, symName: __ZNSt3__16vectorINS_12basic_stringIcNS_11char_traitsIcEENS_9allocatorIcEEEENS4_IS6_EEE21_ConstructTransactionD1B8ne180100Ev, symObjAddr: 0x8E40, symBinAddr: 0x10000B4C8, symSize: 0x2C }
  - { offset: 0x18E35, size: 0x8, addend: 0x0, symName: __ZNSt3__16vectorINS_12basic_stringIcNS_11char_traitsIcEENS_9allocatorIcEEEENS4_IS6_EEE21_ConstructTransactionC2B8ne180100ERS8_m, symObjAddr: 0x8E6C, symBinAddr: 0x10000B4F4, symSize: 0x4C }
  - { offset: 0x18E7B, size: 0x8, addend: 0x0, symName: __ZNSt3__19allocatorINS_12basic_stringIcNS_11char_traitsIcEENS0_IcEEEEE9constructB8ne180100IS5_JS5_EEEvPT_DpOT0_, symObjAddr: 0x8EB8, symBinAddr: 0x10000B540, symSize: 0x30 }
  - { offset: 0x18ECF, size: 0x8, addend: 0x0, symName: __ZNSt3__117__compressed_pairIPNS_12basic_stringIcNS_11char_traitsIcEENS_9allocatorIcEEEENS4_IS6_EEE6secondB8ne180100Ev, symObjAddr: 0x8EE8, symBinAddr: 0x10000B570, symSize: 0x24 }
  - { offset: 0x18EF3, size: 0x8, addend: 0x0, symName: __ZNSt3__122__compressed_pair_elemINS_9allocatorINS_12basic_stringIcNS_11char_traitsIcEENS1_IcEEEEEELi1ELb1EE5__getB8ne180100Ev, symObjAddr: 0x8F0C, symBinAddr: 0x10000B594, symSize: 0x14 }
  - { offset: 0x18F17, size: 0x8, addend: 0x0, symName: __ZNSt3__16vectorINS_12basic_stringIcNS_11char_traitsIcEENS_9allocatorIcEEEENS4_IS6_EEE21_ConstructTransactionD2B8ne180100Ev, symObjAddr: 0x8F20, symBinAddr: 0x10000B5A8, symSize: 0x20 }
  - { offset: 0x18F3F, size: 0x8, addend: 0x0, symName: __ZNKSt3__16vectorINS_12basic_stringIcNS_11char_traitsIcEENS_9allocatorIcEEEENS4_IS6_EEE11__recommendB8ne180100Em, symObjAddr: 0x8F40, symBinAddr: 0x10000B5C8, symSize: 0xB4 }
  - { offset: 0x18F92, size: 0x8, addend: 0x0, symName: __ZNSt3__114__split_bufferINS_12basic_stringIcNS_11char_traitsIcEENS_9allocatorIcEEEERNS4_IS6_EEEC1EmmS8_, symObjAddr: 0x8FF4, symBinAddr: 0x10000B67C, symSize: 0x44 }
  - { offset: 0x18FE6, size: 0x8, addend: 0x0, symName: __ZNSt3__114__split_bufferINS_12basic_stringIcNS_11char_traitsIcEENS_9allocatorIcEEEERNS4_IS6_EEED1Ev, symObjAddr: 0x9148, symBinAddr: 0x10000B7D0, symSize: 0x2C }
  - { offset: 0x19010, size: 0x8, addend: 0x0, symName: __ZNKSt3__16vectorINS_12basic_stringIcNS_11char_traitsIcEENS_9allocatorIcEEEENS4_IS6_EEE8max_sizeEv, symObjAddr: 0x9174, symBinAddr: 0x10000B7FC, symSize: 0x60 }
  - { offset: 0x19036, size: 0x8, addend: 0x0, symName: __ZNKSt3__16vectorINS_12basic_stringIcNS_11char_traitsIcEENS_9allocatorIcEEEENS4_IS6_EEE20__throw_length_errorB8ne180100Ev, symObjAddr: 0x91D4, symBinAddr: 0x10000B85C, symSize: 0x1C }
  - { offset: 0x1905A, size: 0x8, addend: 0x0, symName: __ZNKSt3__16vectorINS_12basic_stringIcNS_11char_traitsIcEENS_9allocatorIcEEEENS4_IS6_EEE8capacityB8ne180100Ev, symObjAddr: 0x91F0, symBinAddr: 0x10000B878, symSize: 0x40 }
  - { offset: 0x19088, size: 0x8, addend: 0x0, symName: __ZNSt3__116allocator_traitsINS_9allocatorINS_12basic_stringIcNS_11char_traitsIcEENS1_IcEEEEEEE8max_sizeB8ne180100IS7_vEEmRKS7_, symObjAddr: 0x925C, symBinAddr: 0x10000B8E4, symSize: 0x24 }
  - { offset: 0x190B5, size: 0x8, addend: 0x0, symName: __ZNKSt3__16vectorINS_12basic_stringIcNS_11char_traitsIcEENS_9allocatorIcEEEENS4_IS6_EEE7__allocB8ne180100Ev, symObjAddr: 0x9280, symBinAddr: 0x10000B908, symSize: 0x28 }
  - { offset: 0x190D9, size: 0x8, addend: 0x0, symName: __ZNSt3__114numeric_limitsIlE3maxB8ne180100Ev, symObjAddr: 0x92A8, symBinAddr: 0x10000B930, symSize: 0x14 }
  - { offset: 0x190EC, size: 0x8, addend: 0x0, symName: __ZNKSt3__19allocatorINS_12basic_stringIcNS_11char_traitsIcEENS0_IcEEEEE8max_sizeB8ne180100Ev, symObjAddr: 0x92BC, symBinAddr: 0x10000B944, symSize: 0x18 }
  - { offset: 0x19110, size: 0x8, addend: 0x0, symName: __ZNKSt3__117__compressed_pairIPNS_12basic_stringIcNS_11char_traitsIcEENS_9allocatorIcEEEENS4_IS6_EEE6secondB8ne180100Ev, symObjAddr: 0x92D4, symBinAddr: 0x10000B95C, symSize: 0x24 }
  - { offset: 0x19134, size: 0x8, addend: 0x0, symName: __ZNKSt3__122__compressed_pair_elemINS_9allocatorINS_12basic_stringIcNS_11char_traitsIcEENS1_IcEEEEEELi1ELb1EE5__getB8ne180100Ev, symObjAddr: 0x92F8, symBinAddr: 0x10000B980, symSize: 0x14 }
  - { offset: 0x19158, size: 0x8, addend: 0x0, symName: __ZNSt3__123__libcpp_numeric_limitsIlLb1EE3maxB8ne180100Ev, symObjAddr: 0x930C, symBinAddr: 0x10000B994, symSize: 0x8 }
  - { offset: 0x1916B, size: 0x8, addend: 0x0, symName: __ZNKSt3__16vectorINS_12basic_stringIcNS_11char_traitsIcEENS_9allocatorIcEEEENS4_IS6_EEE9__end_capB8ne180100Ev, symObjAddr: 0x93F0, symBinAddr: 0x10000B99C, symSize: 0x28 }
  - { offset: 0x1918F, size: 0x8, addend: 0x0, symName: __ZNKSt3__117__compressed_pairIPNS_12basic_stringIcNS_11char_traitsIcEENS_9allocatorIcEEEENS4_IS6_EEE5firstB8ne180100Ev, symObjAddr: 0x9418, symBinAddr: 0x10000B9C4, symSize: 0x24 }
  - { offset: 0x191B3, size: 0x8, addend: 0x0, symName: __ZNKSt3__122__compressed_pair_elemIPNS_12basic_stringIcNS_11char_traitsIcEENS_9allocatorIcEEEELi0ELb0EE5__getB8ne180100Ev, symObjAddr: 0x943C, symBinAddr: 0x10000B9E8, symSize: 0x14 }
  - { offset: 0x191D7, size: 0x8, addend: 0x0, symName: __ZNSt3__114__split_bufferINS_12basic_stringIcNS_11char_traitsIcEENS_9allocatorIcEEEERNS4_IS6_EEEC2EmmS8_, symObjAddr: 0x94A4, symBinAddr: 0x10000BA50, symSize: 0xE0 }
  - { offset: 0x19248, size: 0x8, addend: 0x0, symName: __ZNSt3__117__compressed_pairIPNS_12basic_stringIcNS_11char_traitsIcEENS_9allocatorIcEEEERNS4_IS6_EEEC1B8ne180100IDnS9_EEOT_OT0_, symObjAddr: 0x9584, symBinAddr: 0x10000BB30, symSize: 0x3C }
  - { offset: 0x1929E, size: 0x8, addend: 0x0, symName: __ZNSt3__114__split_bufferINS_12basic_stringIcNS_11char_traitsIcEENS_9allocatorIcEEEERNS4_IS6_EEE7__allocB8ne180100Ev, symObjAddr: 0x9600, symBinAddr: 0x10000BBAC, symSize: 0x28 }
  - { offset: 0x192C2, size: 0x8, addend: 0x0, symName: __ZNSt3__114__split_bufferINS_12basic_stringIcNS_11char_traitsIcEENS_9allocatorIcEEEERNS4_IS6_EEE9__end_capB8ne180100Ev, symObjAddr: 0x9628, symBinAddr: 0x10000BBD4, symSize: 0x28 }
  - { offset: 0x192E6, size: 0x8, addend: 0x0, symName: __ZNSt3__117__compressed_pairIPNS_12basic_stringIcNS_11char_traitsIcEENS_9allocatorIcEEEERNS4_IS6_EEEC2B8ne180100IDnS9_EEOT_OT0_, symObjAddr: 0x9650, symBinAddr: 0x10000BBFC, symSize: 0x48 }
  - { offset: 0x1933C, size: 0x8, addend: 0x0, symName: __ZNSt3__122__compressed_pair_elemIRNS_9allocatorINS_12basic_stringIcNS_11char_traitsIcEENS1_IcEEEEEELi1ELb0EEC2B8ne180100IS8_vEEOT_, symObjAddr: 0x9698, symBinAddr: 0x10000BC44, symSize: 0x20 }
  - { offset: 0x1937C, size: 0x8, addend: 0x0, symName: __ZNSt3__19allocatorINS_12basic_stringIcNS_11char_traitsIcEENS0_IcEEEEE8allocateB8ne180100Em, symObjAddr: 0x96B8, symBinAddr: 0x10000BC64, symSize: 0x5C }
  - { offset: 0x193AE, size: 0x8, addend: 0x0, symName: __ZNSt3__117__compressed_pairIPNS_12basic_stringIcNS_11char_traitsIcEENS_9allocatorIcEEEERNS4_IS6_EEE6secondB8ne180100Ev, symObjAddr: 0x9714, symBinAddr: 0x10000BCC0, symSize: 0x28 }
  - { offset: 0x193D2, size: 0x8, addend: 0x0, symName: __ZNSt3__122__compressed_pair_elemIRNS_9allocatorINS_12basic_stringIcNS_11char_traitsIcEENS1_IcEEEEEELi1ELb0EE5__getB8ne180100Ev, symObjAddr: 0x973C, symBinAddr: 0x10000BCE8, symSize: 0x18 }
  - { offset: 0x193F6, size: 0x8, addend: 0x0, symName: __ZNSt3__117__compressed_pairIPNS_12basic_stringIcNS_11char_traitsIcEENS_9allocatorIcEEEERNS4_IS6_EEE5firstB8ne180100Ev, symObjAddr: 0x9754, symBinAddr: 0x10000BD00, symSize: 0x24 }
  - { offset: 0x1941A, size: 0x8, addend: 0x0, symName: __ZNKSt3__16vectorINS_12basic_stringIcNS_11char_traitsIcEENS_9allocatorIcEEEENS4_IS6_EEE17__annotate_deleteB8ne180100Ev, symObjAddr: 0x9778, symBinAddr: 0x10000BD24, symSize: 0x10 }
  - { offset: 0x1943E, size: 0x8, addend: 0x0, symName: __ZNSt3__116reverse_iteratorIPNS_12basic_stringIcNS_11char_traitsIcEENS_9allocatorIcEEEEEC1B8ne180100ES7_, symObjAddr: 0x98B4, symBinAddr: 0x10000BE60, symSize: 0x34 }
  - { offset: 0x19474, size: 0x8, addend: 0x0, symName: __ZNKSt3__116reverse_iteratorIPNS_12basic_stringIcNS_11char_traitsIcEENS_9allocatorIcEEEEE4baseB8ne180100Ev, symObjAddr: 0x98E8, symBinAddr: 0x10000BE94, symSize: 0x18 }
  - { offset: 0x19498, size: 0x8, addend: 0x0, symName: __ZNKSt3__16vectorINS_12basic_stringIcNS_11char_traitsIcEENS_9allocatorIcEEEENS4_IS6_EEE14__annotate_newB8ne180100Em, symObjAddr: 0x993C, symBinAddr: 0x10000BEE8, symSize: 0x14 }
  - { offset: 0x194CB, size: 0x8, addend: 0x0, symName: __ZNSt3__129_AllocatorDestroyRangeReverseINS_9allocatorINS_12basic_stringIcNS_11char_traitsIcEENS1_IcEEEEEENS_16reverse_iteratorIPS6_EEEC1B8ne180100ERS7_RSA_SD_, symObjAddr: 0x999C, symBinAddr: 0x10000BF48, symSize: 0x44 }
  - { offset: 0x19520, size: 0x8, addend: 0x0, symName: __ZNKSt3__116reverse_iteratorIPNS_12basic_stringIcNS_11char_traitsIcEENS_9allocatorIcEEEEEdeB8ne180100Ev, symObjAddr: 0x9A4C, symBinAddr: 0x10000BFF8, symSize: 0x28 }
  - { offset: 0x19552, size: 0x8, addend: 0x0, symName: __ZNSt3__116reverse_iteratorIPNS_12basic_stringIcNS_11char_traitsIcEENS_9allocatorIcEEEEEppB8ne180100Ev, symObjAddr: 0x9A74, symBinAddr: 0x10000C020, symSize: 0x20 }
  - { offset: 0x19576, size: 0x8, addend: 0x0, symName: __ZNSt3__128__exception_guard_exceptionsINS_29_AllocatorDestroyRangeReverseINS_9allocatorINS_12basic_stringIcNS_11char_traitsIcEENS2_IcEEEEEENS_16reverse_iteratorIPS7_EEEEE10__completeB8ne180100Ev, symObjAddr: 0x9A94, symBinAddr: 0x10000C040, symSize: 0x1C }
  - { offset: 0x1959A, size: 0x8, addend: 0x0, symName: __ZNSt3__128__exception_guard_exceptionsINS_29_AllocatorDestroyRangeReverseINS_9allocatorINS_12basic_stringIcNS_11char_traitsIcEENS2_IcEEEEEENS_16reverse_iteratorIPS7_EEEEED1B8ne180100Ev, symObjAddr: 0x9AB0, symBinAddr: 0x10000C05C, symSize: 0x2C }
  - { offset: 0x195C2, size: 0x8, addend: 0x0, symName: __ZNSt3__128__exception_guard_exceptionsINS_29_AllocatorDestroyRangeReverseINS_9allocatorINS_12basic_stringIcNS_11char_traitsIcEENS2_IcEEEEEENS_16reverse_iteratorIPS7_EEEEEC1B8ne180100ESC_, symObjAddr: 0x9ADC, symBinAddr: 0x10000C088, symSize: 0x34 }
  - { offset: 0x195F9, size: 0x8, addend: 0x0, symName: __ZNSt3__128__exception_guard_exceptionsINS_29_AllocatorDestroyRangeReverseINS_9allocatorINS_12basic_stringIcNS_11char_traitsIcEENS2_IcEEEEEENS_16reverse_iteratorIPS7_EEEEEC2B8ne180100ESC_, symObjAddr: 0x9B10, symBinAddr: 0x10000C0BC, symSize: 0x30 }
  - { offset: 0x19630, size: 0x8, addend: 0x0, symName: __ZNSt3__129_AllocatorDestroyRangeReverseINS_9allocatorINS_12basic_stringIcNS_11char_traitsIcEENS1_IcEEEEEENS_16reverse_iteratorIPS6_EEEC2B8ne180100ERS7_RSA_SD_, symObjAddr: 0x9B40, symBinAddr: 0x10000C0EC, symSize: 0x38 }
  - { offset: 0x1968A, size: 0x8, addend: 0x0, symName: __ZNSt3__119__to_address_helperINS_16reverse_iteratorIPNS_12basic_stringIcNS_11char_traitsIcEENS_9allocatorIcEEEEEEvE6__callB8ne180100ERKS9_, symObjAddr: 0x9B78, symBinAddr: 0x10000C124, symSize: 0x38 }
  - { offset: 0x196AC, size: 0x8, addend: 0x0, symName: __ZNKSt3__116reverse_iteratorIPNS_12basic_stringIcNS_11char_traitsIcEENS_9allocatorIcEEEEEptB8ne180100Ev, symObjAddr: 0x9BB0, symBinAddr: 0x10000C15C, symSize: 0x24 }
  - { offset: 0x196D0, size: 0x8, addend: 0x0, symName: __ZNSt3__128__exception_guard_exceptionsINS_29_AllocatorDestroyRangeReverseINS_9allocatorINS_12basic_stringIcNS_11char_traitsIcEENS2_IcEEEEEENS_16reverse_iteratorIPS7_EEEEED2B8ne180100Ev, symObjAddr: 0x9BD4, symBinAddr: 0x10000C180, symSize: 0x50 }
  - { offset: 0x196F8, size: 0x8, addend: 0x0, symName: __ZNKSt3__129_AllocatorDestroyRangeReverseINS_9allocatorINS_12basic_stringIcNS_11char_traitsIcEENS1_IcEEEEEENS_16reverse_iteratorIPS6_EEEclB8ne180100Ev, symObjAddr: 0x9C24, symBinAddr: 0x10000C1D0, symSize: 0xB4 }
  - { offset: 0x1971D, size: 0x8, addend: 0x0, symName: __ZNSt3__116reverse_iteratorINS0_IPNS_12basic_stringIcNS_11char_traitsIcEENS_9allocatorIcEEEEEEEC1B8ne180100ES8_, symObjAddr: 0x9D48, symBinAddr: 0x10000C2F4, symSize: 0x3C }
  - { offset: 0x19753, size: 0x8, addend: 0x0, symName: __ZNSt3__116allocator_traitsINS_9allocatorINS_12basic_stringIcNS_11char_traitsIcEENS1_IcEEEEEEE7destroyB8ne180100IS6_vEEvRS7_PT_, symObjAddr: 0x9DE4, symBinAddr: 0x10000C390, symSize: 0x2C }
  - { offset: 0x1978F, size: 0x8, addend: 0x0, symName: __ZNSt3__116reverse_iteratorINS0_IPNS_12basic_stringIcNS_11char_traitsIcEENS_9allocatorIcEEEEEEEppB8ne180100Ev, symObjAddr: 0x9E34, symBinAddr: 0x10000C3E0, symSize: 0x30 }
  - { offset: 0x197B3, size: 0x8, addend: 0x0, symName: __ZNKSt3__116reverse_iteratorINS0_IPNS_12basic_stringIcNS_11char_traitsIcEENS_9allocatorIcEEEEEEE4baseB8ne180100Ev, symObjAddr: 0x9E64, symBinAddr: 0x10000C410, symSize: 0x24 }
  - { offset: 0x197D7, size: 0x8, addend: 0x0, symName: __ZNSt3__19allocatorINS_12basic_stringIcNS_11char_traitsIcEENS0_IcEEEEE7destroyB8ne180100EPS5_, symObjAddr: 0x9E88, symBinAddr: 0x10000C434, symSize: 0x28 }
  - { offset: 0x1980E, size: 0x8, addend: 0x0, symName: __ZNSt3__119__to_address_helperINS_16reverse_iteratorINS1_IPNS_12basic_stringIcNS_11char_traitsIcEENS_9allocatorIcEEEEEEEEvE6__callB8ne180100ERKSA_, symObjAddr: 0x9EB0, symBinAddr: 0x10000C45C, symSize: 0x38 }
  - { offset: 0x19830, size: 0x8, addend: 0x0, symName: __ZNKSt3__116reverse_iteratorINS0_IPNS_12basic_stringIcNS_11char_traitsIcEENS_9allocatorIcEEEEEEEptB8ne180100Ev, symObjAddr: 0x9EE8, symBinAddr: 0x10000C494, symSize: 0x24 }
  - { offset: 0x19854, size: 0x8, addend: 0x0, symName: __ZNKSt3__116reverse_iteratorINS0_IPNS_12basic_stringIcNS_11char_traitsIcEENS_9allocatorIcEEEEEEEdeB8ne180100Ev, symObjAddr: 0x9F0C, symBinAddr: 0x10000C4B8, symSize: 0x34 }
  - { offset: 0x19886, size: 0x8, addend: 0x0, symName: __ZNSt3__116reverse_iteratorIPNS_12basic_stringIcNS_11char_traitsIcEENS_9allocatorIcEEEEEmmB8ne180100Ev, symObjAddr: 0x9F40, symBinAddr: 0x10000C4EC, symSize: 0x20 }
  - { offset: 0x198AA, size: 0x8, addend: 0x0, symName: __ZNSt3__116reverse_iteratorINS0_IPNS_12basic_stringIcNS_11char_traitsIcEENS_9allocatorIcEEEEEEEC2B8ne180100ES8_, symObjAddr: 0x9F60, symBinAddr: 0x10000C50C, symSize: 0x2C }
  - { offset: 0x198E0, size: 0x8, addend: 0x0, symName: __ZNSt3__116reverse_iteratorIPNS_12basic_stringIcNS_11char_traitsIcEENS_9allocatorIcEEEEEC2B8ne180100ES7_, symObjAddr: 0x9F8C, symBinAddr: 0x10000C538, symSize: 0x28 }
  - { offset: 0x19916, size: 0x8, addend: 0x0, symName: __ZNSt3__114__split_bufferINS_12basic_stringIcNS_11char_traitsIcEENS_9allocatorIcEEEERNS4_IS6_EEED2Ev, symObjAddr: 0x9FB4, symBinAddr: 0x10000C560, symSize: 0x8C }
  - { offset: 0x19940, size: 0x8, addend: 0x0, symName: __ZNSt3__114__split_bufferINS_12basic_stringIcNS_11char_traitsIcEENS_9allocatorIcEEEERNS4_IS6_EEE5clearB8ne180100Ev, symObjAddr: 0xA040, symBinAddr: 0x10000C5EC, symSize: 0x28 }
  - { offset: 0x19964, size: 0x8, addend: 0x0, symName: __ZNSt3__116allocator_traitsINS_9allocatorINS_12basic_stringIcNS_11char_traitsIcEENS1_IcEEEEEEE10deallocateB8ne180100ERS7_PS6_m, symObjAddr: 0xA068, symBinAddr: 0x10000C614, symSize: 0x34 }
  - { offset: 0x199A5, size: 0x8, addend: 0x0, symName: __ZNKSt3__114__split_bufferINS_12basic_stringIcNS_11char_traitsIcEENS_9allocatorIcEEEERNS4_IS6_EEE8capacityB8ne180100Ev, symObjAddr: 0xA09C, symBinAddr: 0x10000C648, symSize: 0x40 }
  - { offset: 0x199C9, size: 0x8, addend: 0x0, symName: __ZNSt3__114__split_bufferINS_12basic_stringIcNS_11char_traitsIcEENS_9allocatorIcEEEERNS4_IS6_EEE17__destruct_at_endB8ne180100EPS6_, symObjAddr: 0xA0DC, symBinAddr: 0x10000C688, symSize: 0x2C }
  - { offset: 0x199FB, size: 0x8, addend: 0x0, symName: __ZNSt3__114__split_bufferINS_12basic_stringIcNS_11char_traitsIcEENS_9allocatorIcEEEERNS4_IS6_EEE17__destruct_at_endB8ne180100EPS6_NS_17integral_constantIbLb0EEE, symObjAddr: 0xA108, symBinAddr: 0x10000C6B4, symSize: 0x80 }
  - { offset: 0x19A39, size: 0x8, addend: 0x0, symName: __ZNSt3__19allocatorINS_12basic_stringIcNS_11char_traitsIcEENS0_IcEEEEE10deallocateB8ne180100EPS5_m, symObjAddr: 0xA188, symBinAddr: 0x10000C734, symSize: 0x44 }
  - { offset: 0x19A79, size: 0x8, addend: 0x0, symName: __ZNKSt3__114__split_bufferINS_12basic_stringIcNS_11char_traitsIcEENS_9allocatorIcEEEERNS4_IS6_EEE9__end_capB8ne180100Ev, symObjAddr: 0xA1CC, symBinAddr: 0x10000C778, symSize: 0x28 }
  - { offset: 0x19A9D, size: 0x8, addend: 0x0, symName: __ZNKSt3__117__compressed_pairIPNS_12basic_stringIcNS_11char_traitsIcEENS_9allocatorIcEEEERNS4_IS6_EEE5firstB8ne180100Ev, symObjAddr: 0xA1F4, symBinAddr: 0x10000C7A0, symSize: 0x24 }
  - { offset: 0x19AE4, size: 0x8, addend: 0x0, symName: __ZZN19unit_test_framework9TestSuite21get_test_names_to_runEiPPcENKUlRKNSt3__14pairINS3_12basic_stringIcNS3_11char_traitsIcEENS3_9allocatorIcEEEENS_8TestCaseEEEE_clESE_, symObjAddr: 0xA218, symBinAddr: 0x10000C7C4, symSize: 0x3C }
  - { offset: 0x19B1B, size: 0x8, addend: 0x0, symName: __ZNSt3__14pairINS_12basic_stringIcNS_11char_traitsIcEENS_9allocatorIcEEEEN19unit_test_framework8TestCaseEEC1B8ne180100IKS6_S8_Li0EEERKNS0_IT_T0_EE, symObjAddr: 0xA254, symBinAddr: 0x10000C800, symSize: 0x34 }
  - { offset: 0x19B69, size: 0x8, addend: 0x0, symName: __ZNSt3__120back_insert_iteratorINS_6vectorINS_12basic_stringIcNS_11char_traitsIcEENS_9allocatorIcEEEENS5_IS7_EEEEEdeB8ne180100Ev, symObjAddr: 0xA288, symBinAddr: 0x10000C834, symSize: 0x14 }
  - { offset: 0x19B8D, size: 0x8, addend: 0x0, symName: __ZNSt3__120back_insert_iteratorINS_6vectorINS_12basic_stringIcNS_11char_traitsIcEENS_9allocatorIcEEEENS5_IS7_EEEEEaSB8ne180100EOS7_, symObjAddr: 0xA29C, symBinAddr: 0x10000C848, symSize: 0x38 }
  - { offset: 0x19BBF, size: 0x8, addend: 0x0, symName: __ZNSt3__14pairINS_12basic_stringIcNS_11char_traitsIcEENS_9allocatorIcEEEEN19unit_test_framework8TestCaseEED1Ev, symObjAddr: 0xA2D4, symBinAddr: 0x10000C880, symSize: 0x2C }
  - { offset: 0x19BE9, size: 0x8, addend: 0x0, symName: __ZNSt3__120back_insert_iteratorINS_6vectorINS_12basic_stringIcNS_11char_traitsIcEENS_9allocatorIcEEEENS5_IS7_EEEEEppB8ne180100Ev, symObjAddr: 0xA300, symBinAddr: 0x10000C8AC, symSize: 0x14 }
  - { offset: 0x19C0D, size: 0x8, addend: 0x0, symName: __ZNSt3__14pairINS_12basic_stringIcNS_11char_traitsIcEENS_9allocatorIcEEEEN19unit_test_framework8TestCaseEEC2B8ne180100IKS6_S8_Li0EEERKNS0_IT_T0_EE, symObjAddr: 0xA314, symBinAddr: 0x10000C8C0, symSize: 0x70 }
  - { offset: 0x19C66, size: 0x8, addend: 0x0, symName: __ZN19unit_test_framework8TestCaseC1ERKS0_, symObjAddr: 0xA384, symBinAddr: 0x10000C930, symSize: 0x34 }
  - { offset: 0x19C9B, size: 0x8, addend: 0x0, symName: __ZN19unit_test_framework8TestCaseC2ERKS0_, symObjAddr: 0xA3B8, symBinAddr: 0x10000C964, symSize: 0xB0 }
  - { offset: 0x19CCF, size: 0x8, addend: 0x0, symName: __ZNSt3__14pairINS_12basic_stringIcNS_11char_traitsIcEENS_9allocatorIcEEEEN19unit_test_framework8TestCaseEED2Ev, symObjAddr: 0xA468, symBinAddr: 0x10000CA14, symSize: 0x38 }
  - { offset: 0x19CF9, size: 0x8, addend: 0x0, symName: __ZNSt3__120back_insert_iteratorINS_6vectorINS_12basic_stringIcNS_11char_traitsIcEENS_9allocatorIcEEEENS5_IS7_EEEEEC1B8ne180100ERS9_, symObjAddr: 0xA4A0, symBinAddr: 0x10000CA4C, symSize: 0x34 }
  - { offset: 0x19D2F, size: 0x8, addend: 0x0, symName: __ZNSt3__120back_insert_iteratorINS_6vectorINS_12basic_stringIcNS_11char_traitsIcEENS_9allocatorIcEEEENS5_IS7_EEEEEC2B8ne180100ERS9_, symObjAddr: 0xA4D4, symBinAddr: 0x10000CA80, symSize: 0x20 }
  - { offset: 0x19D65, size: 0x8, addend: 0x0, symName: __ZNSt3__16vectorINS_12basic_stringIcNS_11char_traitsIcEENS_9allocatorIcEEEENS4_IS6_EEE13__move_assignERS8_NS_17integral_constantIbLb1EEE, symObjAddr: 0xA4F4, symBinAddr: 0x10000CAA0, symSize: 0x94 }
  - { offset: 0x19DA6, size: 0x8, addend: 0x0, symName: __ZNSt3__16vectorINS_12basic_stringIcNS_11char_traitsIcEENS_9allocatorIcEEEENS4_IS6_EEE13__vdeallocateEv, symObjAddr: 0xA588, symBinAddr: 0x10000CB34, symSize: 0x94 }
  - { offset: 0x19DCC, size: 0x8, addend: 0x0, symName: __ZNSt3__16vectorINS_12basic_stringIcNS_11char_traitsIcEENS_9allocatorIcEEEENS4_IS6_EEE19__move_assign_allocB8ne180100ERS8_, symObjAddr: 0xA61C, symBinAddr: 0x10000CBC8, symSize: 0x2C }
  - { offset: 0x19DFF, size: 0x8, addend: 0x0, symName: __ZNSt3__16vectorINS_12basic_stringIcNS_11char_traitsIcEENS_9allocatorIcEEEENS4_IS6_EEE5clearB8ne180100Ev, symObjAddr: 0xA648, symBinAddr: 0x10000CBF4, symSize: 0x44 }
  - { offset: 0x19E32, size: 0x8, addend: 0x0, symName: __ZNSt3__16vectorINS_12basic_stringIcNS_11char_traitsIcEENS_9allocatorIcEEEENS4_IS6_EEE7__clearB8ne180100Ev, symObjAddr: 0xA68C, symBinAddr: 0x10000CC38, symSize: 0x28 }
  - { offset: 0x19E56, size: 0x8, addend: 0x0, symName: __ZNKSt3__16vectorINS_12basic_stringIcNS_11char_traitsIcEENS_9allocatorIcEEEENS4_IS6_EEE17__annotate_shrinkB8ne180100Em, symObjAddr: 0xA6B4, symBinAddr: 0x10000CC60, symSize: 0x14 }
  - { offset: 0x19E89, size: 0x8, addend: 0x0, symName: __ZNSt3__16vectorINS_12basic_stringIcNS_11char_traitsIcEENS_9allocatorIcEEEENS4_IS6_EEE22__base_destruct_at_endB8ne180100EPS6_, symObjAddr: 0xA6C8, symBinAddr: 0x10000CC74, symSize: 0x8C }
  - { offset: 0x19ECB, size: 0x8, addend: 0x0, symName: __ZNSt3__16vectorINS_12basic_stringIcNS_11char_traitsIcEENS_9allocatorIcEEEENS4_IS6_EEE19__move_assign_allocB8ne180100ERS8_NS_17integral_constantIbLb1EEE, symObjAddr: 0xA754, symBinAddr: 0x10000CD00, symSize: 0x38 }
  - { offset: 0x19F0A, size: 0x8, addend: 0x0, symName: __ZNSt3__16vectorINS_12basic_stringIcNS_11char_traitsIcEENS_9allocatorIcEEEENS4_IS6_EEED2B8ne180100Ev, symObjAddr: 0xA78C, symBinAddr: 0x10000CD38, symSize: 0x44 }
  - { offset: 0x19F32, size: 0x8, addend: 0x0, symName: __ZNSt3__16vectorINS_12basic_stringIcNS_11char_traitsIcEENS_9allocatorIcEEEENS4_IS6_EEE16__destroy_vectorC1B8ne180100ERS8_, symObjAddr: 0xA7D0, symBinAddr: 0x10000CD7C, symSize: 0x34 }
  - { offset: 0x19F69, size: 0x8, addend: 0x0, symName: __ZNSt3__16vectorINS_12basic_stringIcNS_11char_traitsIcEENS_9allocatorIcEEEENS4_IS6_EEE16__destroy_vectorclB8ne180100Ev, symObjAddr: 0xA804, symBinAddr: 0x10000CDB0, symSize: 0x90 }
  - { offset: 0x19F8D, size: 0x8, addend: 0x0, symName: __ZNSt3__16vectorINS_12basic_stringIcNS_11char_traitsIcEENS_9allocatorIcEEEENS4_IS6_EEE16__destroy_vectorC2B8ne180100ERS8_, symObjAddr: 0xA894, symBinAddr: 0x10000CE40, symSize: 0x20 }
  - { offset: 0x19FC4, size: 0x8, addend: 0x0, symName: __ZNSt3__16vectorINS_12basic_stringIcNS_11char_traitsIcEENS_9allocatorIcEEEENS4_IS6_EEE11__make_iterB8ne180100EPS6_, symObjAddr: 0xA8B4, symBinAddr: 0x10000CE60, symSize: 0x30 }
  - { offset: 0x19FF7, size: 0x8, addend: 0x0, symName: __ZNSt3__111__wrap_iterIPNS_12basic_stringIcNS_11char_traitsIcEENS_9allocatorIcEEEEEC1B8ne180100ES7_, symObjAddr: 0xA8E4, symBinAddr: 0x10000CE90, symSize: 0x34 }
  - { offset: 0x1A02D, size: 0x8, addend: 0x0, symName: __ZNSt3__111__wrap_iterIPNS_12basic_stringIcNS_11char_traitsIcEENS_9allocatorIcEEEEEC2B8ne180100ES7_, symObjAddr: 0xA918, symBinAddr: 0x10000CEC4, symSize: 0x20 }
  - { offset: 0x1A063, size: 0x8, addend: 0x0, symName: __ZNKSt3__111__wrap_iterIPNS_12basic_stringIcNS_11char_traitsIcEENS_9allocatorIcEEEEE4baseB8ne180100Ev, symObjAddr: 0xA980, symBinAddr: 0x10000CF2C, symSize: 0x18 }
  - { offset: 0x1A087, size: 0x8, addend: 0x0, symName: __ZNSt3__16__treeINS_12__value_typeINS_12basic_stringIcNS_11char_traitsIcEENS_9allocatorIcEEEEN19unit_test_framework8TestCaseEEENS_19__map_value_compareIS7_SA_NS_4lessIS7_EELb1EEENS5_ISA_EEE4findIS7_EENS_15__tree_iteratorISA_PNS_11__tree_nodeISA_PvEElEERKT_, symObjAddr: 0xA998, symBinAddr: 0x10000CF44, symSize: 0xF8 }
  - { offset: 0x1A0D4, size: 0x8, addend: 0x0, symName: __ZNSt3__16__treeINS_12__value_typeINS_12basic_stringIcNS_11char_traitsIcEENS_9allocatorIcEEEEN19unit_test_framework8TestCaseEEENS_19__map_value_compareIS7_SA_NS_4lessIS7_EELb1EEENS5_ISA_EEE13__lower_boundIS7_EENS_15__tree_iteratorISA_PNS_11__tree_nodeISA_PvEElEERKT_SM_PNS_15__tree_end_nodeIPNS_16__tree_node_baseISK_EEEE, symObjAddr: 0xAA90, symBinAddr: 0x10000D03C, symSize: 0xA4 }
  - { offset: 0x1A130, size: 0x8, addend: 0x0, symName: __ZNSt3__16__treeINS_12__value_typeINS_12basic_stringIcNS_11char_traitsIcEENS_9allocatorIcEEEEN19unit_test_framework8TestCaseEEENS_19__map_value_compareIS7_SA_NS_4lessIS7_EELb1EEENS5_ISA_EEE3endB8ne180100Ev, symObjAddr: 0xAB34, symBinAddr: 0x10000D0E0, symSize: 0x34 }
  - { offset: 0x1A154, size: 0x8, addend: 0x0, symName: __ZNKSt3__115__tree_iteratorINS_12__value_typeINS_12basic_stringIcNS_11char_traitsIcEENS_9allocatorIcEEEEN19unit_test_framework8TestCaseEEEPNS_11__tree_nodeISA_PvEElEdeB8ne180100Ev, symObjAddr: 0xAB68, symBinAddr: 0x10000D114, symSize: 0x28 }
  - { offset: 0x1A178, size: 0x8, addend: 0x0, symName: __ZNSt3__115__tree_iteratorINS_12__value_typeINS_12basic_stringIcNS_11char_traitsIcEENS_9allocatorIcEEEEN19unit_test_framework8TestCaseEEEPNS_11__tree_nodeISA_PvEElEC1B8ne180100EPNS_15__tree_end_nodeIPNS_16__tree_node_baseISC_EEEE, symObjAddr: 0xAB90, symBinAddr: 0x10000D13C, symSize: 0x34 }
  - { offset: 0x1A1AF, size: 0x8, addend: 0x0, symName: __ZNSt3__115__tree_iteratorINS_12__value_typeINS_12basic_stringIcNS_11char_traitsIcEENS_9allocatorIcEEEEN19unit_test_framework8TestCaseEEEPNS_11__tree_nodeISA_PvEElEC2B8ne180100EPNS_15__tree_end_nodeIPNS_16__tree_node_baseISC_EEEE, symObjAddr: 0xABC4, symBinAddr: 0x10000D170, symSize: 0x20 }
  - { offset: 0x1A1E6, size: 0x8, addend: 0x0, symName: __ZNSt12out_of_rangeC1B8ne180100EPKc, symObjAddr: 0xAC48, symBinAddr: 0x10000D1F4, symSize: 0x34 }
  - { offset: 0x1A21C, size: 0x8, addend: 0x0, symName: __ZNSt12out_of_rangeC2B8ne180100EPKc, symObjAddr: 0xAC7C, symBinAddr: 0x10000D228, symSize: 0x44 }
  - { offset: 0x1A252, size: 0x8, addend: 0x0, symName: __ZN19unit_test_framework10Diagnostic8demangleEPKc, symObjAddr: 0xACC0, symBinAddr: 0x10000D26C, symSize: 0xDC }
  - { offset: 0x1A2D3, size: 0x8, addend: 0x0, symName: __ZNKSt9type_info4nameB8ne180100Ev, symObjAddr: 0xAD9C, symBinAddr: 0x10000D348, symSize: 0x24 }
  - { offset: 0x1A317, size: 0x8, addend: 0x0, symName: __ZNSt3__112basic_stringIcNS_11char_traitsIcEENS_9allocatorIcEEEaSB8ne180100EOS5_, symObjAddr: 0xADC0, symBinAddr: 0x10000D36C, symSize: 0x34 }
  - { offset: 0x1A34A, size: 0x8, addend: 0x0, symName: __ZNK19unit_test_framework11TestFailure9to_stringEv, symObjAddr: 0xADF4, symBinAddr: 0x10000D3A0, symSize: 0x98 }
  - { offset: 0x1A37C, size: 0x8, addend: 0x0, symName: __ZNSt3__112basic_stringIcNS_11char_traitsIcEENS_9allocatorIcEEE13__move_assignB8ne180100ERS5_NS_17integral_constantIbLb1EEE, symObjAddr: 0xAE8C, symBinAddr: 0x10000D438, symSize: 0x17C }
  - { offset: 0x1A3DB, size: 0x8, addend: 0x0, symName: __ZNSt3__112basic_stringIcNS_11char_traitsIcEENS_9allocatorIcEEE19__move_assign_allocB8ne180100ERS5_, symObjAddr: 0xB090, symBinAddr: 0x10000D5B4, symSize: 0x2C }
  - { offset: 0x1A40E, size: 0x8, addend: 0x0, symName: __ZNKSt3__112basic_stringIcNS_11char_traitsIcEENS_9allocatorIcEEE17__annotate_shrinkB8ne180100Em, symObjAddr: 0xB158, symBinAddr: 0x10000D5E0, symSize: 0x14 }
  - { offset: 0x1A441, size: 0x8, addend: 0x0, symName: __ZNSt3__112basic_stringIcNS_11char_traitsIcEENS_9allocatorIcEEE19__move_assign_allocB8ne180100ERS5_NS_17integral_constantIbLb1EEE, symObjAddr: 0xB1E4, symBinAddr: 0x10000D5F4, symSize: 0x38 }
  - { offset: 0x1A480, size: 0x8, addend: 0x0, symName: __ZNK19unit_test_framework11TestFailure5printERNSt3__113basic_ostreamIcNS1_11char_traitsIcEEEE, symObjAddr: 0xB21C, symBinAddr: 0x10000D62C, symSize: 0x7C }
  - { offset: 0x1A4B2, size: 0x8, addend: 0x0, symName: __ZNKSt3__112basic_stringIcNS_11char_traitsIcEENS_9allocatorIcEEE5emptyB8ne180100Ev, symObjAddr: 0xB298, symBinAddr: 0x10000D6A8, symSize: 0x30 }
  - { offset: 0x1A4E0, size: 0x8, addend: 0x0, symName: __ZZN19unit_test_framework9TestSuite9run_testsEiPPcENKUlNSt3__14pairINS3_12basic_stringIcNS3_11char_traitsIcEENS3_9allocatorIcEEEENS_8TestCaseEEEE_clESC_, symObjAddr: 0xB2C8, symBinAddr: 0x10000D6D8, symSize: 0x30 }
  - { offset: 0x1A518, size: 0x8, addend: 0x0, symName: __ZNSt3__16__treeINS_12__value_typeINS_12basic_stringIcNS_11char_traitsIcEENS_9allocatorIcEEEEN19unit_test_framework8TestCaseEEENS_19__map_value_compareIS7_SA_NS_4lessIS7_EELb1EEENS5_ISA_EEE5beginB8ne180100Ev, symObjAddr: 0xB2F8, symBinAddr: 0x10000D708, symSize: 0x34 }
  - { offset: 0x1A546, size: 0x8, addend: 0x0, symName: __ZZN19unit_test_framework9TestSuite9run_testsEiPPcENKUlNSt3__14pairINS3_12basic_stringIcNS3_11char_traitsIcEENS3_9allocatorIcEEEENS_8TestCaseEEEE0_clESC_, symObjAddr: 0xB32C, symBinAddr: 0x10000D73C, symSize: 0x30 }
  - { offset: 0x1A57E, size: 0x8, addend: 0x0, symName: __ZN19unit_test_framework11SetCompleteD2Ev, symObjAddr: 0xB35C, symBinAddr: 0x10000D76C, symSize: 0x1C }
  - { offset: 0x1A5A6, size: 0x8, addend: 0x0, symName: __ZN19unit_test_framework18TestSuiteDestroyerD2Ev, symObjAddr: 0xB378, symBinAddr: 0x10000D788, symSize: 0x58 }
  - { offset: 0x1A5CE, size: 0x8, addend: 0x0, symName: __ZN19unit_test_framework9TestSuiteD1Ev, symObjAddr: 0xB3D0, symBinAddr: 0x10000D7E0, symSize: 0x2C }
  - { offset: 0x1A5F6, size: 0x8, addend: 0x0, symName: __ZN19unit_test_framework9TestSuiteD2Ev, symObjAddr: 0xB3FC, symBinAddr: 0x10000D80C, symSize: 0x2C }
  - { offset: 0x1A61E, size: 0x8, addend: 0x0, symName: __ZNSt3__112basic_stringIcNS_11char_traitsIcEENS_9allocatorIcEEEC2B8ne180100ILi0EEEPKc, symObjAddr: 0xB428, symBinAddr: 0x10000D838, symSize: 0x58 }
...
